
TimeBox.elf:     file format elf32-littlearm

Sections:
Idx Name          Size      VMA       LMA       File off  Algn
  0 .isr_vector   00000188  08000000  08000000  00010000  2**0
                  CONTENTS, ALLOC, LOAD, READONLY, DATA
  1 .text         00005198  08000190  08000190  00010190  2**4
                  CONTENTS, ALLOC, LOAD, READONLY, CODE
  2 .rodata       00000244  08005328  08005328  00015328  2**2
                  CONTENTS, ALLOC, LOAD, READONLY, DATA
  3 .ARM.extab    00000000  0800556c  0800556c  000200d4  2**0
                  CONTENTS
  4 .ARM          00000008  0800556c  0800556c  0001556c  2**2
                  CONTENTS, ALLOC, LOAD, READONLY, DATA
  5 .preinit_array 00000000  08005574  08005574  000200d4  2**0
                  CONTENTS, ALLOC, LOAD, DATA
  6 .init_array   00000004  08005574  08005574  00015574  2**2
                  CONTENTS, ALLOC, LOAD, DATA
  7 .fini_array   00000004  08005578  08005578  00015578  2**2
                  CONTENTS, ALLOC, LOAD, DATA
  8 .data         000000d4  20000000  0800557c  00020000  2**2
                  CONTENTS, ALLOC, LOAD, DATA
  9 .bss          00000194  200000d4  08005650  000200d4  2**2
                  ALLOC
 10 ._user_heap_stack 00000600  20000268  08005650  00020268  2**0
                  ALLOC
 11 .ARM.attributes 00000030  00000000  00000000  000200d4  2**0
                  CONTENTS, READONLY
 12 .debug_info   0000c986  00000000  00000000  00020104  2**0
                  CONTENTS, READONLY, DEBUGGING, OCTETS
 13 .debug_abbrev 00001f1d  00000000  00000000  0002ca8a  2**0
                  CONTENTS, READONLY, DEBUGGING, OCTETS
 14 .debug_aranges 000009c8  00000000  00000000  0002e9a8  2**3
                  CONTENTS, READONLY, DEBUGGING, OCTETS
 15 .debug_ranges 00000928  00000000  00000000  0002f370  2**3
                  CONTENTS, READONLY, DEBUGGING, OCTETS
 16 .debug_macro  00021692  00000000  00000000  0002fc98  2**0
                  CONTENTS, READONLY, DEBUGGING, OCTETS
 17 .debug_line   0000b9db  00000000  00000000  0005132a  2**0
                  CONTENTS, READONLY, DEBUGGING, OCTETS
 18 .debug_str    000c9e16  00000000  00000000  0005cd05  2**0
                  CONTENTS, READONLY, DEBUGGING, OCTETS
 19 .comment      00000053  00000000  00000000  00126b1b  2**0
                  CONTENTS, READONLY
 20 .debug_frame  00002cc4  00000000  00000000  00126b70  2**2
                  CONTENTS, READONLY, DEBUGGING, OCTETS

Disassembly of section .text:

08000190 <__do_global_dtors_aux>:
 8000190:	b510      	push	{r4, lr}
 8000192:	4c05      	ldr	r4, [pc, #20]	; (80001a8 <__do_global_dtors_aux+0x18>)
 8000194:	7823      	ldrb	r3, [r4, #0]
 8000196:	b933      	cbnz	r3, 80001a6 <__do_global_dtors_aux+0x16>
 8000198:	4b04      	ldr	r3, [pc, #16]	; (80001ac <__do_global_dtors_aux+0x1c>)
 800019a:	b113      	cbz	r3, 80001a2 <__do_global_dtors_aux+0x12>
 800019c:	4804      	ldr	r0, [pc, #16]	; (80001b0 <__do_global_dtors_aux+0x20>)
 800019e:	f3af 8000 	nop.w
 80001a2:	2301      	movs	r3, #1
 80001a4:	7023      	strb	r3, [r4, #0]
 80001a6:	bd10      	pop	{r4, pc}
 80001a8:	200000d4 	.word	0x200000d4
 80001ac:	00000000 	.word	0x00000000
 80001b0:	08005310 	.word	0x08005310

080001b4 <frame_dummy>:
 80001b4:	b508      	push	{r3, lr}
 80001b6:	4b03      	ldr	r3, [pc, #12]	; (80001c4 <frame_dummy+0x10>)
 80001b8:	b11b      	cbz	r3, 80001c2 <frame_dummy+0xe>
 80001ba:	4903      	ldr	r1, [pc, #12]	; (80001c8 <frame_dummy+0x14>)
 80001bc:	4803      	ldr	r0, [pc, #12]	; (80001cc <frame_dummy+0x18>)
 80001be:	f3af 8000 	nop.w
 80001c2:	bd08      	pop	{r3, pc}
 80001c4:	00000000 	.word	0x00000000
 80001c8:	200000d8 	.word	0x200000d8
 80001cc:	08005310 	.word	0x08005310

080001d0 <strlen>:
 80001d0:	4603      	mov	r3, r0
 80001d2:	f813 2b01 	ldrb.w	r2, [r3], #1
 80001d6:	2a00      	cmp	r2, #0
 80001d8:	d1fb      	bne.n	80001d2 <strlen+0x2>
 80001da:	1a18      	subs	r0, r3, r0
 80001dc:	3801      	subs	r0, #1
 80001de:	4770      	bx	lr

080001e0 <memchr>:
 80001e0:	f001 01ff 	and.w	r1, r1, #255	; 0xff
 80001e4:	2a10      	cmp	r2, #16
 80001e6:	db2b      	blt.n	8000240 <memchr+0x60>
 80001e8:	f010 0f07 	tst.w	r0, #7
 80001ec:	d008      	beq.n	8000200 <memchr+0x20>
 80001ee:	f810 3b01 	ldrb.w	r3, [r0], #1
 80001f2:	3a01      	subs	r2, #1
 80001f4:	428b      	cmp	r3, r1
 80001f6:	d02d      	beq.n	8000254 <memchr+0x74>
 80001f8:	f010 0f07 	tst.w	r0, #7
 80001fc:	b342      	cbz	r2, 8000250 <memchr+0x70>
 80001fe:	d1f6      	bne.n	80001ee <memchr+0xe>
 8000200:	b4f0      	push	{r4, r5, r6, r7}
 8000202:	ea41 2101 	orr.w	r1, r1, r1, lsl #8
 8000206:	ea41 4101 	orr.w	r1, r1, r1, lsl #16
 800020a:	f022 0407 	bic.w	r4, r2, #7
 800020e:	f07f 0700 	mvns.w	r7, #0
 8000212:	2300      	movs	r3, #0
 8000214:	e8f0 5602 	ldrd	r5, r6, [r0], #8
 8000218:	3c08      	subs	r4, #8
 800021a:	ea85 0501 	eor.w	r5, r5, r1
 800021e:	ea86 0601 	eor.w	r6, r6, r1
 8000222:	fa85 f547 	uadd8	r5, r5, r7
 8000226:	faa3 f587 	sel	r5, r3, r7
 800022a:	fa86 f647 	uadd8	r6, r6, r7
 800022e:	faa5 f687 	sel	r6, r5, r7
 8000232:	b98e      	cbnz	r6, 8000258 <memchr+0x78>
 8000234:	d1ee      	bne.n	8000214 <memchr+0x34>
 8000236:	bcf0      	pop	{r4, r5, r6, r7}
 8000238:	f001 01ff 	and.w	r1, r1, #255	; 0xff
 800023c:	f002 0207 	and.w	r2, r2, #7
 8000240:	b132      	cbz	r2, 8000250 <memchr+0x70>
 8000242:	f810 3b01 	ldrb.w	r3, [r0], #1
 8000246:	3a01      	subs	r2, #1
 8000248:	ea83 0301 	eor.w	r3, r3, r1
 800024c:	b113      	cbz	r3, 8000254 <memchr+0x74>
 800024e:	d1f8      	bne.n	8000242 <memchr+0x62>
 8000250:	2000      	movs	r0, #0
 8000252:	4770      	bx	lr
 8000254:	3801      	subs	r0, #1
 8000256:	4770      	bx	lr
 8000258:	2d00      	cmp	r5, #0
 800025a:	bf06      	itte	eq
 800025c:	4635      	moveq	r5, r6
 800025e:	3803      	subeq	r0, #3
 8000260:	3807      	subne	r0, #7
 8000262:	f015 0f01 	tst.w	r5, #1
 8000266:	d107      	bne.n	8000278 <memchr+0x98>
 8000268:	3001      	adds	r0, #1
 800026a:	f415 7f80 	tst.w	r5, #256	; 0x100
 800026e:	bf02      	ittt	eq
 8000270:	3001      	addeq	r0, #1
 8000272:	f415 3fc0 	tsteq.w	r5, #98304	; 0x18000
 8000276:	3001      	addeq	r0, #1
 8000278:	bcf0      	pop	{r4, r5, r6, r7}
 800027a:	3801      	subs	r0, #1
 800027c:	4770      	bx	lr
 800027e:	bf00      	nop

08000280 <__aeabi_drsub>:
 8000280:	f081 4100 	eor.w	r1, r1, #2147483648	; 0x80000000
 8000284:	e002      	b.n	800028c <__adddf3>
 8000286:	bf00      	nop

08000288 <__aeabi_dsub>:
 8000288:	f083 4300 	eor.w	r3, r3, #2147483648	; 0x80000000

0800028c <__adddf3>:
 800028c:	b530      	push	{r4, r5, lr}
 800028e:	ea4f 0441 	mov.w	r4, r1, lsl #1
 8000292:	ea4f 0543 	mov.w	r5, r3, lsl #1
 8000296:	ea94 0f05 	teq	r4, r5
 800029a:	bf08      	it	eq
 800029c:	ea90 0f02 	teqeq	r0, r2
 80002a0:	bf1f      	itttt	ne
 80002a2:	ea54 0c00 	orrsne.w	ip, r4, r0
 80002a6:	ea55 0c02 	orrsne.w	ip, r5, r2
 80002aa:	ea7f 5c64 	mvnsne.w	ip, r4, asr #21
 80002ae:	ea7f 5c65 	mvnsne.w	ip, r5, asr #21
 80002b2:	f000 80e2 	beq.w	800047a <__adddf3+0x1ee>
 80002b6:	ea4f 5454 	mov.w	r4, r4, lsr #21
 80002ba:	ebd4 5555 	rsbs	r5, r4, r5, lsr #21
 80002be:	bfb8      	it	lt
 80002c0:	426d      	neglt	r5, r5
 80002c2:	dd0c      	ble.n	80002de <__adddf3+0x52>
 80002c4:	442c      	add	r4, r5
 80002c6:	ea80 0202 	eor.w	r2, r0, r2
 80002ca:	ea81 0303 	eor.w	r3, r1, r3
 80002ce:	ea82 0000 	eor.w	r0, r2, r0
 80002d2:	ea83 0101 	eor.w	r1, r3, r1
 80002d6:	ea80 0202 	eor.w	r2, r0, r2
 80002da:	ea81 0303 	eor.w	r3, r1, r3
 80002de:	2d36      	cmp	r5, #54	; 0x36
 80002e0:	bf88      	it	hi
 80002e2:	bd30      	pophi	{r4, r5, pc}
 80002e4:	f011 4f00 	tst.w	r1, #2147483648	; 0x80000000
 80002e8:	ea4f 3101 	mov.w	r1, r1, lsl #12
 80002ec:	f44f 1c80 	mov.w	ip, #1048576	; 0x100000
 80002f0:	ea4c 3111 	orr.w	r1, ip, r1, lsr #12
 80002f4:	d002      	beq.n	80002fc <__adddf3+0x70>
 80002f6:	4240      	negs	r0, r0
 80002f8:	eb61 0141 	sbc.w	r1, r1, r1, lsl #1
 80002fc:	f013 4f00 	tst.w	r3, #2147483648	; 0x80000000
 8000300:	ea4f 3303 	mov.w	r3, r3, lsl #12
 8000304:	ea4c 3313 	orr.w	r3, ip, r3, lsr #12
 8000308:	d002      	beq.n	8000310 <__adddf3+0x84>
 800030a:	4252      	negs	r2, r2
 800030c:	eb63 0343 	sbc.w	r3, r3, r3, lsl #1
 8000310:	ea94 0f05 	teq	r4, r5
 8000314:	f000 80a7 	beq.w	8000466 <__adddf3+0x1da>
 8000318:	f1a4 0401 	sub.w	r4, r4, #1
 800031c:	f1d5 0e20 	rsbs	lr, r5, #32
 8000320:	db0d      	blt.n	800033e <__adddf3+0xb2>
 8000322:	fa02 fc0e 	lsl.w	ip, r2, lr
 8000326:	fa22 f205 	lsr.w	r2, r2, r5
 800032a:	1880      	adds	r0, r0, r2
 800032c:	f141 0100 	adc.w	r1, r1, #0
 8000330:	fa03 f20e 	lsl.w	r2, r3, lr
 8000334:	1880      	adds	r0, r0, r2
 8000336:	fa43 f305 	asr.w	r3, r3, r5
 800033a:	4159      	adcs	r1, r3
 800033c:	e00e      	b.n	800035c <__adddf3+0xd0>
 800033e:	f1a5 0520 	sub.w	r5, r5, #32
 8000342:	f10e 0e20 	add.w	lr, lr, #32
 8000346:	2a01      	cmp	r2, #1
 8000348:	fa03 fc0e 	lsl.w	ip, r3, lr
 800034c:	bf28      	it	cs
 800034e:	f04c 0c02 	orrcs.w	ip, ip, #2
 8000352:	fa43 f305 	asr.w	r3, r3, r5
 8000356:	18c0      	adds	r0, r0, r3
 8000358:	eb51 71e3 	adcs.w	r1, r1, r3, asr #31
 800035c:	f001 4500 	and.w	r5, r1, #2147483648	; 0x80000000
 8000360:	d507      	bpl.n	8000372 <__adddf3+0xe6>
 8000362:	f04f 0e00 	mov.w	lr, #0
 8000366:	f1dc 0c00 	rsbs	ip, ip, #0
 800036a:	eb7e 0000 	sbcs.w	r0, lr, r0
 800036e:	eb6e 0101 	sbc.w	r1, lr, r1
 8000372:	f5b1 1f80 	cmp.w	r1, #1048576	; 0x100000
 8000376:	d31b      	bcc.n	80003b0 <__adddf3+0x124>
 8000378:	f5b1 1f00 	cmp.w	r1, #2097152	; 0x200000
 800037c:	d30c      	bcc.n	8000398 <__adddf3+0x10c>
 800037e:	0849      	lsrs	r1, r1, #1
 8000380:	ea5f 0030 	movs.w	r0, r0, rrx
 8000384:	ea4f 0c3c 	mov.w	ip, ip, rrx
 8000388:	f104 0401 	add.w	r4, r4, #1
 800038c:	ea4f 5244 	mov.w	r2, r4, lsl #21
 8000390:	f512 0f80 	cmn.w	r2, #4194304	; 0x400000
 8000394:	f080 809a 	bcs.w	80004cc <__adddf3+0x240>
 8000398:	f1bc 4f00 	cmp.w	ip, #2147483648	; 0x80000000
 800039c:	bf08      	it	eq
 800039e:	ea5f 0c50 	movseq.w	ip, r0, lsr #1
 80003a2:	f150 0000 	adcs.w	r0, r0, #0
 80003a6:	eb41 5104 	adc.w	r1, r1, r4, lsl #20
 80003aa:	ea41 0105 	orr.w	r1, r1, r5
 80003ae:	bd30      	pop	{r4, r5, pc}
 80003b0:	ea5f 0c4c 	movs.w	ip, ip, lsl #1
 80003b4:	4140      	adcs	r0, r0
 80003b6:	eb41 0101 	adc.w	r1, r1, r1
 80003ba:	3c01      	subs	r4, #1
 80003bc:	bf28      	it	cs
 80003be:	f5b1 1f80 	cmpcs.w	r1, #1048576	; 0x100000
 80003c2:	d2e9      	bcs.n	8000398 <__adddf3+0x10c>
 80003c4:	f091 0f00 	teq	r1, #0
 80003c8:	bf04      	itt	eq
 80003ca:	4601      	moveq	r1, r0
 80003cc:	2000      	moveq	r0, #0
 80003ce:	fab1 f381 	clz	r3, r1
 80003d2:	bf08      	it	eq
 80003d4:	3320      	addeq	r3, #32
 80003d6:	f1a3 030b 	sub.w	r3, r3, #11
 80003da:	f1b3 0220 	subs.w	r2, r3, #32
 80003de:	da0c      	bge.n	80003fa <__adddf3+0x16e>
 80003e0:	320c      	adds	r2, #12
 80003e2:	dd08      	ble.n	80003f6 <__adddf3+0x16a>
 80003e4:	f102 0c14 	add.w	ip, r2, #20
 80003e8:	f1c2 020c 	rsb	r2, r2, #12
 80003ec:	fa01 f00c 	lsl.w	r0, r1, ip
 80003f0:	fa21 f102 	lsr.w	r1, r1, r2
 80003f4:	e00c      	b.n	8000410 <__adddf3+0x184>
 80003f6:	f102 0214 	add.w	r2, r2, #20
 80003fa:	bfd8      	it	le
 80003fc:	f1c2 0c20 	rsble	ip, r2, #32
 8000400:	fa01 f102 	lsl.w	r1, r1, r2
 8000404:	fa20 fc0c 	lsr.w	ip, r0, ip
 8000408:	bfdc      	itt	le
 800040a:	ea41 010c 	orrle.w	r1, r1, ip
 800040e:	4090      	lslle	r0, r2
 8000410:	1ae4      	subs	r4, r4, r3
 8000412:	bfa2      	ittt	ge
 8000414:	eb01 5104 	addge.w	r1, r1, r4, lsl #20
 8000418:	4329      	orrge	r1, r5
 800041a:	bd30      	popge	{r4, r5, pc}
 800041c:	ea6f 0404 	mvn.w	r4, r4
 8000420:	3c1f      	subs	r4, #31
 8000422:	da1c      	bge.n	800045e <__adddf3+0x1d2>
 8000424:	340c      	adds	r4, #12
 8000426:	dc0e      	bgt.n	8000446 <__adddf3+0x1ba>
 8000428:	f104 0414 	add.w	r4, r4, #20
 800042c:	f1c4 0220 	rsb	r2, r4, #32
 8000430:	fa20 f004 	lsr.w	r0, r0, r4
 8000434:	fa01 f302 	lsl.w	r3, r1, r2
 8000438:	ea40 0003 	orr.w	r0, r0, r3
 800043c:	fa21 f304 	lsr.w	r3, r1, r4
 8000440:	ea45 0103 	orr.w	r1, r5, r3
 8000444:	bd30      	pop	{r4, r5, pc}
 8000446:	f1c4 040c 	rsb	r4, r4, #12
 800044a:	f1c4 0220 	rsb	r2, r4, #32
 800044e:	fa20 f002 	lsr.w	r0, r0, r2
 8000452:	fa01 f304 	lsl.w	r3, r1, r4
 8000456:	ea40 0003 	orr.w	r0, r0, r3
 800045a:	4629      	mov	r1, r5
 800045c:	bd30      	pop	{r4, r5, pc}
 800045e:	fa21 f004 	lsr.w	r0, r1, r4
 8000462:	4629      	mov	r1, r5
 8000464:	bd30      	pop	{r4, r5, pc}
 8000466:	f094 0f00 	teq	r4, #0
 800046a:	f483 1380 	eor.w	r3, r3, #1048576	; 0x100000
 800046e:	bf06      	itte	eq
 8000470:	f481 1180 	eoreq.w	r1, r1, #1048576	; 0x100000
 8000474:	3401      	addeq	r4, #1
 8000476:	3d01      	subne	r5, #1
 8000478:	e74e      	b.n	8000318 <__adddf3+0x8c>
 800047a:	ea7f 5c64 	mvns.w	ip, r4, asr #21
 800047e:	bf18      	it	ne
 8000480:	ea7f 5c65 	mvnsne.w	ip, r5, asr #21
 8000484:	d029      	beq.n	80004da <__adddf3+0x24e>
 8000486:	ea94 0f05 	teq	r4, r5
 800048a:	bf08      	it	eq
 800048c:	ea90 0f02 	teqeq	r0, r2
 8000490:	d005      	beq.n	800049e <__adddf3+0x212>
 8000492:	ea54 0c00 	orrs.w	ip, r4, r0
 8000496:	bf04      	itt	eq
 8000498:	4619      	moveq	r1, r3
 800049a:	4610      	moveq	r0, r2
 800049c:	bd30      	pop	{r4, r5, pc}
 800049e:	ea91 0f03 	teq	r1, r3
 80004a2:	bf1e      	ittt	ne
 80004a4:	2100      	movne	r1, #0
 80004a6:	2000      	movne	r0, #0
 80004a8:	bd30      	popne	{r4, r5, pc}
 80004aa:	ea5f 5c54 	movs.w	ip, r4, lsr #21
 80004ae:	d105      	bne.n	80004bc <__adddf3+0x230>
 80004b0:	0040      	lsls	r0, r0, #1
 80004b2:	4149      	adcs	r1, r1
 80004b4:	bf28      	it	cs
 80004b6:	f041 4100 	orrcs.w	r1, r1, #2147483648	; 0x80000000
 80004ba:	bd30      	pop	{r4, r5, pc}
 80004bc:	f514 0480 	adds.w	r4, r4, #4194304	; 0x400000
 80004c0:	bf3c      	itt	cc
 80004c2:	f501 1180 	addcc.w	r1, r1, #1048576	; 0x100000
 80004c6:	bd30      	popcc	{r4, r5, pc}
 80004c8:	f001 4500 	and.w	r5, r1, #2147483648	; 0x80000000
 80004cc:	f045 41fe 	orr.w	r1, r5, #2130706432	; 0x7f000000
 80004d0:	f441 0170 	orr.w	r1, r1, #15728640	; 0xf00000
 80004d4:	f04f 0000 	mov.w	r0, #0
 80004d8:	bd30      	pop	{r4, r5, pc}
 80004da:	ea7f 5c64 	mvns.w	ip, r4, asr #21
 80004de:	bf1a      	itte	ne
 80004e0:	4619      	movne	r1, r3
 80004e2:	4610      	movne	r0, r2
 80004e4:	ea7f 5c65 	mvnseq.w	ip, r5, asr #21
 80004e8:	bf1c      	itt	ne
 80004ea:	460b      	movne	r3, r1
 80004ec:	4602      	movne	r2, r0
 80004ee:	ea50 3401 	orrs.w	r4, r0, r1, lsl #12
 80004f2:	bf06      	itte	eq
 80004f4:	ea52 3503 	orrseq.w	r5, r2, r3, lsl #12
 80004f8:	ea91 0f03 	teqeq	r1, r3
 80004fc:	f441 2100 	orrne.w	r1, r1, #524288	; 0x80000
 8000500:	bd30      	pop	{r4, r5, pc}
 8000502:	bf00      	nop

08000504 <__aeabi_ui2d>:
 8000504:	f090 0f00 	teq	r0, #0
 8000508:	bf04      	itt	eq
 800050a:	2100      	moveq	r1, #0
 800050c:	4770      	bxeq	lr
 800050e:	b530      	push	{r4, r5, lr}
 8000510:	f44f 6480 	mov.w	r4, #1024	; 0x400
 8000514:	f104 0432 	add.w	r4, r4, #50	; 0x32
 8000518:	f04f 0500 	mov.w	r5, #0
 800051c:	f04f 0100 	mov.w	r1, #0
 8000520:	e750      	b.n	80003c4 <__adddf3+0x138>
 8000522:	bf00      	nop

08000524 <__aeabi_i2d>:
 8000524:	f090 0f00 	teq	r0, #0
 8000528:	bf04      	itt	eq
 800052a:	2100      	moveq	r1, #0
 800052c:	4770      	bxeq	lr
 800052e:	b530      	push	{r4, r5, lr}
 8000530:	f44f 6480 	mov.w	r4, #1024	; 0x400
 8000534:	f104 0432 	add.w	r4, r4, #50	; 0x32
 8000538:	f010 4500 	ands.w	r5, r0, #2147483648	; 0x80000000
 800053c:	bf48      	it	mi
 800053e:	4240      	negmi	r0, r0
 8000540:	f04f 0100 	mov.w	r1, #0
 8000544:	e73e      	b.n	80003c4 <__adddf3+0x138>
 8000546:	bf00      	nop

08000548 <__aeabi_f2d>:
 8000548:	0042      	lsls	r2, r0, #1
 800054a:	ea4f 01e2 	mov.w	r1, r2, asr #3
 800054e:	ea4f 0131 	mov.w	r1, r1, rrx
 8000552:	ea4f 7002 	mov.w	r0, r2, lsl #28
 8000556:	bf1f      	itttt	ne
 8000558:	f012 437f 	andsne.w	r3, r2, #4278190080	; 0xff000000
 800055c:	f093 4f7f 	teqne	r3, #4278190080	; 0xff000000
 8000560:	f081 5160 	eorne.w	r1, r1, #939524096	; 0x38000000
 8000564:	4770      	bxne	lr
 8000566:	f032 427f 	bics.w	r2, r2, #4278190080	; 0xff000000
 800056a:	bf08      	it	eq
 800056c:	4770      	bxeq	lr
 800056e:	f093 4f7f 	teq	r3, #4278190080	; 0xff000000
 8000572:	bf04      	itt	eq
 8000574:	f441 2100 	orreq.w	r1, r1, #524288	; 0x80000
 8000578:	4770      	bxeq	lr
 800057a:	b530      	push	{r4, r5, lr}
 800057c:	f44f 7460 	mov.w	r4, #896	; 0x380
 8000580:	f001 4500 	and.w	r5, r1, #2147483648	; 0x80000000
 8000584:	f021 4100 	bic.w	r1, r1, #2147483648	; 0x80000000
 8000588:	e71c      	b.n	80003c4 <__adddf3+0x138>
 800058a:	bf00      	nop

0800058c <__aeabi_ul2d>:
 800058c:	ea50 0201 	orrs.w	r2, r0, r1
 8000590:	bf08      	it	eq
 8000592:	4770      	bxeq	lr
 8000594:	b530      	push	{r4, r5, lr}
 8000596:	f04f 0500 	mov.w	r5, #0
 800059a:	e00a      	b.n	80005b2 <__aeabi_l2d+0x16>

0800059c <__aeabi_l2d>:
 800059c:	ea50 0201 	orrs.w	r2, r0, r1
 80005a0:	bf08      	it	eq
 80005a2:	4770      	bxeq	lr
 80005a4:	b530      	push	{r4, r5, lr}
 80005a6:	f011 4500 	ands.w	r5, r1, #2147483648	; 0x80000000
 80005aa:	d502      	bpl.n	80005b2 <__aeabi_l2d+0x16>
 80005ac:	4240      	negs	r0, r0
 80005ae:	eb61 0141 	sbc.w	r1, r1, r1, lsl #1
 80005b2:	f44f 6480 	mov.w	r4, #1024	; 0x400
 80005b6:	f104 0432 	add.w	r4, r4, #50	; 0x32
 80005ba:	ea5f 5c91 	movs.w	ip, r1, lsr #22
 80005be:	f43f aed8 	beq.w	8000372 <__adddf3+0xe6>
 80005c2:	f04f 0203 	mov.w	r2, #3
 80005c6:	ea5f 0cdc 	movs.w	ip, ip, lsr #3
 80005ca:	bf18      	it	ne
 80005cc:	3203      	addne	r2, #3
 80005ce:	ea5f 0cdc 	movs.w	ip, ip, lsr #3
 80005d2:	bf18      	it	ne
 80005d4:	3203      	addne	r2, #3
 80005d6:	eb02 02dc 	add.w	r2, r2, ip, lsr #3
 80005da:	f1c2 0320 	rsb	r3, r2, #32
 80005de:	fa00 fc03 	lsl.w	ip, r0, r3
 80005e2:	fa20 f002 	lsr.w	r0, r0, r2
 80005e6:	fa01 fe03 	lsl.w	lr, r1, r3
 80005ea:	ea40 000e 	orr.w	r0, r0, lr
 80005ee:	fa21 f102 	lsr.w	r1, r1, r2
 80005f2:	4414      	add	r4, r2
 80005f4:	e6bd      	b.n	8000372 <__adddf3+0xe6>
 80005f6:	bf00      	nop

080005f8 <__aeabi_d2uiz>:
 80005f8:	004a      	lsls	r2, r1, #1
 80005fa:	d211      	bcs.n	8000620 <__aeabi_d2uiz+0x28>
 80005fc:	f512 1200 	adds.w	r2, r2, #2097152	; 0x200000
 8000600:	d211      	bcs.n	8000626 <__aeabi_d2uiz+0x2e>
 8000602:	d50d      	bpl.n	8000620 <__aeabi_d2uiz+0x28>
 8000604:	f46f 7378 	mvn.w	r3, #992	; 0x3e0
 8000608:	ebb3 5262 	subs.w	r2, r3, r2, asr #21
 800060c:	d40e      	bmi.n	800062c <__aeabi_d2uiz+0x34>
 800060e:	ea4f 23c1 	mov.w	r3, r1, lsl #11
 8000612:	f043 4300 	orr.w	r3, r3, #2147483648	; 0x80000000
 8000616:	ea43 5350 	orr.w	r3, r3, r0, lsr #21
 800061a:	fa23 f002 	lsr.w	r0, r3, r2
 800061e:	4770      	bx	lr
 8000620:	f04f 0000 	mov.w	r0, #0
 8000624:	4770      	bx	lr
 8000626:	ea50 3001 	orrs.w	r0, r0, r1, lsl #12
 800062a:	d102      	bne.n	8000632 <__aeabi_d2uiz+0x3a>
 800062c:	f04f 30ff 	mov.w	r0, #4294967295	; 0xffffffff
 8000630:	4770      	bx	lr
 8000632:	f04f 0000 	mov.w	r0, #0
 8000636:	4770      	bx	lr

08000638 <__aeabi_uldivmod>:
 8000638:	b953      	cbnz	r3, 8000650 <__aeabi_uldivmod+0x18>
 800063a:	b94a      	cbnz	r2, 8000650 <__aeabi_uldivmod+0x18>
 800063c:	2900      	cmp	r1, #0
 800063e:	bf08      	it	eq
 8000640:	2800      	cmpeq	r0, #0
 8000642:	bf1c      	itt	ne
 8000644:	f04f 31ff 	movne.w	r1, #4294967295	; 0xffffffff
 8000648:	f04f 30ff 	movne.w	r0, #4294967295	; 0xffffffff
 800064c:	f000 b96e 	b.w	800092c <__aeabi_idiv0>
 8000650:	f1ad 0c08 	sub.w	ip, sp, #8
 8000654:	e96d ce04 	strd	ip, lr, [sp, #-16]!
 8000658:	f000 f806 	bl	8000668 <__udivmoddi4>
 800065c:	f8dd e004 	ldr.w	lr, [sp, #4]
 8000660:	e9dd 2302 	ldrd	r2, r3, [sp, #8]
 8000664:	b004      	add	sp, #16
 8000666:	4770      	bx	lr

08000668 <__udivmoddi4>:
 8000668:	e92d 47f0 	stmdb	sp!, {r4, r5, r6, r7, r8, r9, sl, lr}
 800066c:	9d08      	ldr	r5, [sp, #32]
 800066e:	4604      	mov	r4, r0
 8000670:	468c      	mov	ip, r1
 8000672:	2b00      	cmp	r3, #0
 8000674:	f040 8083 	bne.w	800077e <__udivmoddi4+0x116>
 8000678:	428a      	cmp	r2, r1
 800067a:	4617      	mov	r7, r2
 800067c:	d947      	bls.n	800070e <__udivmoddi4+0xa6>
 800067e:	fab2 f282 	clz	r2, r2
 8000682:	b142      	cbz	r2, 8000696 <__udivmoddi4+0x2e>
 8000684:	f1c2 0020 	rsb	r0, r2, #32
 8000688:	fa24 f000 	lsr.w	r0, r4, r0
 800068c:	4091      	lsls	r1, r2
 800068e:	4097      	lsls	r7, r2
 8000690:	ea40 0c01 	orr.w	ip, r0, r1
 8000694:	4094      	lsls	r4, r2
 8000696:	ea4f 4817 	mov.w	r8, r7, lsr #16
 800069a:	0c23      	lsrs	r3, r4, #16
 800069c:	fbbc f6f8 	udiv	r6, ip, r8
 80006a0:	fa1f fe87 	uxth.w	lr, r7
 80006a4:	fb08 c116 	mls	r1, r8, r6, ip
 80006a8:	ea43 4301 	orr.w	r3, r3, r1, lsl #16
 80006ac:	fb06 f10e 	mul.w	r1, r6, lr
 80006b0:	4299      	cmp	r1, r3
 80006b2:	d909      	bls.n	80006c8 <__udivmoddi4+0x60>
 80006b4:	18fb      	adds	r3, r7, r3
 80006b6:	f106 30ff 	add.w	r0, r6, #4294967295	; 0xffffffff
 80006ba:	f080 8119 	bcs.w	80008f0 <__udivmoddi4+0x288>
 80006be:	4299      	cmp	r1, r3
 80006c0:	f240 8116 	bls.w	80008f0 <__udivmoddi4+0x288>
 80006c4:	3e02      	subs	r6, #2
 80006c6:	443b      	add	r3, r7
 80006c8:	1a5b      	subs	r3, r3, r1
 80006ca:	b2a4      	uxth	r4, r4
 80006cc:	fbb3 f0f8 	udiv	r0, r3, r8
 80006d0:	fb08 3310 	mls	r3, r8, r0, r3
 80006d4:	ea44 4403 	orr.w	r4, r4, r3, lsl #16
 80006d8:	fb00 fe0e 	mul.w	lr, r0, lr
 80006dc:	45a6      	cmp	lr, r4
 80006de:	d909      	bls.n	80006f4 <__udivmoddi4+0x8c>
 80006e0:	193c      	adds	r4, r7, r4
 80006e2:	f100 33ff 	add.w	r3, r0, #4294967295	; 0xffffffff
 80006e6:	f080 8105 	bcs.w	80008f4 <__udivmoddi4+0x28c>
 80006ea:	45a6      	cmp	lr, r4
 80006ec:	f240 8102 	bls.w	80008f4 <__udivmoddi4+0x28c>
 80006f0:	3802      	subs	r0, #2
 80006f2:	443c      	add	r4, r7
 80006f4:	ea40 4006 	orr.w	r0, r0, r6, lsl #16
 80006f8:	eba4 040e 	sub.w	r4, r4, lr
 80006fc:	2600      	movs	r6, #0
 80006fe:	b11d      	cbz	r5, 8000708 <__udivmoddi4+0xa0>
 8000700:	40d4      	lsrs	r4, r2
 8000702:	2300      	movs	r3, #0
 8000704:	e9c5 4300 	strd	r4, r3, [r5]
 8000708:	4631      	mov	r1, r6
 800070a:	e8bd 87f0 	ldmia.w	sp!, {r4, r5, r6, r7, r8, r9, sl, pc}
 800070e:	b902      	cbnz	r2, 8000712 <__udivmoddi4+0xaa>
 8000710:	deff      	udf	#255	; 0xff
 8000712:	fab2 f282 	clz	r2, r2
 8000716:	2a00      	cmp	r2, #0
 8000718:	d150      	bne.n	80007bc <__udivmoddi4+0x154>
 800071a:	1bcb      	subs	r3, r1, r7
 800071c:	ea4f 4e17 	mov.w	lr, r7, lsr #16
 8000720:	fa1f f887 	uxth.w	r8, r7
 8000724:	2601      	movs	r6, #1
 8000726:	fbb3 fcfe 	udiv	ip, r3, lr
 800072a:	0c21      	lsrs	r1, r4, #16
 800072c:	fb0e 331c 	mls	r3, lr, ip, r3
 8000730:	ea41 4103 	orr.w	r1, r1, r3, lsl #16
 8000734:	fb08 f30c 	mul.w	r3, r8, ip
 8000738:	428b      	cmp	r3, r1
 800073a:	d907      	bls.n	800074c <__udivmoddi4+0xe4>
 800073c:	1879      	adds	r1, r7, r1
 800073e:	f10c 30ff 	add.w	r0, ip, #4294967295	; 0xffffffff
 8000742:	d202      	bcs.n	800074a <__udivmoddi4+0xe2>
 8000744:	428b      	cmp	r3, r1
 8000746:	f200 80e9 	bhi.w	800091c <__udivmoddi4+0x2b4>
 800074a:	4684      	mov	ip, r0
 800074c:	1ac9      	subs	r1, r1, r3
 800074e:	b2a3      	uxth	r3, r4
 8000750:	fbb1 f0fe 	udiv	r0, r1, lr
 8000754:	fb0e 1110 	mls	r1, lr, r0, r1
 8000758:	ea43 4401 	orr.w	r4, r3, r1, lsl #16
 800075c:	fb08 f800 	mul.w	r8, r8, r0
 8000760:	45a0      	cmp	r8, r4
 8000762:	d907      	bls.n	8000774 <__udivmoddi4+0x10c>
 8000764:	193c      	adds	r4, r7, r4
 8000766:	f100 33ff 	add.w	r3, r0, #4294967295	; 0xffffffff
 800076a:	d202      	bcs.n	8000772 <__udivmoddi4+0x10a>
 800076c:	45a0      	cmp	r8, r4
 800076e:	f200 80d9 	bhi.w	8000924 <__udivmoddi4+0x2bc>
 8000772:	4618      	mov	r0, r3
 8000774:	eba4 0408 	sub.w	r4, r4, r8
 8000778:	ea40 400c 	orr.w	r0, r0, ip, lsl #16
 800077c:	e7bf      	b.n	80006fe <__udivmoddi4+0x96>
 800077e:	428b      	cmp	r3, r1
 8000780:	d909      	bls.n	8000796 <__udivmoddi4+0x12e>
 8000782:	2d00      	cmp	r5, #0
 8000784:	f000 80b1 	beq.w	80008ea <__udivmoddi4+0x282>
 8000788:	2600      	movs	r6, #0
 800078a:	e9c5 0100 	strd	r0, r1, [r5]
 800078e:	4630      	mov	r0, r6
 8000790:	4631      	mov	r1, r6
 8000792:	e8bd 87f0 	ldmia.w	sp!, {r4, r5, r6, r7, r8, r9, sl, pc}
 8000796:	fab3 f683 	clz	r6, r3
 800079a:	2e00      	cmp	r6, #0
 800079c:	d14a      	bne.n	8000834 <__udivmoddi4+0x1cc>
 800079e:	428b      	cmp	r3, r1
 80007a0:	d302      	bcc.n	80007a8 <__udivmoddi4+0x140>
 80007a2:	4282      	cmp	r2, r0
 80007a4:	f200 80b8 	bhi.w	8000918 <__udivmoddi4+0x2b0>
 80007a8:	1a84      	subs	r4, r0, r2
 80007aa:	eb61 0103 	sbc.w	r1, r1, r3
 80007ae:	2001      	movs	r0, #1
 80007b0:	468c      	mov	ip, r1
 80007b2:	2d00      	cmp	r5, #0
 80007b4:	d0a8      	beq.n	8000708 <__udivmoddi4+0xa0>
 80007b6:	e9c5 4c00 	strd	r4, ip, [r5]
 80007ba:	e7a5      	b.n	8000708 <__udivmoddi4+0xa0>
 80007bc:	f1c2 0320 	rsb	r3, r2, #32
 80007c0:	fa20 f603 	lsr.w	r6, r0, r3
 80007c4:	4097      	lsls	r7, r2
 80007c6:	fa01 f002 	lsl.w	r0, r1, r2
 80007ca:	ea4f 4e17 	mov.w	lr, r7, lsr #16
 80007ce:	40d9      	lsrs	r1, r3
 80007d0:	4330      	orrs	r0, r6
 80007d2:	0c03      	lsrs	r3, r0, #16
 80007d4:	fbb1 f6fe 	udiv	r6, r1, lr
 80007d8:	fa1f f887 	uxth.w	r8, r7
 80007dc:	fb0e 1116 	mls	r1, lr, r6, r1
 80007e0:	ea43 4301 	orr.w	r3, r3, r1, lsl #16
 80007e4:	fb06 f108 	mul.w	r1, r6, r8
 80007e8:	4299      	cmp	r1, r3
 80007ea:	fa04 f402 	lsl.w	r4, r4, r2
 80007ee:	d909      	bls.n	8000804 <__udivmoddi4+0x19c>
 80007f0:	18fb      	adds	r3, r7, r3
 80007f2:	f106 3cff 	add.w	ip, r6, #4294967295	; 0xffffffff
 80007f6:	f080 808d 	bcs.w	8000914 <__udivmoddi4+0x2ac>
 80007fa:	4299      	cmp	r1, r3
 80007fc:	f240 808a 	bls.w	8000914 <__udivmoddi4+0x2ac>
 8000800:	3e02      	subs	r6, #2
 8000802:	443b      	add	r3, r7
 8000804:	1a5b      	subs	r3, r3, r1
 8000806:	b281      	uxth	r1, r0
 8000808:	fbb3 f0fe 	udiv	r0, r3, lr
 800080c:	fb0e 3310 	mls	r3, lr, r0, r3
 8000810:	ea41 4103 	orr.w	r1, r1, r3, lsl #16
 8000814:	fb00 f308 	mul.w	r3, r0, r8
 8000818:	428b      	cmp	r3, r1
 800081a:	d907      	bls.n	800082c <__udivmoddi4+0x1c4>
 800081c:	1879      	adds	r1, r7, r1
 800081e:	f100 3cff 	add.w	ip, r0, #4294967295	; 0xffffffff
 8000822:	d273      	bcs.n	800090c <__udivmoddi4+0x2a4>
 8000824:	428b      	cmp	r3, r1
 8000826:	d971      	bls.n	800090c <__udivmoddi4+0x2a4>
 8000828:	3802      	subs	r0, #2
 800082a:	4439      	add	r1, r7
 800082c:	1acb      	subs	r3, r1, r3
 800082e:	ea40 4606 	orr.w	r6, r0, r6, lsl #16
 8000832:	e778      	b.n	8000726 <__udivmoddi4+0xbe>
 8000834:	f1c6 0c20 	rsb	ip, r6, #32
 8000838:	fa03 f406 	lsl.w	r4, r3, r6
 800083c:	fa22 f30c 	lsr.w	r3, r2, ip
 8000840:	431c      	orrs	r4, r3
 8000842:	fa20 f70c 	lsr.w	r7, r0, ip
 8000846:	fa01 f306 	lsl.w	r3, r1, r6
 800084a:	ea4f 4e14 	mov.w	lr, r4, lsr #16
 800084e:	fa21 f10c 	lsr.w	r1, r1, ip
 8000852:	431f      	orrs	r7, r3
 8000854:	0c3b      	lsrs	r3, r7, #16
 8000856:	fbb1 f9fe 	udiv	r9, r1, lr
 800085a:	fa1f f884 	uxth.w	r8, r4
 800085e:	fb0e 1119 	mls	r1, lr, r9, r1
 8000862:	ea43 4101 	orr.w	r1, r3, r1, lsl #16
 8000866:	fb09 fa08 	mul.w	sl, r9, r8
 800086a:	458a      	cmp	sl, r1
 800086c:	fa02 f206 	lsl.w	r2, r2, r6
 8000870:	fa00 f306 	lsl.w	r3, r0, r6
 8000874:	d908      	bls.n	8000888 <__udivmoddi4+0x220>
 8000876:	1861      	adds	r1, r4, r1
 8000878:	f109 30ff 	add.w	r0, r9, #4294967295	; 0xffffffff
 800087c:	d248      	bcs.n	8000910 <__udivmoddi4+0x2a8>
 800087e:	458a      	cmp	sl, r1
 8000880:	d946      	bls.n	8000910 <__udivmoddi4+0x2a8>
 8000882:	f1a9 0902 	sub.w	r9, r9, #2
 8000886:	4421      	add	r1, r4
 8000888:	eba1 010a 	sub.w	r1, r1, sl
 800088c:	b2bf      	uxth	r7, r7
 800088e:	fbb1 f0fe 	udiv	r0, r1, lr
 8000892:	fb0e 1110 	mls	r1, lr, r0, r1
 8000896:	ea47 4701 	orr.w	r7, r7, r1, lsl #16
 800089a:	fb00 f808 	mul.w	r8, r0, r8
 800089e:	45b8      	cmp	r8, r7
 80008a0:	d907      	bls.n	80008b2 <__udivmoddi4+0x24a>
 80008a2:	19e7      	adds	r7, r4, r7
 80008a4:	f100 31ff 	add.w	r1, r0, #4294967295	; 0xffffffff
 80008a8:	d22e      	bcs.n	8000908 <__udivmoddi4+0x2a0>
 80008aa:	45b8      	cmp	r8, r7
 80008ac:	d92c      	bls.n	8000908 <__udivmoddi4+0x2a0>
 80008ae:	3802      	subs	r0, #2
 80008b0:	4427      	add	r7, r4
 80008b2:	ea40 4009 	orr.w	r0, r0, r9, lsl #16
 80008b6:	eba7 0708 	sub.w	r7, r7, r8
 80008ba:	fba0 8902 	umull	r8, r9, r0, r2
 80008be:	454f      	cmp	r7, r9
 80008c0:	46c6      	mov	lr, r8
 80008c2:	4649      	mov	r1, r9
 80008c4:	d31a      	bcc.n	80008fc <__udivmoddi4+0x294>
 80008c6:	d017      	beq.n	80008f8 <__udivmoddi4+0x290>
 80008c8:	b15d      	cbz	r5, 80008e2 <__udivmoddi4+0x27a>
 80008ca:	ebb3 020e 	subs.w	r2, r3, lr
 80008ce:	eb67 0701 	sbc.w	r7, r7, r1
 80008d2:	fa07 fc0c 	lsl.w	ip, r7, ip
 80008d6:	40f2      	lsrs	r2, r6
 80008d8:	ea4c 0202 	orr.w	r2, ip, r2
 80008dc:	40f7      	lsrs	r7, r6
 80008de:	e9c5 2700 	strd	r2, r7, [r5]
 80008e2:	2600      	movs	r6, #0
 80008e4:	4631      	mov	r1, r6
 80008e6:	e8bd 87f0 	ldmia.w	sp!, {r4, r5, r6, r7, r8, r9, sl, pc}
 80008ea:	462e      	mov	r6, r5
 80008ec:	4628      	mov	r0, r5
 80008ee:	e70b      	b.n	8000708 <__udivmoddi4+0xa0>
 80008f0:	4606      	mov	r6, r0
 80008f2:	e6e9      	b.n	80006c8 <__udivmoddi4+0x60>
 80008f4:	4618      	mov	r0, r3
 80008f6:	e6fd      	b.n	80006f4 <__udivmoddi4+0x8c>
 80008f8:	4543      	cmp	r3, r8
 80008fa:	d2e5      	bcs.n	80008c8 <__udivmoddi4+0x260>
 80008fc:	ebb8 0e02 	subs.w	lr, r8, r2
 8000900:	eb69 0104 	sbc.w	r1, r9, r4
 8000904:	3801      	subs	r0, #1
 8000906:	e7df      	b.n	80008c8 <__udivmoddi4+0x260>
 8000908:	4608      	mov	r0, r1
 800090a:	e7d2      	b.n	80008b2 <__udivmoddi4+0x24a>
 800090c:	4660      	mov	r0, ip
 800090e:	e78d      	b.n	800082c <__udivmoddi4+0x1c4>
 8000910:	4681      	mov	r9, r0
 8000912:	e7b9      	b.n	8000888 <__udivmoddi4+0x220>
 8000914:	4666      	mov	r6, ip
 8000916:	e775      	b.n	8000804 <__udivmoddi4+0x19c>
 8000918:	4630      	mov	r0, r6
 800091a:	e74a      	b.n	80007b2 <__udivmoddi4+0x14a>
 800091c:	f1ac 0c02 	sub.w	ip, ip, #2
 8000920:	4439      	add	r1, r7
 8000922:	e713      	b.n	800074c <__udivmoddi4+0xe4>
 8000924:	3802      	subs	r0, #2
 8000926:	443c      	add	r4, r7
 8000928:	e724      	b.n	8000774 <__udivmoddi4+0x10c>
 800092a:	bf00      	nop

0800092c <__aeabi_idiv0>:
 800092c:	4770      	bx	lr
 800092e:	bf00      	nop

08000930 <TurnHexIntoDec>:
/* USER CODE BEGIN 0 */

//Time is storing in format that being in Hex visually looks like the real time in decimals
//So this function translate this format into real decimal number of time digits
uint8_t TurnHexIntoDec(uint8_t hex)
{
 8000930:	b480      	push	{r7}
 8000932:	b083      	sub	sp, #12
 8000934:	af00      	add	r7, sp, #0
 8000936:	4603      	mov	r3, r0
 8000938:	71fb      	strb	r3, [r7, #7]
	return ((hex & 0x000F) + ((hex >> 4) & 0x000F)*10);
 800093a:	79fb      	ldrb	r3, [r7, #7]
 800093c:	f003 030f 	and.w	r3, r3, #15
 8000940:	b2da      	uxtb	r2, r3
 8000942:	79fb      	ldrb	r3, [r7, #7]
 8000944:	091b      	lsrs	r3, r3, #4
 8000946:	b2db      	uxtb	r3, r3
 8000948:	4619      	mov	r1, r3
 800094a:	0089      	lsls	r1, r1, #2
 800094c:	440b      	add	r3, r1
 800094e:	005b      	lsls	r3, r3, #1
 8000950:	b2db      	uxtb	r3, r3
 8000952:	4413      	add	r3, r2
 8000954:	b2db      	uxtb	r3, r3
}
 8000956:	4618      	mov	r0, r3
 8000958:	370c      	adds	r7, #12
 800095a:	46bd      	mov	sp, r7
 800095c:	f85d 7b04 	ldr.w	r7, [sp], #4
 8000960:	4770      	bx	lr
	...

08000964 <TurnDecIntoHex>:

uint8_t TurnDecIntoHex(uint8_t dec)
{
 8000964:	b580      	push	{r7, lr}
 8000966:	b082      	sub	sp, #8
 8000968:	af00      	add	r7, sp, #0
 800096a:	4603      	mov	r3, r0
 800096c:	71fb      	strb	r3, [r7, #7]
	return ((((uint8_t)(floor(dec/10))) << 4) + dec%10);
 800096e:	79fb      	ldrb	r3, [r7, #7]
 8000970:	4a11      	ldr	r2, [pc, #68]	; (80009b8 <TurnDecIntoHex+0x54>)
 8000972:	fba2 2303 	umull	r2, r3, r2, r3
 8000976:	08db      	lsrs	r3, r3, #3
 8000978:	b2db      	uxtb	r3, r3
 800097a:	4618      	mov	r0, r3
 800097c:	f7ff fdd2 	bl	8000524 <__aeabi_i2d>
 8000980:	4602      	mov	r2, r0
 8000982:	460b      	mov	r3, r1
 8000984:	4610      	mov	r0, r2
 8000986:	4619      	mov	r1, r3
 8000988:	f7ff fe36 	bl	80005f8 <__aeabi_d2uiz>
 800098c:	4603      	mov	r3, r0
 800098e:	b2db      	uxtb	r3, r3
 8000990:	011b      	lsls	r3, r3, #4
 8000992:	b2d8      	uxtb	r0, r3
 8000994:	79fa      	ldrb	r2, [r7, #7]
 8000996:	4b08      	ldr	r3, [pc, #32]	; (80009b8 <TurnDecIntoHex+0x54>)
 8000998:	fba3 1302 	umull	r1, r3, r3, r2
 800099c:	08d9      	lsrs	r1, r3, #3
 800099e:	460b      	mov	r3, r1
 80009a0:	009b      	lsls	r3, r3, #2
 80009a2:	440b      	add	r3, r1
 80009a4:	005b      	lsls	r3, r3, #1
 80009a6:	1ad3      	subs	r3, r2, r3
 80009a8:	b2db      	uxtb	r3, r3
 80009aa:	4403      	add	r3, r0
 80009ac:	b2db      	uxtb	r3, r3
}
 80009ae:	4618      	mov	r0, r3
 80009b0:	3708      	adds	r7, #8
 80009b2:	46bd      	mov	sp, r7
 80009b4:	bd80      	pop	{r7, pc}
 80009b6:	bf00      	nop
 80009b8:	cccccccd 	.word	0xcccccccd

080009bc <HappyToggling>:

void HappyToggling(uint8_t longetivity)
{
 80009bc:	b580      	push	{r7, lr}
 80009be:	b084      	sub	sp, #16
 80009c0:	af00      	add	r7, sp, #0
 80009c2:	4603      	mov	r3, r0
 80009c4:	71fb      	strb	r3, [r7, #7]
	uint8_t TogglingDelay = 0;
 80009c6:	2300      	movs	r3, #0
 80009c8:	73fb      	strb	r3, [r7, #15]
	for (TogglingDelay = 0; TogglingDelay < longetivity; TogglingDelay++)
 80009ca:	2300      	movs	r3, #0
 80009cc:	73fb      	strb	r3, [r7, #15]
 80009ce:	e00b      	b.n	80009e8 <HappyToggling+0x2c>
	{
	  HAL_GPIO_TogglePin(LED0_GPIO_Port, LED0_Pin);
 80009d0:	f44f 7100 	mov.w	r1, #512	; 0x200
 80009d4:	4809      	ldr	r0, [pc, #36]	; (80009fc <HappyToggling+0x40>)
 80009d6:	f001 fd80 	bl	80024da <HAL_GPIO_TogglePin>
	  HAL_Delay(TogglingDelay);
 80009da:	7bfb      	ldrb	r3, [r7, #15]
 80009dc:	4618      	mov	r0, r3
 80009de:	f001 f9b5 	bl	8001d4c <HAL_Delay>
	for (TogglingDelay = 0; TogglingDelay < longetivity; TogglingDelay++)
 80009e2:	7bfb      	ldrb	r3, [r7, #15]
 80009e4:	3301      	adds	r3, #1
 80009e6:	73fb      	strb	r3, [r7, #15]
 80009e8:	7bfa      	ldrb	r2, [r7, #15]
 80009ea:	79fb      	ldrb	r3, [r7, #7]
 80009ec:	429a      	cmp	r2, r3
 80009ee:	d3ef      	bcc.n	80009d0 <HappyToggling+0x14>
	}
}
 80009f0:	bf00      	nop
 80009f2:	bf00      	nop
 80009f4:	3710      	adds	r7, #16
 80009f6:	46bd      	mov	sp, r7
 80009f8:	bd80      	pop	{r7, pc}
 80009fa:	bf00      	nop
 80009fc:	40021400 	.word	0x40021400

08000a00 <SetTime>:

void SetTime(void)
{
 8000a00:	b580      	push	{r7, lr}
 8000a02:	b086      	sub	sp, #24
 8000a04:	af00      	add	r7, sp, #0
	RTC_TimeTypeDef sTime;
	RTC_DateTypeDef sDate;
	/** Initialize RTC and set the Time and Date*/
	sTime.Hours = 0x23;
 8000a06:	2323      	movs	r3, #35	; 0x23
 8000a08:	713b      	strb	r3, [r7, #4]
	sTime.Minutes = 0x25;
 8000a0a:	2325      	movs	r3, #37	; 0x25
 8000a0c:	717b      	strb	r3, [r7, #5]
	sTime.Seconds = 0x0;
 8000a0e:	2300      	movs	r3, #0
 8000a10:	71bb      	strb	r3, [r7, #6]
	sTime.DayLightSaving = RTC_DAYLIGHTSAVING_NONE;
 8000a12:	2300      	movs	r3, #0
 8000a14:	613b      	str	r3, [r7, #16]
	sTime.StoreOperation = RTC_STOREOPERATION_RESET;
 8000a16:	2300      	movs	r3, #0
 8000a18:	617b      	str	r3, [r7, #20]
	if (HAL_RTC_SetTime(&hrtc, &sTime, RTC_FORMAT_BCD) != HAL_OK)
 8000a1a:	1d3b      	adds	r3, r7, #4
 8000a1c:	2201      	movs	r2, #1
 8000a1e:	4619      	mov	r1, r3
 8000a20:	4812      	ldr	r0, [pc, #72]	; (8000a6c <SetTime+0x6c>)
 8000a22:	f002 fbb1 	bl	8003188 <HAL_RTC_SetTime>
 8000a26:	4603      	mov	r3, r0
 8000a28:	2b00      	cmp	r3, #0
 8000a2a:	d001      	beq.n	8000a30 <SetTime+0x30>
	{
		Error_Handler();
 8000a2c:	f000 fe2c 	bl	8001688 <Error_Handler>
	}
	sDate.WeekDay = RTC_WEEKDAY_THURSDAY;
 8000a30:	2304      	movs	r3, #4
 8000a32:	703b      	strb	r3, [r7, #0]
	sDate.Month = RTC_MONTH_FEBRUARY;
 8000a34:	2302      	movs	r3, #2
 8000a36:	707b      	strb	r3, [r7, #1]
	sDate.Date = 0x25;
 8000a38:	2325      	movs	r3, #37	; 0x25
 8000a3a:	70bb      	strb	r3, [r7, #2]
	sDate.Year = 0x21;
 8000a3c:	2321      	movs	r3, #33	; 0x21
 8000a3e:	70fb      	strb	r3, [r7, #3]

	if (HAL_RTC_SetDate(&hrtc, &sDate, RTC_FORMAT_BCD) != HAL_OK)
 8000a40:	463b      	mov	r3, r7
 8000a42:	2201      	movs	r2, #1
 8000a44:	4619      	mov	r1, r3
 8000a46:	4809      	ldr	r0, [pc, #36]	; (8000a6c <SetTime+0x6c>)
 8000a48:	f002 fcb9 	bl	80033be <HAL_RTC_SetDate>
 8000a4c:	4603      	mov	r3, r0
 8000a4e:	2b00      	cmp	r3, #0
 8000a50:	d001      	beq.n	8000a56 <SetTime+0x56>
	{
		Error_Handler();
 8000a52:	f000 fe19 	bl	8001688 <Error_Handler>
	}

	HAL_RTCEx_BKUPWrite(&hrtc, RTC_BKP_DR1, 0x32F2);
 8000a56:	f243 22f2 	movw	r2, #13042	; 0x32f2
 8000a5a:	2101      	movs	r1, #1
 8000a5c:	4803      	ldr	r0, [pc, #12]	; (8000a6c <SetTime+0x6c>)
 8000a5e:	f003 f86d 	bl	8003b3c <HAL_RTCEx_BKUPWrite>
}
 8000a62:	bf00      	nop
 8000a64:	3718      	adds	r7, #24
 8000a66:	46bd      	mov	sp, r7
 8000a68:	bd80      	pop	{r7, pc}
 8000a6a:	bf00      	nop
 8000a6c:	200001e4 	.word	0x200001e4

08000a70 <SetAlarmFunc>:

void SetAlarmFunc(uint8_t SetInHours, uint8_t SetInMinutes, uint8_t SetInDate, uint8_t SetInSeconds)
{
 8000a70:	b590      	push	{r4, r7, lr}
 8000a72:	b08d      	sub	sp, #52	; 0x34
 8000a74:	af00      	add	r7, sp, #0
 8000a76:	4604      	mov	r4, r0
 8000a78:	4608      	mov	r0, r1
 8000a7a:	4611      	mov	r1, r2
 8000a7c:	461a      	mov	r2, r3
 8000a7e:	4623      	mov	r3, r4
 8000a80:	71fb      	strb	r3, [r7, #7]
 8000a82:	4603      	mov	r3, r0
 8000a84:	71bb      	strb	r3, [r7, #6]
 8000a86:	460b      	mov	r3, r1
 8000a88:	717b      	strb	r3, [r7, #5]
 8000a8a:	4613      	mov	r3, r2
 8000a8c:	713b      	strb	r3, [r7, #4]
	RTC_AlarmTypeDef sAlarm;

	sAlarm.AlarmTime.Hours = TurnDecIntoHex(SetInHours);
 8000a8e:	79fb      	ldrb	r3, [r7, #7]
 8000a90:	4618      	mov	r0, r3
 8000a92:	f7ff ff67 	bl	8000964 <TurnDecIntoHex>
 8000a96:	4603      	mov	r3, r0
 8000a98:	723b      	strb	r3, [r7, #8]
	sAlarm.AlarmTime.Minutes = TurnDecIntoHex(SetInMinutes);
 8000a9a:	79bb      	ldrb	r3, [r7, #6]
 8000a9c:	4618      	mov	r0, r3
 8000a9e:	f7ff ff61 	bl	8000964 <TurnDecIntoHex>
 8000aa2:	4603      	mov	r3, r0
 8000aa4:	727b      	strb	r3, [r7, #9]
	sAlarm.AlarmTime.Seconds = TurnDecIntoHex(SetInSeconds);
 8000aa6:	793b      	ldrb	r3, [r7, #4]
 8000aa8:	4618      	mov	r0, r3
 8000aaa:	f7ff ff5b 	bl	8000964 <TurnDecIntoHex>
 8000aae:	4603      	mov	r3, r0
 8000ab0:	72bb      	strb	r3, [r7, #10]
	sAlarm.AlarmTime.SubSeconds = 0x0;
 8000ab2:	2300      	movs	r3, #0
 8000ab4:	60fb      	str	r3, [r7, #12]
	sAlarm.AlarmTime.DayLightSaving = RTC_DAYLIGHTSAVING_NONE;
 8000ab6:	2300      	movs	r3, #0
 8000ab8:	617b      	str	r3, [r7, #20]
	sAlarm.AlarmTime.StoreOperation = RTC_STOREOPERATION_RESET;
 8000aba:	2300      	movs	r3, #0
 8000abc:	61bb      	str	r3, [r7, #24]
	sAlarm.AlarmMask = RTC_ALARMMASK_NONE;
 8000abe:	2300      	movs	r3, #0
 8000ac0:	61fb      	str	r3, [r7, #28]
	sAlarm.AlarmSubSecondMask = RTC_ALARMSUBSECONDMASK_ALL;
 8000ac2:	2300      	movs	r3, #0
 8000ac4:	623b      	str	r3, [r7, #32]
	sAlarm.AlarmDateWeekDaySel = RTC_ALARMDATEWEEKDAYSEL_DATE;
 8000ac6:	2300      	movs	r3, #0
 8000ac8:	627b      	str	r3, [r7, #36]	; 0x24
	sAlarm.AlarmDateWeekDay = TurnDecIntoHex(SetInDate);
 8000aca:	797b      	ldrb	r3, [r7, #5]
 8000acc:	4618      	mov	r0, r3
 8000ace:	f7ff ff49 	bl	8000964 <TurnDecIntoHex>
 8000ad2:	4603      	mov	r3, r0
 8000ad4:	f887 3028 	strb.w	r3, [r7, #40]	; 0x28
	sAlarm.Alarm = RTC_ALARM_A;
 8000ad8:	f44f 7380 	mov.w	r3, #256	; 0x100
 8000adc:	62fb      	str	r3, [r7, #44]	; 0x2c

	if (HAL_RTC_SetAlarm_IT(&hrtc, &sAlarm, RTC_FORMAT_BCD) != HAL_OK)
 8000ade:	f107 0308 	add.w	r3, r7, #8
 8000ae2:	2201      	movs	r2, #1
 8000ae4:	4619      	mov	r1, r3
 8000ae6:	4806      	ldr	r0, [pc, #24]	; (8000b00 <SetAlarmFunc+0x90>)
 8000ae8:	f002 fd60 	bl	80035ac <HAL_RTC_SetAlarm_IT>
 8000aec:	4603      	mov	r3, r0
 8000aee:	2b00      	cmp	r3, #0
 8000af0:	d001      	beq.n	8000af6 <SetAlarmFunc+0x86>
	{
	Error_Handler();
 8000af2:	f000 fdc9 	bl	8001688 <Error_Handler>
	}
}
 8000af6:	bf00      	nop
 8000af8:	3734      	adds	r7, #52	; 0x34
 8000afa:	46bd      	mov	sp, r7
 8000afc:	bd90      	pop	{r4, r7, pc}
 8000afe:	bf00      	nop
 8000b00:	200001e4 	.word	0x200001e4

08000b04 <GetTimeDate>:

void GetTimeDate(void)
{
 8000b04:	b580      	push	{r7, lr}
 8000b06:	b082      	sub	sp, #8
 8000b08:	af02      	add	r7, sp, #8
	/* Get the RTC current Time */
	HAL_RTC_GetTime(&hrtc, &gTime, RTC_FORMAT_BCD);
 8000b0a:	2201      	movs	r2, #1
 8000b0c:	4913      	ldr	r1, [pc, #76]	; (8000b5c <GetTimeDate+0x58>)
 8000b0e:	4814      	ldr	r0, [pc, #80]	; (8000b60 <GetTimeDate+0x5c>)
 8000b10:	f002 fbf7 	bl	8003302 <HAL_RTC_GetTime>
	/* Get the RTC current Date */
	HAL_RTC_GetDate(&hrtc, &gDate, RTC_FORMAT_BCD);
 8000b14:	2201      	movs	r2, #1
 8000b16:	4913      	ldr	r1, [pc, #76]	; (8000b64 <GetTimeDate+0x60>)
 8000b18:	4811      	ldr	r0, [pc, #68]	; (8000b60 <GetTimeDate+0x5c>)
 8000b1a:	f002 fcf7 	bl	800350c <HAL_RTC_GetDate>

	/* Display time Format: hh:mm:ss */
	sprintf((char*)time,"%02x:%02x:%02x",gTime.Hours, gTime.Minutes, gTime.Seconds);
 8000b1e:	4b0f      	ldr	r3, [pc, #60]	; (8000b5c <GetTimeDate+0x58>)
 8000b20:	781b      	ldrb	r3, [r3, #0]
 8000b22:	461a      	mov	r2, r3
 8000b24:	4b0d      	ldr	r3, [pc, #52]	; (8000b5c <GetTimeDate+0x58>)
 8000b26:	785b      	ldrb	r3, [r3, #1]
 8000b28:	4619      	mov	r1, r3
 8000b2a:	4b0c      	ldr	r3, [pc, #48]	; (8000b5c <GetTimeDate+0x58>)
 8000b2c:	789b      	ldrb	r3, [r3, #2]
 8000b2e:	9300      	str	r3, [sp, #0]
 8000b30:	460b      	mov	r3, r1
 8000b32:	490d      	ldr	r1, [pc, #52]	; (8000b68 <GetTimeDate+0x64>)
 8000b34:	480d      	ldr	r0, [pc, #52]	; (8000b6c <GetTimeDate+0x68>)
 8000b36:	f003 ff1d 	bl	8004974 <siprintf>

	/* Display date Format: yy-mm-dd */
	sprintf((char*)date,"%02x-%02x-%02x",gDate.Year, gDate.Month, gDate.Date);
 8000b3a:	4b0a      	ldr	r3, [pc, #40]	; (8000b64 <GetTimeDate+0x60>)
 8000b3c:	78db      	ldrb	r3, [r3, #3]
 8000b3e:	461a      	mov	r2, r3
 8000b40:	4b08      	ldr	r3, [pc, #32]	; (8000b64 <GetTimeDate+0x60>)
 8000b42:	785b      	ldrb	r3, [r3, #1]
 8000b44:	4619      	mov	r1, r3
 8000b46:	4b07      	ldr	r3, [pc, #28]	; (8000b64 <GetTimeDate+0x60>)
 8000b48:	789b      	ldrb	r3, [r3, #2]
 8000b4a:	9300      	str	r3, [sp, #0]
 8000b4c:	460b      	mov	r3, r1
 8000b4e:	4908      	ldr	r1, [pc, #32]	; (8000b70 <GetTimeDate+0x6c>)
 8000b50:	4808      	ldr	r0, [pc, #32]	; (8000b74 <GetTimeDate+0x70>)
 8000b52:	f003 ff0f 	bl	8004974 <siprintf>
}
 8000b56:	bf00      	nop
 8000b58:	46bd      	mov	sp, r7
 8000b5a:	bd80      	pop	{r7, pc}
 8000b5c:	20000188 	.word	0x20000188
 8000b60:	200001e4 	.word	0x200001e4
 8000b64:	20000110 	.word	0x20000110
 8000b68:	08005328 	.word	0x08005328
 8000b6c:	20000224 	.word	0x20000224
 8000b70:	08005338 	.word	0x08005338
 8000b74:	20000234 	.word	0x20000234

08000b78 <HAL_RTC_AlarmAEventCallback>:

void HAL_RTC_AlarmAEventCallback(RTC_HandleTypeDef *hrtc)
{
 8000b78:	b480      	push	{r7}
 8000b7a:	b083      	sub	sp, #12
 8000b7c:	af00      	add	r7, sp, #0
 8000b7e:	6078      	str	r0, [r7, #4]
	AlarmRing = 1;
 8000b80:	4b04      	ldr	r3, [pc, #16]	; (8000b94 <HAL_RTC_AlarmAEventCallback+0x1c>)
 8000b82:	2201      	movs	r2, #1
 8000b84:	701a      	strb	r2, [r3, #0]
}
 8000b86:	bf00      	nop
 8000b88:	370c      	adds	r7, #12
 8000b8a:	46bd      	mov	sp, r7
 8000b8c:	f85d 7b04 	ldr.w	r7, [sp], #4
 8000b90:	4770      	bx	lr
 8000b92:	bf00      	nop
 8000b94:	200000f0 	.word	0x200000f0

08000b98 <IsAlarmSetBeforeNow>:

uint8_t IsAlarmSetBeforeNow(void)
{
 8000b98:	b580      	push	{r7, lr}
 8000b9a:	af00      	add	r7, sp, #0
	GetTimeDate();
 8000b9c:	f7ff ffb2 	bl	8000b04 <GetTimeDate>
	HAL_RTC_GetAlarm(&hrtc, &gAlarm, RTC_ALARM_A, RTC_FORMAT_BCD);
 8000ba0:	2301      	movs	r3, #1
 8000ba2:	f44f 7280 	mov.w	r2, #256	; 0x100
 8000ba6:	4924      	ldr	r1, [pc, #144]	; (8000c38 <IsAlarmSetBeforeNow+0xa0>)
 8000ba8:	4824      	ldr	r0, [pc, #144]	; (8000c3c <IsAlarmSetBeforeNow+0xa4>)
 8000baa:	f002 fe37 	bl	800381c <HAL_RTC_GetAlarm>
	if (gAlarm.AlarmTime.Seconds < gDate.Month)
 8000bae:	4b22      	ldr	r3, [pc, #136]	; (8000c38 <IsAlarmSetBeforeNow+0xa0>)
 8000bb0:	789a      	ldrb	r2, [r3, #2]
 8000bb2:	4b23      	ldr	r3, [pc, #140]	; (8000c40 <IsAlarmSetBeforeNow+0xa8>)
 8000bb4:	785b      	ldrb	r3, [r3, #1]
 8000bb6:	429a      	cmp	r2, r3
 8000bb8:	d201      	bcs.n	8000bbe <IsAlarmSetBeforeNow+0x26>
	{
		return 1;
 8000bba:	2301      	movs	r3, #1
 8000bbc:	e03a      	b.n	8000c34 <IsAlarmSetBeforeNow+0x9c>
	} else if (gAlarm.AlarmTime.Seconds > gDate.Month)
 8000bbe:	4b1e      	ldr	r3, [pc, #120]	; (8000c38 <IsAlarmSetBeforeNow+0xa0>)
 8000bc0:	789a      	ldrb	r2, [r3, #2]
 8000bc2:	4b1f      	ldr	r3, [pc, #124]	; (8000c40 <IsAlarmSetBeforeNow+0xa8>)
 8000bc4:	785b      	ldrb	r3, [r3, #1]
 8000bc6:	429a      	cmp	r2, r3
 8000bc8:	d901      	bls.n	8000bce <IsAlarmSetBeforeNow+0x36>
	{
		return 0;
 8000bca:	2300      	movs	r3, #0
 8000bcc:	e032      	b.n	8000c34 <IsAlarmSetBeforeNow+0x9c>
	} else
	{
		if (gAlarm.AlarmDateWeekDay < gDate.Date)
 8000bce:	4b1a      	ldr	r3, [pc, #104]	; (8000c38 <IsAlarmSetBeforeNow+0xa0>)
 8000bd0:	f893 2020 	ldrb.w	r2, [r3, #32]
 8000bd4:	4b1a      	ldr	r3, [pc, #104]	; (8000c40 <IsAlarmSetBeforeNow+0xa8>)
 8000bd6:	789b      	ldrb	r3, [r3, #2]
 8000bd8:	429a      	cmp	r2, r3
 8000bda:	d201      	bcs.n	8000be0 <IsAlarmSetBeforeNow+0x48>
		{
			return 1;
 8000bdc:	2301      	movs	r3, #1
 8000bde:	e029      	b.n	8000c34 <IsAlarmSetBeforeNow+0x9c>
		} else if (gAlarm.AlarmDateWeekDay > gDate.Date)
 8000be0:	4b15      	ldr	r3, [pc, #84]	; (8000c38 <IsAlarmSetBeforeNow+0xa0>)
 8000be2:	f893 2020 	ldrb.w	r2, [r3, #32]
 8000be6:	4b16      	ldr	r3, [pc, #88]	; (8000c40 <IsAlarmSetBeforeNow+0xa8>)
 8000be8:	789b      	ldrb	r3, [r3, #2]
 8000bea:	429a      	cmp	r2, r3
 8000bec:	d901      	bls.n	8000bf2 <IsAlarmSetBeforeNow+0x5a>
		{
			return 0;
 8000bee:	2300      	movs	r3, #0
 8000bf0:	e020      	b.n	8000c34 <IsAlarmSetBeforeNow+0x9c>
		} else
		{
			if (gAlarm.AlarmTime.Hours < gTime.Hours)
 8000bf2:	4b11      	ldr	r3, [pc, #68]	; (8000c38 <IsAlarmSetBeforeNow+0xa0>)
 8000bf4:	781a      	ldrb	r2, [r3, #0]
 8000bf6:	4b13      	ldr	r3, [pc, #76]	; (8000c44 <IsAlarmSetBeforeNow+0xac>)
 8000bf8:	781b      	ldrb	r3, [r3, #0]
 8000bfa:	429a      	cmp	r2, r3
 8000bfc:	d201      	bcs.n	8000c02 <IsAlarmSetBeforeNow+0x6a>
			{
				return 1;
 8000bfe:	2301      	movs	r3, #1
 8000c00:	e018      	b.n	8000c34 <IsAlarmSetBeforeNow+0x9c>
			} else if (gAlarm.AlarmTime.Hours > gTime.Hours)
 8000c02:	4b0d      	ldr	r3, [pc, #52]	; (8000c38 <IsAlarmSetBeforeNow+0xa0>)
 8000c04:	781a      	ldrb	r2, [r3, #0]
 8000c06:	4b0f      	ldr	r3, [pc, #60]	; (8000c44 <IsAlarmSetBeforeNow+0xac>)
 8000c08:	781b      	ldrb	r3, [r3, #0]
 8000c0a:	429a      	cmp	r2, r3
 8000c0c:	d901      	bls.n	8000c12 <IsAlarmSetBeforeNow+0x7a>
			{
				return 0;
 8000c0e:	2300      	movs	r3, #0
 8000c10:	e010      	b.n	8000c34 <IsAlarmSetBeforeNow+0x9c>
			} else
			{
				if (gAlarm.AlarmTime.Minutes < gTime.Minutes)
 8000c12:	4b09      	ldr	r3, [pc, #36]	; (8000c38 <IsAlarmSetBeforeNow+0xa0>)
 8000c14:	785a      	ldrb	r2, [r3, #1]
 8000c16:	4b0b      	ldr	r3, [pc, #44]	; (8000c44 <IsAlarmSetBeforeNow+0xac>)
 8000c18:	785b      	ldrb	r3, [r3, #1]
 8000c1a:	429a      	cmp	r2, r3
 8000c1c:	d201      	bcs.n	8000c22 <IsAlarmSetBeforeNow+0x8a>
				{
					return 1;
 8000c1e:	2301      	movs	r3, #1
 8000c20:	e008      	b.n	8000c34 <IsAlarmSetBeforeNow+0x9c>
				} else if (gAlarm.AlarmTime.Minutes > gTime.Minutes)
 8000c22:	4b05      	ldr	r3, [pc, #20]	; (8000c38 <IsAlarmSetBeforeNow+0xa0>)
 8000c24:	785a      	ldrb	r2, [r3, #1]
 8000c26:	4b07      	ldr	r3, [pc, #28]	; (8000c44 <IsAlarmSetBeforeNow+0xac>)
 8000c28:	785b      	ldrb	r3, [r3, #1]
 8000c2a:	429a      	cmp	r2, r3
 8000c2c:	d901      	bls.n	8000c32 <IsAlarmSetBeforeNow+0x9a>
				{
					return 0;
 8000c2e:	2300      	movs	r3, #0
 8000c30:	e000      	b.n	8000c34 <IsAlarmSetBeforeNow+0x9c>
				} else
				{
					return 1;
 8000c32:	2301      	movs	r3, #1
				}
			}
		}
	}
}
 8000c34:	4618      	mov	r0, r3
 8000c36:	bd80      	pop	{r7, pc}
 8000c38:	20000118 	.word	0x20000118
 8000c3c:	200001e4 	.word	0x200001e4
 8000c40:	20000110 	.word	0x20000110
 8000c44:	20000188 	.word	0x20000188

08000c48 <IsNewAlarmMoreFresh>:

uint8_t IsNewAlarmMoreFresh(void)
{
 8000c48:	b598      	push	{r3, r4, r7, lr}
 8000c4a:	af00      	add	r7, sp, #0
	HAL_RTC_GetAlarm(&hrtc, &gAlarm, RTC_ALARM_A, RTC_FORMAT_BCD);
 8000c4c:	2301      	movs	r3, #1
 8000c4e:	f44f 7280 	mov.w	r2, #256	; 0x100
 8000c52:	4934      	ldr	r1, [pc, #208]	; (8000d24 <IsNewAlarmMoreFresh+0xdc>)
 8000c54:	4834      	ldr	r0, [pc, #208]	; (8000d28 <IsNewAlarmMoreFresh+0xe0>)
 8000c56:	f002 fde1 	bl	800381c <HAL_RTC_GetAlarm>
	if (gAlarm.AlarmTime.Seconds < TurnDecIntoHex(SetSeconds))
 8000c5a:	4b32      	ldr	r3, [pc, #200]	; (8000d24 <IsNewAlarmMoreFresh+0xdc>)
 8000c5c:	789c      	ldrb	r4, [r3, #2]
 8000c5e:	4b33      	ldr	r3, [pc, #204]	; (8000d2c <IsNewAlarmMoreFresh+0xe4>)
 8000c60:	781b      	ldrb	r3, [r3, #0]
 8000c62:	4618      	mov	r0, r3
 8000c64:	f7ff fe7e 	bl	8000964 <TurnDecIntoHex>
 8000c68:	4603      	mov	r3, r0
 8000c6a:	429c      	cmp	r4, r3
 8000c6c:	d201      	bcs.n	8000c72 <IsNewAlarmMoreFresh+0x2a>
	{
		return 1;
 8000c6e:	2301      	movs	r3, #1
 8000c70:	e055      	b.n	8000d1e <IsNewAlarmMoreFresh+0xd6>
	} else if (gAlarm.AlarmTime.Seconds > TurnDecIntoHex(SetSeconds))
 8000c72:	4b2c      	ldr	r3, [pc, #176]	; (8000d24 <IsNewAlarmMoreFresh+0xdc>)
 8000c74:	789c      	ldrb	r4, [r3, #2]
 8000c76:	4b2d      	ldr	r3, [pc, #180]	; (8000d2c <IsNewAlarmMoreFresh+0xe4>)
 8000c78:	781b      	ldrb	r3, [r3, #0]
 8000c7a:	4618      	mov	r0, r3
 8000c7c:	f7ff fe72 	bl	8000964 <TurnDecIntoHex>
 8000c80:	4603      	mov	r3, r0
 8000c82:	429c      	cmp	r4, r3
 8000c84:	d901      	bls.n	8000c8a <IsNewAlarmMoreFresh+0x42>
	{
		return 0;
 8000c86:	2300      	movs	r3, #0
 8000c88:	e049      	b.n	8000d1e <IsNewAlarmMoreFresh+0xd6>
	} else
	{
		if (gAlarm.AlarmDateWeekDay < TurnDecIntoHex(SetDate))
 8000c8a:	4b26      	ldr	r3, [pc, #152]	; (8000d24 <IsNewAlarmMoreFresh+0xdc>)
 8000c8c:	f893 4020 	ldrb.w	r4, [r3, #32]
 8000c90:	4b27      	ldr	r3, [pc, #156]	; (8000d30 <IsNewAlarmMoreFresh+0xe8>)
 8000c92:	781b      	ldrb	r3, [r3, #0]
 8000c94:	4618      	mov	r0, r3
 8000c96:	f7ff fe65 	bl	8000964 <TurnDecIntoHex>
 8000c9a:	4603      	mov	r3, r0
 8000c9c:	429c      	cmp	r4, r3
 8000c9e:	d201      	bcs.n	8000ca4 <IsNewAlarmMoreFresh+0x5c>
		{
			return 1;
 8000ca0:	2301      	movs	r3, #1
 8000ca2:	e03c      	b.n	8000d1e <IsNewAlarmMoreFresh+0xd6>
		} else if (gAlarm.AlarmDateWeekDay > TurnDecIntoHex(SetDate))
 8000ca4:	4b1f      	ldr	r3, [pc, #124]	; (8000d24 <IsNewAlarmMoreFresh+0xdc>)
 8000ca6:	f893 4020 	ldrb.w	r4, [r3, #32]
 8000caa:	4b21      	ldr	r3, [pc, #132]	; (8000d30 <IsNewAlarmMoreFresh+0xe8>)
 8000cac:	781b      	ldrb	r3, [r3, #0]
 8000cae:	4618      	mov	r0, r3
 8000cb0:	f7ff fe58 	bl	8000964 <TurnDecIntoHex>
 8000cb4:	4603      	mov	r3, r0
 8000cb6:	429c      	cmp	r4, r3
 8000cb8:	d901      	bls.n	8000cbe <IsNewAlarmMoreFresh+0x76>
		{
			return 0;
 8000cba:	2300      	movs	r3, #0
 8000cbc:	e02f      	b.n	8000d1e <IsNewAlarmMoreFresh+0xd6>
		} else
		{
			if (gAlarm.AlarmTime.Hours < TurnDecIntoHex(SetHours))
 8000cbe:	4b19      	ldr	r3, [pc, #100]	; (8000d24 <IsNewAlarmMoreFresh+0xdc>)
 8000cc0:	781c      	ldrb	r4, [r3, #0]
 8000cc2:	4b1c      	ldr	r3, [pc, #112]	; (8000d34 <IsNewAlarmMoreFresh+0xec>)
 8000cc4:	781b      	ldrb	r3, [r3, #0]
 8000cc6:	4618      	mov	r0, r3
 8000cc8:	f7ff fe4c 	bl	8000964 <TurnDecIntoHex>
 8000ccc:	4603      	mov	r3, r0
 8000cce:	429c      	cmp	r4, r3
 8000cd0:	d201      	bcs.n	8000cd6 <IsNewAlarmMoreFresh+0x8e>
			{
				return 1;
 8000cd2:	2301      	movs	r3, #1
 8000cd4:	e023      	b.n	8000d1e <IsNewAlarmMoreFresh+0xd6>
			} else if (gAlarm.AlarmTime.Hours > TurnDecIntoHex(SetHours))
 8000cd6:	4b13      	ldr	r3, [pc, #76]	; (8000d24 <IsNewAlarmMoreFresh+0xdc>)
 8000cd8:	781c      	ldrb	r4, [r3, #0]
 8000cda:	4b16      	ldr	r3, [pc, #88]	; (8000d34 <IsNewAlarmMoreFresh+0xec>)
 8000cdc:	781b      	ldrb	r3, [r3, #0]
 8000cde:	4618      	mov	r0, r3
 8000ce0:	f7ff fe40 	bl	8000964 <TurnDecIntoHex>
 8000ce4:	4603      	mov	r3, r0
 8000ce6:	429c      	cmp	r4, r3
 8000ce8:	d901      	bls.n	8000cee <IsNewAlarmMoreFresh+0xa6>
			{
				return 0;
 8000cea:	2300      	movs	r3, #0
 8000cec:	e017      	b.n	8000d1e <IsNewAlarmMoreFresh+0xd6>
			} else
			{
				if (gAlarm.AlarmTime.Minutes < TurnDecIntoHex(SetMinutes))
 8000cee:	4b0d      	ldr	r3, [pc, #52]	; (8000d24 <IsNewAlarmMoreFresh+0xdc>)
 8000cf0:	785c      	ldrb	r4, [r3, #1]
 8000cf2:	4b11      	ldr	r3, [pc, #68]	; (8000d38 <IsNewAlarmMoreFresh+0xf0>)
 8000cf4:	781b      	ldrb	r3, [r3, #0]
 8000cf6:	4618      	mov	r0, r3
 8000cf8:	f7ff fe34 	bl	8000964 <TurnDecIntoHex>
 8000cfc:	4603      	mov	r3, r0
 8000cfe:	429c      	cmp	r4, r3
 8000d00:	d201      	bcs.n	8000d06 <IsNewAlarmMoreFresh+0xbe>
				{
					return 1;
 8000d02:	2301      	movs	r3, #1
 8000d04:	e00b      	b.n	8000d1e <IsNewAlarmMoreFresh+0xd6>
				} else if (gAlarm.AlarmTime.Minutes >= TurnDecIntoHex(SetMinutes))
 8000d06:	4b07      	ldr	r3, [pc, #28]	; (8000d24 <IsNewAlarmMoreFresh+0xdc>)
 8000d08:	785c      	ldrb	r4, [r3, #1]
 8000d0a:	4b0b      	ldr	r3, [pc, #44]	; (8000d38 <IsNewAlarmMoreFresh+0xf0>)
 8000d0c:	781b      	ldrb	r3, [r3, #0]
 8000d0e:	4618      	mov	r0, r3
 8000d10:	f7ff fe28 	bl	8000964 <TurnDecIntoHex>
 8000d14:	4603      	mov	r3, r0
 8000d16:	429c      	cmp	r4, r3
 8000d18:	d301      	bcc.n	8000d1e <IsNewAlarmMoreFresh+0xd6>
					return 0;
 8000d1a:	2300      	movs	r3, #0
 8000d1c:	e7ff      	b.n	8000d1e <IsNewAlarmMoreFresh+0xd6>
			}
		}
	}
}
 8000d1e:	4618      	mov	r0, r3
 8000d20:	bd98      	pop	{r3, r4, r7, pc}
 8000d22:	bf00      	nop
 8000d24:	20000118 	.word	0x20000118
 8000d28:	200001e4 	.word	0x200001e4
 8000d2c:	20000187 	.word	0x20000187
 8000d30:	20000186 	.word	0x20000186
 8000d34:	2000023d 	.word	0x2000023d
 8000d38:	20000114 	.word	0x20000114

08000d3c <IsNewAlarmAfterNow>:

uint8_t IsNewAlarmAfterNow(void)
{
 8000d3c:	b580      	push	{r7, lr}
 8000d3e:	af00      	add	r7, sp, #0
	GetTimeDate();
 8000d40:	f7ff fee0 	bl	8000b04 <GetTimeDate>
	HAL_RTC_GetTime(&hrtc, &gTime, RTC_FORMAT_BCD);
 8000d44:	2201      	movs	r2, #1
 8000d46:	4939      	ldr	r1, [pc, #228]	; (8000e2c <IsNewAlarmAfterNow+0xf0>)
 8000d48:	4839      	ldr	r0, [pc, #228]	; (8000e30 <IsNewAlarmAfterNow+0xf4>)
 8000d4a:	f002 fada 	bl	8003302 <HAL_RTC_GetTime>
	HAL_RTC_GetDate(&hrtc, &gDate, RTC_FORMAT_BCD);
 8000d4e:	2201      	movs	r2, #1
 8000d50:	4938      	ldr	r1, [pc, #224]	; (8000e34 <IsNewAlarmAfterNow+0xf8>)
 8000d52:	4837      	ldr	r0, [pc, #220]	; (8000e30 <IsNewAlarmAfterNow+0xf4>)
 8000d54:	f002 fbda 	bl	800350c <HAL_RTC_GetDate>
	if (TurnDecIntoHex(SetSeconds) > gDate.Month)
 8000d58:	4b37      	ldr	r3, [pc, #220]	; (8000e38 <IsNewAlarmAfterNow+0xfc>)
 8000d5a:	781b      	ldrb	r3, [r3, #0]
 8000d5c:	4618      	mov	r0, r3
 8000d5e:	f7ff fe01 	bl	8000964 <TurnDecIntoHex>
 8000d62:	4603      	mov	r3, r0
 8000d64:	461a      	mov	r2, r3
 8000d66:	4b33      	ldr	r3, [pc, #204]	; (8000e34 <IsNewAlarmAfterNow+0xf8>)
 8000d68:	785b      	ldrb	r3, [r3, #1]
 8000d6a:	429a      	cmp	r2, r3
 8000d6c:	d901      	bls.n	8000d72 <IsNewAlarmAfterNow+0x36>
	{
		return 1;
 8000d6e:	2301      	movs	r3, #1
 8000d70:	e05a      	b.n	8000e28 <IsNewAlarmAfterNow+0xec>
	} else if (TurnDecIntoHex(SetSeconds) < gDate.Month)
 8000d72:	4b31      	ldr	r3, [pc, #196]	; (8000e38 <IsNewAlarmAfterNow+0xfc>)
 8000d74:	781b      	ldrb	r3, [r3, #0]
 8000d76:	4618      	mov	r0, r3
 8000d78:	f7ff fdf4 	bl	8000964 <TurnDecIntoHex>
 8000d7c:	4603      	mov	r3, r0
 8000d7e:	461a      	mov	r2, r3
 8000d80:	4b2c      	ldr	r3, [pc, #176]	; (8000e34 <IsNewAlarmAfterNow+0xf8>)
 8000d82:	785b      	ldrb	r3, [r3, #1]
 8000d84:	429a      	cmp	r2, r3
 8000d86:	d201      	bcs.n	8000d8c <IsNewAlarmAfterNow+0x50>
	{
		return 0;
 8000d88:	2300      	movs	r3, #0
 8000d8a:	e04d      	b.n	8000e28 <IsNewAlarmAfterNow+0xec>
	} else
	{
		if (TurnDecIntoHex(SetDate) > gDate.Date)
 8000d8c:	4b2b      	ldr	r3, [pc, #172]	; (8000e3c <IsNewAlarmAfterNow+0x100>)
 8000d8e:	781b      	ldrb	r3, [r3, #0]
 8000d90:	4618      	mov	r0, r3
 8000d92:	f7ff fde7 	bl	8000964 <TurnDecIntoHex>
 8000d96:	4603      	mov	r3, r0
 8000d98:	461a      	mov	r2, r3
 8000d9a:	4b26      	ldr	r3, [pc, #152]	; (8000e34 <IsNewAlarmAfterNow+0xf8>)
 8000d9c:	789b      	ldrb	r3, [r3, #2]
 8000d9e:	429a      	cmp	r2, r3
 8000da0:	d901      	bls.n	8000da6 <IsNewAlarmAfterNow+0x6a>
		{
			return 1;
 8000da2:	2301      	movs	r3, #1
 8000da4:	e040      	b.n	8000e28 <IsNewAlarmAfterNow+0xec>
		} else if (TurnDecIntoHex(SetDate) < gDate.Date)
 8000da6:	4b25      	ldr	r3, [pc, #148]	; (8000e3c <IsNewAlarmAfterNow+0x100>)
 8000da8:	781b      	ldrb	r3, [r3, #0]
 8000daa:	4618      	mov	r0, r3
 8000dac:	f7ff fdda 	bl	8000964 <TurnDecIntoHex>
 8000db0:	4603      	mov	r3, r0
 8000db2:	461a      	mov	r2, r3
 8000db4:	4b1f      	ldr	r3, [pc, #124]	; (8000e34 <IsNewAlarmAfterNow+0xf8>)
 8000db6:	789b      	ldrb	r3, [r3, #2]
 8000db8:	429a      	cmp	r2, r3
 8000dba:	d201      	bcs.n	8000dc0 <IsNewAlarmAfterNow+0x84>
		{
			return 0;
 8000dbc:	2300      	movs	r3, #0
 8000dbe:	e033      	b.n	8000e28 <IsNewAlarmAfterNow+0xec>
		} else
		{
			if (TurnDecIntoHex(SetHours) > gTime.Hours)
 8000dc0:	4b1f      	ldr	r3, [pc, #124]	; (8000e40 <IsNewAlarmAfterNow+0x104>)
 8000dc2:	781b      	ldrb	r3, [r3, #0]
 8000dc4:	4618      	mov	r0, r3
 8000dc6:	f7ff fdcd 	bl	8000964 <TurnDecIntoHex>
 8000dca:	4603      	mov	r3, r0
 8000dcc:	461a      	mov	r2, r3
 8000dce:	4b17      	ldr	r3, [pc, #92]	; (8000e2c <IsNewAlarmAfterNow+0xf0>)
 8000dd0:	781b      	ldrb	r3, [r3, #0]
 8000dd2:	429a      	cmp	r2, r3
 8000dd4:	d901      	bls.n	8000dda <IsNewAlarmAfterNow+0x9e>
			{
				return 1;
 8000dd6:	2301      	movs	r3, #1
 8000dd8:	e026      	b.n	8000e28 <IsNewAlarmAfterNow+0xec>
			} else if (TurnDecIntoHex(SetHours) < gTime.Hours)
 8000dda:	4b19      	ldr	r3, [pc, #100]	; (8000e40 <IsNewAlarmAfterNow+0x104>)
 8000ddc:	781b      	ldrb	r3, [r3, #0]
 8000dde:	4618      	mov	r0, r3
 8000de0:	f7ff fdc0 	bl	8000964 <TurnDecIntoHex>
 8000de4:	4603      	mov	r3, r0
 8000de6:	461a      	mov	r2, r3
 8000de8:	4b10      	ldr	r3, [pc, #64]	; (8000e2c <IsNewAlarmAfterNow+0xf0>)
 8000dea:	781b      	ldrb	r3, [r3, #0]
 8000dec:	429a      	cmp	r2, r3
 8000dee:	d201      	bcs.n	8000df4 <IsNewAlarmAfterNow+0xb8>
			{
				return 0;
 8000df0:	2300      	movs	r3, #0
 8000df2:	e019      	b.n	8000e28 <IsNewAlarmAfterNow+0xec>
			} else
			{
				if (TurnDecIntoHex(SetMinutes) > gTime.Minutes)
 8000df4:	4b13      	ldr	r3, [pc, #76]	; (8000e44 <IsNewAlarmAfterNow+0x108>)
 8000df6:	781b      	ldrb	r3, [r3, #0]
 8000df8:	4618      	mov	r0, r3
 8000dfa:	f7ff fdb3 	bl	8000964 <TurnDecIntoHex>
 8000dfe:	4603      	mov	r3, r0
 8000e00:	461a      	mov	r2, r3
 8000e02:	4b0a      	ldr	r3, [pc, #40]	; (8000e2c <IsNewAlarmAfterNow+0xf0>)
 8000e04:	785b      	ldrb	r3, [r3, #1]
 8000e06:	429a      	cmp	r2, r3
 8000e08:	d901      	bls.n	8000e0e <IsNewAlarmAfterNow+0xd2>
				{
					return 1;
 8000e0a:	2301      	movs	r3, #1
 8000e0c:	e00c      	b.n	8000e28 <IsNewAlarmAfterNow+0xec>
				} else if (TurnDecIntoHex(SetMinutes) <= gTime.Minutes)
 8000e0e:	4b0d      	ldr	r3, [pc, #52]	; (8000e44 <IsNewAlarmAfterNow+0x108>)
 8000e10:	781b      	ldrb	r3, [r3, #0]
 8000e12:	4618      	mov	r0, r3
 8000e14:	f7ff fda6 	bl	8000964 <TurnDecIntoHex>
 8000e18:	4603      	mov	r3, r0
 8000e1a:	461a      	mov	r2, r3
 8000e1c:	4b03      	ldr	r3, [pc, #12]	; (8000e2c <IsNewAlarmAfterNow+0xf0>)
 8000e1e:	785b      	ldrb	r3, [r3, #1]
 8000e20:	429a      	cmp	r2, r3
 8000e22:	d801      	bhi.n	8000e28 <IsNewAlarmAfterNow+0xec>
					return 0;
 8000e24:	2300      	movs	r3, #0
 8000e26:	e7ff      	b.n	8000e28 <IsNewAlarmAfterNow+0xec>
			}
		}
	}
}
 8000e28:	4618      	mov	r0, r3
 8000e2a:	bd80      	pop	{r7, pc}
 8000e2c:	20000188 	.word	0x20000188
 8000e30:	200001e4 	.word	0x200001e4
 8000e34:	20000110 	.word	0x20000110
 8000e38:	20000187 	.word	0x20000187
 8000e3c:	20000186 	.word	0x20000186
 8000e40:	2000023d 	.word	0x2000023d
 8000e44:	20000114 	.word	0x20000114

08000e48 <Rewind5Sec>:

void Rewind5Sec(void)
{
 8000e48:	b580      	push	{r7, lr}
 8000e4a:	b086      	sub	sp, #24
 8000e4c:	af00      	add	r7, sp, #0
	if (K0isPressed)
 8000e4e:	4b1c      	ldr	r3, [pc, #112]	; (8000ec0 <Rewind5Sec+0x78>)
 8000e50:	781b      	ldrb	r3, [r3, #0]
 8000e52:	2b00      	cmp	r3, #0
 8000e54:	d02f      	beq.n	8000eb6 <Rewind5Sec+0x6e>
	{
		RTC_TimeTypeDef gTime;

		HAL_RTC_GetTime(&hrtc, &gTime, RTC_FORMAT_BCD);
 8000e56:	1d3b      	adds	r3, r7, #4
 8000e58:	2201      	movs	r2, #1
 8000e5a:	4619      	mov	r1, r3
 8000e5c:	4819      	ldr	r0, [pc, #100]	; (8000ec4 <Rewind5Sec+0x7c>)
 8000e5e:	f002 fa50 	bl	8003302 <HAL_RTC_GetTime>
		gTime.Seconds = TurnDecIntoHex(TurnHexIntoDec(gTime.Seconds)-5);
 8000e62:	79bb      	ldrb	r3, [r7, #6]
 8000e64:	4618      	mov	r0, r3
 8000e66:	f7ff fd63 	bl	8000930 <TurnHexIntoDec>
 8000e6a:	4603      	mov	r3, r0
 8000e6c:	3b05      	subs	r3, #5
 8000e6e:	b2db      	uxtb	r3, r3
 8000e70:	4618      	mov	r0, r3
 8000e72:	f7ff fd77 	bl	8000964 <TurnDecIntoHex>
 8000e76:	4603      	mov	r3, r0
 8000e78:	71bb      	strb	r3, [r7, #6]
		gTime.Hours = TurnDecIntoHex(TurnHexIntoDec(gTime.Hours)+0);
 8000e7a:	793b      	ldrb	r3, [r7, #4]
 8000e7c:	4618      	mov	r0, r3
 8000e7e:	f7ff fd57 	bl	8000930 <TurnHexIntoDec>
 8000e82:	4603      	mov	r3, r0
 8000e84:	4618      	mov	r0, r3
 8000e86:	f7ff fd6d 	bl	8000964 <TurnDecIntoHex>
 8000e8a:	4603      	mov	r3, r0
 8000e8c:	713b      	strb	r3, [r7, #4]

		if (HAL_RTC_SetTime(&hrtc, &gTime, RTC_FORMAT_BCD) != HAL_OK)
 8000e8e:	1d3b      	adds	r3, r7, #4
 8000e90:	2201      	movs	r2, #1
 8000e92:	4619      	mov	r1, r3
 8000e94:	480b      	ldr	r0, [pc, #44]	; (8000ec4 <Rewind5Sec+0x7c>)
 8000e96:	f002 f977 	bl	8003188 <HAL_RTC_SetTime>
 8000e9a:	4603      	mov	r3, r0
 8000e9c:	2b00      	cmp	r3, #0
 8000e9e:	d001      	beq.n	8000ea4 <Rewind5Sec+0x5c>
		{
		  Error_Handler();
 8000ea0:	f000 fbf2 	bl	8001688 <Error_Handler>
		}

		HAL_RTCEx_BKUPWrite(&hrtc, RTC_BKP_DR1, 0x32F2);
 8000ea4:	f243 22f2 	movw	r2, #13042	; 0x32f2
 8000ea8:	2101      	movs	r1, #1
 8000eaa:	4806      	ldr	r0, [pc, #24]	; (8000ec4 <Rewind5Sec+0x7c>)
 8000eac:	f002 fe46 	bl	8003b3c <HAL_RTCEx_BKUPWrite>

		K0isPressed = 0;
 8000eb0:	4b03      	ldr	r3, [pc, #12]	; (8000ec0 <Rewind5Sec+0x78>)
 8000eb2:	2200      	movs	r2, #0
 8000eb4:	701a      	strb	r2, [r3, #0]
	}
}
 8000eb6:	bf00      	nop
 8000eb8:	3718      	adds	r7, #24
 8000eba:	46bd      	mov	sp, r7
 8000ebc:	bd80      	pop	{r7, pc}
 8000ebe:	bf00      	nop
 8000ec0:	200001e0 	.word	0x200001e0
 8000ec4:	200001e4 	.word	0x200001e4

08000ec8 <Forwardd5Sec>:

void Forwardd5Sec(void)
{
 8000ec8:	b580      	push	{r7, lr}
 8000eca:	b086      	sub	sp, #24
 8000ecc:	af00      	add	r7, sp, #0
	if (K1isPressed)
 8000ece:	4b1c      	ldr	r3, [pc, #112]	; (8000f40 <Forwardd5Sec+0x78>)
 8000ed0:	781b      	ldrb	r3, [r3, #0]
 8000ed2:	2b00      	cmp	r3, #0
 8000ed4:	d02f      	beq.n	8000f36 <Forwardd5Sec+0x6e>
	{
		RTC_TimeTypeDef gTime;

		HAL_RTC_GetTime(&hrtc, &gTime, RTC_FORMAT_BCD);
 8000ed6:	1d3b      	adds	r3, r7, #4
 8000ed8:	2201      	movs	r2, #1
 8000eda:	4619      	mov	r1, r3
 8000edc:	4819      	ldr	r0, [pc, #100]	; (8000f44 <Forwardd5Sec+0x7c>)
 8000ede:	f002 fa10 	bl	8003302 <HAL_RTC_GetTime>
		gTime.Seconds = TurnDecIntoHex(TurnHexIntoDec(gTime.Seconds)+5);
 8000ee2:	79bb      	ldrb	r3, [r7, #6]
 8000ee4:	4618      	mov	r0, r3
 8000ee6:	f7ff fd23 	bl	8000930 <TurnHexIntoDec>
 8000eea:	4603      	mov	r3, r0
 8000eec:	3305      	adds	r3, #5
 8000eee:	b2db      	uxtb	r3, r3
 8000ef0:	4618      	mov	r0, r3
 8000ef2:	f7ff fd37 	bl	8000964 <TurnDecIntoHex>
 8000ef6:	4603      	mov	r3, r0
 8000ef8:	71bb      	strb	r3, [r7, #6]
		gTime.Hours = TurnDecIntoHex(TurnHexIntoDec(gTime.Hours)+0);
 8000efa:	793b      	ldrb	r3, [r7, #4]
 8000efc:	4618      	mov	r0, r3
 8000efe:	f7ff fd17 	bl	8000930 <TurnHexIntoDec>
 8000f02:	4603      	mov	r3, r0
 8000f04:	4618      	mov	r0, r3
 8000f06:	f7ff fd2d 	bl	8000964 <TurnDecIntoHex>
 8000f0a:	4603      	mov	r3, r0
 8000f0c:	713b      	strb	r3, [r7, #4]

		if (HAL_RTC_SetTime(&hrtc, &gTime, RTC_FORMAT_BCD) != HAL_OK)
 8000f0e:	1d3b      	adds	r3, r7, #4
 8000f10:	2201      	movs	r2, #1
 8000f12:	4619      	mov	r1, r3
 8000f14:	480b      	ldr	r0, [pc, #44]	; (8000f44 <Forwardd5Sec+0x7c>)
 8000f16:	f002 f937 	bl	8003188 <HAL_RTC_SetTime>
 8000f1a:	4603      	mov	r3, r0
 8000f1c:	2b00      	cmp	r3, #0
 8000f1e:	d001      	beq.n	8000f24 <Forwardd5Sec+0x5c>
		{
		  Error_Handler();
 8000f20:	f000 fbb2 	bl	8001688 <Error_Handler>
		}

		HAL_RTCEx_BKUPWrite(&hrtc, RTC_BKP_DR1, 0x32F2);
 8000f24:	f243 22f2 	movw	r2, #13042	; 0x32f2
 8000f28:	2101      	movs	r1, #1
 8000f2a:	4806      	ldr	r0, [pc, #24]	; (8000f44 <Forwardd5Sec+0x7c>)
 8000f2c:	f002 fe06 	bl	8003b3c <HAL_RTCEx_BKUPWrite>
		K1isPressed = 0;
 8000f30:	4b03      	ldr	r3, [pc, #12]	; (8000f40 <Forwardd5Sec+0x78>)
 8000f32:	2200      	movs	r2, #0
 8000f34:	701a      	strb	r2, [r3, #0]
	}
}
 8000f36:	bf00      	nop
 8000f38:	3718      	adds	r7, #24
 8000f3a:	46bd      	mov	sp, r7
 8000f3c:	bd80      	pop	{r7, pc}
 8000f3e:	bf00      	nop
 8000f40:	200001e1 	.word	0x200001e1
 8000f44:	200001e4 	.word	0x200001e4

08000f48 <OpenTheDoor>:

void OpenTheDoor(void)
{
 8000f48:	b580      	push	{r7, lr}
 8000f4a:	af00      	add	r7, sp, #0
	HAL_GPIO_WritePin(OpenDoor_GPIO_Port, OpenDoor_Pin, RESET);
 8000f4c:	2200      	movs	r2, #0
 8000f4e:	f44f 5180 	mov.w	r1, #4096	; 0x1000
 8000f52:	4807      	ldr	r0, [pc, #28]	; (8000f70 <OpenTheDoor+0x28>)
 8000f54:	f001 faa8 	bl	80024a8 <HAL_GPIO_WritePin>
	HAL_Delay(200);
 8000f58:	20c8      	movs	r0, #200	; 0xc8
 8000f5a:	f000 fef7 	bl	8001d4c <HAL_Delay>
	HAL_GPIO_WritePin(OpenDoor_GPIO_Port, OpenDoor_Pin, SET);
 8000f5e:	2201      	movs	r2, #1
 8000f60:	f44f 5180 	mov.w	r1, #4096	; 0x1000
 8000f64:	4802      	ldr	r0, [pc, #8]	; (8000f70 <OpenTheDoor+0x28>)
 8000f66:	f001 fa9f 	bl	80024a8 <HAL_GPIO_WritePin>
}
 8000f6a:	bf00      	nop
 8000f6c:	bd80      	pop	{r7, pc}
 8000f6e:	bf00      	nop
 8000f70:	40020400 	.word	0x40020400

08000f74 <ToDoOnAlarm>:

void ToDoOnAlarm(void)
{
 8000f74:	b580      	push	{r7, lr}
 8000f76:	af00      	add	r7, sp, #0
	OpenTheDoor();
 8000f78:	f7ff ffe6 	bl	8000f48 <OpenTheDoor>
	HappyToggling(150);
 8000f7c:	2096      	movs	r0, #150	; 0x96
 8000f7e:	f7ff fd1d 	bl	80009bc <HappyToggling>
}
 8000f82:	bf00      	nop
 8000f84:	bd80      	pop	{r7, pc}
	...

08000f88 <main>:
/**
  * @brief  The application entry point.
  * @retval int
  */
int main(void)
{
 8000f88:	b5f0      	push	{r4, r5, r6, r7, lr}
 8000f8a:	b08b      	sub	sp, #44	; 0x2c
 8000f8c:	af08      	add	r7, sp, #32
  /* USER CODE END 1 */

  /* MCU Configuration--------------------------------------------------------*/

  /* Reset of all peripherals, Initializes the Flash interface and the Systick. */
  HAL_Init();
 8000f8e:	f000 fe6b 	bl	8001c68 <HAL_Init>
  /* USER CODE BEGIN Init */

  /* USER CODE END Init */

  /* Configure the system clock */
  SystemClock_Config();
 8000f92:	f000 f9e3 	bl	800135c <SystemClock_Config>
  /* USER CODE BEGIN SysInit */

  /* USER CODE END SysInit */

  /* Initialize all configured peripherals */
  MX_GPIO_Init();
 8000f96:	f000 faa7 	bl	80014e8 <MX_GPIO_Init>
  MX_RTC_Init();
 8000f9a:	f000 fa55 	bl	8001448 <MX_RTC_Init>
  MX_USART1_UART_Init();
 8000f9e:	f000 fa79 	bl	8001494 <MX_USART1_UART_Init>
  /* USER CODE BEGIN 2 */

  if (HAL_RTCEx_BKUPRead(&hrtc, RTC_BKP_DR1) != 0x32F2)
 8000fa2:	2101      	movs	r1, #1
 8000fa4:	4883      	ldr	r0, [pc, #524]	; (80011b4 <main+0x22c>)
 8000fa6:	f002 fde3 	bl	8003b70 <HAL_RTCEx_BKUPRead>
 8000faa:	4603      	mov	r3, r0
 8000fac:	f243 22f2 	movw	r2, #13042	; 0x32f2
 8000fb0:	4293      	cmp	r3, r2
 8000fb2:	d001      	beq.n	8000fb8 <main+0x30>
  {
	  SetTime();
 8000fb4:	f7ff fd24 	bl	8000a00 <SetTime>
  }

  __HAL_UART_ENABLE_IT(&huart1, UART_IT_RXNE);
 8000fb8:	4b7f      	ldr	r3, [pc, #508]	; (80011b8 <main+0x230>)
 8000fba:	681b      	ldr	r3, [r3, #0]
 8000fbc:	68da      	ldr	r2, [r3, #12]
 8000fbe:	4b7e      	ldr	r3, [pc, #504]	; (80011b8 <main+0x230>)
 8000fc0:	681b      	ldr	r3, [r3, #0]
 8000fc2:	f042 0220 	orr.w	r2, r2, #32
 8000fc6:	60da      	str	r2, [r3, #12]

  if (IsAlarmSetBeforeNow())
 8000fc8:	f7ff fde6 	bl	8000b98 <IsAlarmSetBeforeNow>
 8000fcc:	4603      	mov	r3, r0
 8000fce:	2b00      	cmp	r3, #0
 8000fd0:	d001      	beq.n	8000fd6 <main+0x4e>
  {
	  OpenTheDoor();
 8000fd2:	f7ff ffb9 	bl	8000f48 <OpenTheDoor>

//	!!
//	if I upload confifugartion from CubeMX Configurator I need to delete set time from MX_RTC_Init()!
//	!!

	  if (HAL_GPIO_ReadPin(MagnetDoor_GPIO_Port, MagnetDoor_Pin) == 0)
 8000fd6:	f44f 7180 	mov.w	r1, #256	; 0x100
 8000fda:	4878      	ldr	r0, [pc, #480]	; (80011bc <main+0x234>)
 8000fdc:	f001 fa4c 	bl	8002478 <HAL_GPIO_ReadPin>
 8000fe0:	4603      	mov	r3, r0
 8000fe2:	2b00      	cmp	r3, #0
 8000fe4:	d108      	bne.n	8000ff8 <main+0x70>
	  {
		  HAL_GPIO_TogglePin(LED0_GPIO_Port, LED0_Pin);
 8000fe6:	f44f 7100 	mov.w	r1, #512	; 0x200
 8000fea:	4875      	ldr	r0, [pc, #468]	; (80011c0 <main+0x238>)
 8000fec:	f001 fa75 	bl	80024da <HAL_GPIO_TogglePin>
		  DoorIsOpenFlag = 1;
 8000ff0:	4b74      	ldr	r3, [pc, #464]	; (80011c4 <main+0x23c>)
 8000ff2:	2201      	movs	r2, #1
 8000ff4:	701a      	strb	r2, [r3, #0]
 8000ff6:	e002      	b.n	8000ffe <main+0x76>
	  } else
		  DoorIsOpenFlag = 0;
 8000ff8:	4b72      	ldr	r3, [pc, #456]	; (80011c4 <main+0x23c>)
 8000ffa:	2200      	movs	r2, #0
 8000ffc:	701a      	strb	r2, [r3, #0]

	  HAL_GPIO_TogglePin(LED1_GPIO_Port, LED1_Pin);
 8000ffe:	f44f 6180 	mov.w	r1, #1024	; 0x400
 8001002:	486f      	ldr	r0, [pc, #444]	; (80011c0 <main+0x238>)
 8001004:	f001 fa69 	bl	80024da <HAL_GPIO_TogglePin>
	  HAL_Delay(200);
 8001008:	20c8      	movs	r0, #200	; 0xc8
 800100a:	f000 fe9f 	bl	8001d4c <HAL_Delay>

	  if (SetAlarm)
 800100e:	4b6e      	ldr	r3, [pc, #440]	; (80011c8 <main+0x240>)
 8001010:	781b      	ldrb	r3, [r3, #0]
 8001012:	2b00      	cmp	r3, #0
 8001014:	f000 80a1 	beq.w	800115a <main+0x1d2>
	  {
		  if (!DoorIsOpenFlag)
 8001018:	4b6a      	ldr	r3, [pc, #424]	; (80011c4 <main+0x23c>)
 800101a:	781b      	ldrb	r3, [r3, #0]
 800101c:	2b00      	cmp	r3, #0
 800101e:	d16b      	bne.n	80010f8 <main+0x170>
		  {
			  if (IsNewAlarmMoreFresh())
 8001020:	f7ff fe12 	bl	8000c48 <IsNewAlarmMoreFresh>
 8001024:	4603      	mov	r3, r0
 8001026:	2b00      	cmp	r3, #0
 8001028:	d042      	beq.n	80010b0 <main+0x128>
			  {
				  if (IsNewAlarmAfterNow())
 800102a:	f7ff fe87 	bl	8000d3c <IsNewAlarmAfterNow>
 800102e:	4603      	mov	r3, r0
 8001030:	2b00      	cmp	r3, #0
 8001032:	d02e      	beq.n	8001092 <main+0x10a>
				  {
					  sprintf((char*)Message, "Set alarm to %02d:%02d of %02d.%02d",SetHours, SetMinutes, SetDate, SetSeconds);
 8001034:	4b65      	ldr	r3, [pc, #404]	; (80011cc <main+0x244>)
 8001036:	781b      	ldrb	r3, [r3, #0]
 8001038:	4619      	mov	r1, r3
 800103a:	4b65      	ldr	r3, [pc, #404]	; (80011d0 <main+0x248>)
 800103c:	781b      	ldrb	r3, [r3, #0]
 800103e:	4618      	mov	r0, r3
 8001040:	4b64      	ldr	r3, [pc, #400]	; (80011d4 <main+0x24c>)
 8001042:	781b      	ldrb	r3, [r3, #0]
 8001044:	461a      	mov	r2, r3
 8001046:	4b64      	ldr	r3, [pc, #400]	; (80011d8 <main+0x250>)
 8001048:	781b      	ldrb	r3, [r3, #0]
 800104a:	9301      	str	r3, [sp, #4]
 800104c:	9200      	str	r2, [sp, #0]
 800104e:	4603      	mov	r3, r0
 8001050:	460a      	mov	r2, r1
 8001052:	4962      	ldr	r1, [pc, #392]	; (80011dc <main+0x254>)
 8001054:	4862      	ldr	r0, [pc, #392]	; (80011e0 <main+0x258>)
 8001056:	f003 fc8d 	bl	8004974 <siprintf>
					  HAL_UART_Transmit(&huart1, (uint8_t* )Message, strlen(Message), strlen(Message));
 800105a:	4861      	ldr	r0, [pc, #388]	; (80011e0 <main+0x258>)
 800105c:	f7ff f8b8 	bl	80001d0 <strlen>
 8001060:	4603      	mov	r3, r0
 8001062:	b29c      	uxth	r4, r3
 8001064:	485e      	ldr	r0, [pc, #376]	; (80011e0 <main+0x258>)
 8001066:	f7ff f8b3 	bl	80001d0 <strlen>
 800106a:	4603      	mov	r3, r0
 800106c:	4622      	mov	r2, r4
 800106e:	495c      	ldr	r1, [pc, #368]	; (80011e0 <main+0x258>)
 8001070:	4851      	ldr	r0, [pc, #324]	; (80011b8 <main+0x230>)
 8001072:	f002 fdec 	bl	8003c4e <HAL_UART_Transmit>
					  HappyToggling(100);
 8001076:	2064      	movs	r0, #100	; 0x64
 8001078:	f7ff fca0 	bl	80009bc <HappyToggling>
					  SetAlarmFunc(SetHours, SetMinutes, SetDate, SetSeconds);
 800107c:	4b53      	ldr	r3, [pc, #332]	; (80011cc <main+0x244>)
 800107e:	7818      	ldrb	r0, [r3, #0]
 8001080:	4b53      	ldr	r3, [pc, #332]	; (80011d0 <main+0x248>)
 8001082:	7819      	ldrb	r1, [r3, #0]
 8001084:	4b53      	ldr	r3, [pc, #332]	; (80011d4 <main+0x24c>)
 8001086:	781a      	ldrb	r2, [r3, #0]
 8001088:	4b53      	ldr	r3, [pc, #332]	; (80011d8 <main+0x250>)
 800108a:	781b      	ldrb	r3, [r3, #0]
 800108c:	f7ff fcf0 	bl	8000a70 <SetAlarmFunc>
 8001090:	e060      	b.n	8001154 <main+0x1cc>
				  } else
				  {
					  HAL_UART_Transmit(&huart1, (uint8_t* )AlarmExpired, strlen(AlarmExpired), strlen(AlarmExpired));
 8001092:	4854      	ldr	r0, [pc, #336]	; (80011e4 <main+0x25c>)
 8001094:	f7ff f89c 	bl	80001d0 <strlen>
 8001098:	4603      	mov	r3, r0
 800109a:	b29c      	uxth	r4, r3
 800109c:	4851      	ldr	r0, [pc, #324]	; (80011e4 <main+0x25c>)
 800109e:	f7ff f897 	bl	80001d0 <strlen>
 80010a2:	4603      	mov	r3, r0
 80010a4:	4622      	mov	r2, r4
 80010a6:	494f      	ldr	r1, [pc, #316]	; (80011e4 <main+0x25c>)
 80010a8:	4843      	ldr	r0, [pc, #268]	; (80011b8 <main+0x230>)
 80010aa:	f002 fdd0 	bl	8003c4e <HAL_UART_Transmit>
 80010ae:	e051      	b.n	8001154 <main+0x1cc>
				  }
			  } else
			  {
				  sprintf(Message, "%s %02x:%02x of %02x.%02x", AlarmIsAlreadyOn, gAlarm.AlarmTime.Hours, gAlarm.AlarmTime.Minutes, gAlarm.AlarmTime.Seconds, gAlarm.AlarmDateWeekDay);
 80010b0:	4b4d      	ldr	r3, [pc, #308]	; (80011e8 <main+0x260>)
 80010b2:	781b      	ldrb	r3, [r3, #0]
 80010b4:	4618      	mov	r0, r3
 80010b6:	4b4c      	ldr	r3, [pc, #304]	; (80011e8 <main+0x260>)
 80010b8:	785b      	ldrb	r3, [r3, #1]
 80010ba:	461a      	mov	r2, r3
 80010bc:	4b4a      	ldr	r3, [pc, #296]	; (80011e8 <main+0x260>)
 80010be:	789b      	ldrb	r3, [r3, #2]
 80010c0:	4619      	mov	r1, r3
 80010c2:	4b49      	ldr	r3, [pc, #292]	; (80011e8 <main+0x260>)
 80010c4:	f893 3020 	ldrb.w	r3, [r3, #32]
 80010c8:	9302      	str	r3, [sp, #8]
 80010ca:	9101      	str	r1, [sp, #4]
 80010cc:	9200      	str	r2, [sp, #0]
 80010ce:	4603      	mov	r3, r0
 80010d0:	4a46      	ldr	r2, [pc, #280]	; (80011ec <main+0x264>)
 80010d2:	4947      	ldr	r1, [pc, #284]	; (80011f0 <main+0x268>)
 80010d4:	4842      	ldr	r0, [pc, #264]	; (80011e0 <main+0x258>)
 80010d6:	f003 fc4d 	bl	8004974 <siprintf>
				  HAL_UART_Transmit(&huart1, (uint8_t* )Message, strlen(Message), strlen(Message));
 80010da:	4841      	ldr	r0, [pc, #260]	; (80011e0 <main+0x258>)
 80010dc:	f7ff f878 	bl	80001d0 <strlen>
 80010e0:	4603      	mov	r3, r0
 80010e2:	b29c      	uxth	r4, r3
 80010e4:	483e      	ldr	r0, [pc, #248]	; (80011e0 <main+0x258>)
 80010e6:	f7ff f873 	bl	80001d0 <strlen>
 80010ea:	4603      	mov	r3, r0
 80010ec:	4622      	mov	r2, r4
 80010ee:	493c      	ldr	r1, [pc, #240]	; (80011e0 <main+0x258>)
 80010f0:	4831      	ldr	r0, [pc, #196]	; (80011b8 <main+0x230>)
 80010f2:	f002 fdac 	bl	8003c4e <HAL_UART_Transmit>
 80010f6:	e02d      	b.n	8001154 <main+0x1cc>
			  }
		  } else
		  {
			  sprintf(Message, "Set alarm to %02d:%02d of %02d.%02d",SetHours, SetMinutes, SetDate, SetSeconds);
 80010f8:	4b34      	ldr	r3, [pc, #208]	; (80011cc <main+0x244>)
 80010fa:	781b      	ldrb	r3, [r3, #0]
 80010fc:	4619      	mov	r1, r3
 80010fe:	4b34      	ldr	r3, [pc, #208]	; (80011d0 <main+0x248>)
 8001100:	781b      	ldrb	r3, [r3, #0]
 8001102:	4618      	mov	r0, r3
 8001104:	4b33      	ldr	r3, [pc, #204]	; (80011d4 <main+0x24c>)
 8001106:	781b      	ldrb	r3, [r3, #0]
 8001108:	461a      	mov	r2, r3
 800110a:	4b33      	ldr	r3, [pc, #204]	; (80011d8 <main+0x250>)
 800110c:	781b      	ldrb	r3, [r3, #0]
 800110e:	9301      	str	r3, [sp, #4]
 8001110:	9200      	str	r2, [sp, #0]
 8001112:	4603      	mov	r3, r0
 8001114:	460a      	mov	r2, r1
 8001116:	4931      	ldr	r1, [pc, #196]	; (80011dc <main+0x254>)
 8001118:	4831      	ldr	r0, [pc, #196]	; (80011e0 <main+0x258>)
 800111a:	f003 fc2b 	bl	8004974 <siprintf>
			  HAL_UART_Transmit(&huart1, (uint8_t* )Message, strlen(Message), strlen(Message));
 800111e:	4830      	ldr	r0, [pc, #192]	; (80011e0 <main+0x258>)
 8001120:	f7ff f856 	bl	80001d0 <strlen>
 8001124:	4603      	mov	r3, r0
 8001126:	b29c      	uxth	r4, r3
 8001128:	482d      	ldr	r0, [pc, #180]	; (80011e0 <main+0x258>)
 800112a:	f7ff f851 	bl	80001d0 <strlen>
 800112e:	4603      	mov	r3, r0
 8001130:	4622      	mov	r2, r4
 8001132:	492b      	ldr	r1, [pc, #172]	; (80011e0 <main+0x258>)
 8001134:	4820      	ldr	r0, [pc, #128]	; (80011b8 <main+0x230>)
 8001136:	f002 fd8a 	bl	8003c4e <HAL_UART_Transmit>
			  HappyToggling(100);
 800113a:	2064      	movs	r0, #100	; 0x64
 800113c:	f7ff fc3e 	bl	80009bc <HappyToggling>
			  SetAlarmFunc(SetHours, SetMinutes, SetDate, SetSeconds);
 8001140:	4b22      	ldr	r3, [pc, #136]	; (80011cc <main+0x244>)
 8001142:	7818      	ldrb	r0, [r3, #0]
 8001144:	4b22      	ldr	r3, [pc, #136]	; (80011d0 <main+0x248>)
 8001146:	7819      	ldrb	r1, [r3, #0]
 8001148:	4b22      	ldr	r3, [pc, #136]	; (80011d4 <main+0x24c>)
 800114a:	781a      	ldrb	r2, [r3, #0]
 800114c:	4b22      	ldr	r3, [pc, #136]	; (80011d8 <main+0x250>)
 800114e:	781b      	ldrb	r3, [r3, #0]
 8001150:	f7ff fc8e 	bl	8000a70 <SetAlarmFunc>
		  }
		  SetAlarm = 0;
 8001154:	4b1c      	ldr	r3, [pc, #112]	; (80011c8 <main+0x240>)
 8001156:	2200      	movs	r2, #0
 8001158:	701a      	strb	r2, [r3, #0]
	  }

	  GetTimeDate();
 800115a:	f7ff fcd3 	bl	8000b04 <GetTimeDate>

	  if (AlarmRing)
 800115e:	4b25      	ldr	r3, [pc, #148]	; (80011f4 <main+0x26c>)
 8001160:	781b      	ldrb	r3, [r3, #0]
 8001162:	2b00      	cmp	r3, #0
 8001164:	d004      	beq.n	8001170 <main+0x1e8>
	  {
		  ToDoOnAlarm();
 8001166:	f7ff ff05 	bl	8000f74 <ToDoOnAlarm>
		  AlarmRing = 0;
 800116a:	4b22      	ldr	r3, [pc, #136]	; (80011f4 <main+0x26c>)
 800116c:	2200      	movs	r2, #0
 800116e:	701a      	strb	r2, [r3, #0]
	  }

	  if (DeleteAlarm)
 8001170:	4b21      	ldr	r3, [pc, #132]	; (80011f8 <main+0x270>)
 8001172:	781b      	ldrb	r3, [r3, #0]
 8001174:	2b00      	cmp	r3, #0
 8001176:	d058      	beq.n	800122a <main+0x2a2>
	  {
		  if (DoorIsOpenFlag)
 8001178:	4b12      	ldr	r3, [pc, #72]	; (80011c4 <main+0x23c>)
 800117a:	781b      	ldrb	r3, [r3, #0]
 800117c:	2b00      	cmp	r3, #0
 800117e:	d03f      	beq.n	8001200 <main+0x278>
		  {
			  sprintf(Message, "Alarm deleted");
 8001180:	491e      	ldr	r1, [pc, #120]	; (80011fc <main+0x274>)
 8001182:	4817      	ldr	r0, [pc, #92]	; (80011e0 <main+0x258>)
 8001184:	f003 fbf6 	bl	8004974 <siprintf>
			  HAL_UART_Transmit(&huart1, (uint8_t* )Message, strlen(Message), strlen(Message));
 8001188:	4815      	ldr	r0, [pc, #84]	; (80011e0 <main+0x258>)
 800118a:	f7ff f821 	bl	80001d0 <strlen>
 800118e:	4603      	mov	r3, r0
 8001190:	b29c      	uxth	r4, r3
 8001192:	4813      	ldr	r0, [pc, #76]	; (80011e0 <main+0x258>)
 8001194:	f7ff f81c 	bl	80001d0 <strlen>
 8001198:	4603      	mov	r3, r0
 800119a:	4622      	mov	r2, r4
 800119c:	4910      	ldr	r1, [pc, #64]	; (80011e0 <main+0x258>)
 800119e:	4806      	ldr	r0, [pc, #24]	; (80011b8 <main+0x230>)
 80011a0:	f002 fd55 	bl	8003c4e <HAL_UART_Transmit>
			  SetAlarmFunc(0,0,1,1);
 80011a4:	2301      	movs	r3, #1
 80011a6:	2201      	movs	r2, #1
 80011a8:	2100      	movs	r1, #0
 80011aa:	2000      	movs	r0, #0
 80011ac:	f7ff fc60 	bl	8000a70 <SetAlarmFunc>
 80011b0:	e038      	b.n	8001224 <main+0x29c>
 80011b2:	bf00      	nop
 80011b4:	200001e4 	.word	0x200001e4
 80011b8:	2000019c 	.word	0x2000019c
 80011bc:	40021800 	.word	0x40021800
 80011c0:	40021400 	.word	0x40021400
 80011c4:	20000045 	.word	0x20000045
 80011c8:	200000f8 	.word	0x200000f8
 80011cc:	2000023d 	.word	0x2000023d
 80011d0:	20000114 	.word	0x20000114
 80011d4:	20000186 	.word	0x20000186
 80011d8:	20000187 	.word	0x20000187
 80011dc:	08005348 	.word	0x08005348
 80011e0:	20000140 	.word	0x20000140
 80011e4:	20000018 	.word	0x20000018
 80011e8:	20000118 	.word	0x20000118
 80011ec:	20000000 	.word	0x20000000
 80011f0:	0800536c 	.word	0x0800536c
 80011f4:	200000f0 	.word	0x200000f0
 80011f8:	20000100 	.word	0x20000100
 80011fc:	08005388 	.word	0x08005388
		  } else
		  {
			  sprintf(Message, "You can't delete alarm while the door is closed");
 8001200:	4948      	ldr	r1, [pc, #288]	; (8001324 <main+0x39c>)
 8001202:	4849      	ldr	r0, [pc, #292]	; (8001328 <main+0x3a0>)
 8001204:	f003 fbb6 	bl	8004974 <siprintf>
			  HAL_UART_Transmit(&huart1, (uint8_t* )Message, strlen(Message), strlen(Message));
 8001208:	4847      	ldr	r0, [pc, #284]	; (8001328 <main+0x3a0>)
 800120a:	f7fe ffe1 	bl	80001d0 <strlen>
 800120e:	4603      	mov	r3, r0
 8001210:	b29c      	uxth	r4, r3
 8001212:	4845      	ldr	r0, [pc, #276]	; (8001328 <main+0x3a0>)
 8001214:	f7fe ffdc 	bl	80001d0 <strlen>
 8001218:	4603      	mov	r3, r0
 800121a:	4622      	mov	r2, r4
 800121c:	4942      	ldr	r1, [pc, #264]	; (8001328 <main+0x3a0>)
 800121e:	4843      	ldr	r0, [pc, #268]	; (800132c <main+0x3a4>)
 8001220:	f002 fd15 	bl	8003c4e <HAL_UART_Transmit>
		  }
		  DeleteAlarm = 0;
 8001224:	4b42      	ldr	r3, [pc, #264]	; (8001330 <main+0x3a8>)
 8001226:	2200      	movs	r2, #0
 8001228:	701a      	strb	r2, [r3, #0]
	  }

	  if (GetAlarm)
 800122a:	4b42      	ldr	r3, [pc, #264]	; (8001334 <main+0x3ac>)
 800122c:	781b      	ldrb	r3, [r3, #0]
 800122e:	2b00      	cmp	r3, #0
 8001230:	d046      	beq.n	80012c0 <main+0x338>
	  {
		  HAL_RTC_GetAlarm(&hrtc, &gAlarm, RTC_ALARM_A, RTC_FORMAT_BCD);
 8001232:	2301      	movs	r3, #1
 8001234:	f44f 7280 	mov.w	r2, #256	; 0x100
 8001238:	493f      	ldr	r1, [pc, #252]	; (8001338 <main+0x3b0>)
 800123a:	4840      	ldr	r0, [pc, #256]	; (800133c <main+0x3b4>)
 800123c:	f002 faee 	bl	800381c <HAL_RTC_GetAlarm>
		  HAL_RTC_GetTime(&hrtc, &gTime, RTC_FORMAT_BCD);
 8001240:	2201      	movs	r2, #1
 8001242:	493f      	ldr	r1, [pc, #252]	; (8001340 <main+0x3b8>)
 8001244:	483d      	ldr	r0, [pc, #244]	; (800133c <main+0x3b4>)
 8001246:	f002 f85c 	bl	8003302 <HAL_RTC_GetTime>
		  HAL_RTC_GetDate(&hrtc, &gDate, RTC_FORMAT_BCD);
 800124a:	2201      	movs	r2, #1
 800124c:	493d      	ldr	r1, [pc, #244]	; (8001344 <main+0x3bc>)
 800124e:	483b      	ldr	r0, [pc, #236]	; (800133c <main+0x3b4>)
 8001250:	f002 f95c 	bl	800350c <HAL_RTC_GetDate>
		  sprintf(Message, "%s %02x:%02x of %02x.%02x. Time now: %02x:%02x %02x.%02x", AlarmNowIsOn, gAlarm.AlarmTime.Hours, gAlarm.AlarmTime.Minutes, gAlarm.AlarmTime.Seconds, gAlarm.AlarmDateWeekDay, gTime.Hours, gTime.Minutes, gDate.Month, gDate.Date);
 8001254:	4b38      	ldr	r3, [pc, #224]	; (8001338 <main+0x3b0>)
 8001256:	781b      	ldrb	r3, [r3, #0]
 8001258:	469c      	mov	ip, r3
 800125a:	4b37      	ldr	r3, [pc, #220]	; (8001338 <main+0x3b0>)
 800125c:	785b      	ldrb	r3, [r3, #1]
 800125e:	461a      	mov	r2, r3
 8001260:	4b35      	ldr	r3, [pc, #212]	; (8001338 <main+0x3b0>)
 8001262:	789b      	ldrb	r3, [r3, #2]
 8001264:	4619      	mov	r1, r3
 8001266:	4b34      	ldr	r3, [pc, #208]	; (8001338 <main+0x3b0>)
 8001268:	f893 3020 	ldrb.w	r3, [r3, #32]
 800126c:	4618      	mov	r0, r3
 800126e:	4b34      	ldr	r3, [pc, #208]	; (8001340 <main+0x3b8>)
 8001270:	781b      	ldrb	r3, [r3, #0]
 8001272:	461c      	mov	r4, r3
 8001274:	4b32      	ldr	r3, [pc, #200]	; (8001340 <main+0x3b8>)
 8001276:	785b      	ldrb	r3, [r3, #1]
 8001278:	461d      	mov	r5, r3
 800127a:	4b32      	ldr	r3, [pc, #200]	; (8001344 <main+0x3bc>)
 800127c:	785b      	ldrb	r3, [r3, #1]
 800127e:	461e      	mov	r6, r3
 8001280:	4b30      	ldr	r3, [pc, #192]	; (8001344 <main+0x3bc>)
 8001282:	789b      	ldrb	r3, [r3, #2]
 8001284:	9306      	str	r3, [sp, #24]
 8001286:	9605      	str	r6, [sp, #20]
 8001288:	9504      	str	r5, [sp, #16]
 800128a:	9403      	str	r4, [sp, #12]
 800128c:	9002      	str	r0, [sp, #8]
 800128e:	9101      	str	r1, [sp, #4]
 8001290:	9200      	str	r2, [sp, #0]
 8001292:	4663      	mov	r3, ip
 8001294:	4a2c      	ldr	r2, [pc, #176]	; (8001348 <main+0x3c0>)
 8001296:	492d      	ldr	r1, [pc, #180]	; (800134c <main+0x3c4>)
 8001298:	4823      	ldr	r0, [pc, #140]	; (8001328 <main+0x3a0>)
 800129a:	f003 fb6b 	bl	8004974 <siprintf>
		  HAL_UART_Transmit(&huart1, (uint8_t* )Message, strlen(Message), strlen(Message));
 800129e:	4822      	ldr	r0, [pc, #136]	; (8001328 <main+0x3a0>)
 80012a0:	f7fe ff96 	bl	80001d0 <strlen>
 80012a4:	4603      	mov	r3, r0
 80012a6:	b29c      	uxth	r4, r3
 80012a8:	481f      	ldr	r0, [pc, #124]	; (8001328 <main+0x3a0>)
 80012aa:	f7fe ff91 	bl	80001d0 <strlen>
 80012ae:	4603      	mov	r3, r0
 80012b0:	4622      	mov	r2, r4
 80012b2:	491d      	ldr	r1, [pc, #116]	; (8001328 <main+0x3a0>)
 80012b4:	481d      	ldr	r0, [pc, #116]	; (800132c <main+0x3a4>)
 80012b6:	f002 fcca 	bl	8003c4e <HAL_UART_Transmit>
		  GetAlarm = 0;
 80012ba:	4b1e      	ldr	r3, [pc, #120]	; (8001334 <main+0x3ac>)
 80012bc:	2200      	movs	r2, #0
 80012be:	701a      	strb	r2, [r3, #0]
	  }

//	  1000 milliseconds is just a time, taken from nothing, during that RX interrupts will be disabled
	  NowTime = HAL_GetTick();
 80012c0:	f000 fd38 	bl	8001d34 <HAL_GetTick>
 80012c4:	4603      	mov	r3, r0
 80012c6:	4a22      	ldr	r2, [pc, #136]	; (8001350 <main+0x3c8>)
 80012c8:	6013      	str	r3, [r2, #0]
	  if ((CharCounter >= 1) && (NowTime - MessageTimer > 1000))
 80012ca:	4b22      	ldr	r3, [pc, #136]	; (8001354 <main+0x3cc>)
 80012cc:	781b      	ldrb	r3, [r3, #0]
 80012ce:	2b00      	cmp	r3, #0
 80012d0:	d023      	beq.n	800131a <main+0x392>
 80012d2:	4b1f      	ldr	r3, [pc, #124]	; (8001350 <main+0x3c8>)
 80012d4:	681a      	ldr	r2, [r3, #0]
 80012d6:	4b20      	ldr	r3, [pc, #128]	; (8001358 <main+0x3d0>)
 80012d8:	681b      	ldr	r3, [r3, #0]
 80012da:	1ad3      	subs	r3, r2, r3
 80012dc:	f5b3 7f7a 	cmp.w	r3, #1000	; 0x3e8
 80012e0:	d91b      	bls.n	800131a <main+0x392>
	  {
		  CharCounter = 0;
 80012e2:	4b1c      	ldr	r3, [pc, #112]	; (8001354 <main+0x3cc>)
 80012e4:	2200      	movs	r2, #0
 80012e6:	701a      	strb	r2, [r3, #0]
		  __HAL_UART_CLEAR_OREFLAG(&huart1);
 80012e8:	2300      	movs	r3, #0
 80012ea:	607b      	str	r3, [r7, #4]
 80012ec:	4b0f      	ldr	r3, [pc, #60]	; (800132c <main+0x3a4>)
 80012ee:	681b      	ldr	r3, [r3, #0]
 80012f0:	681b      	ldr	r3, [r3, #0]
 80012f2:	607b      	str	r3, [r7, #4]
 80012f4:	4b0d      	ldr	r3, [pc, #52]	; (800132c <main+0x3a4>)
 80012f6:	681b      	ldr	r3, [r3, #0]
 80012f8:	685b      	ldr	r3, [r3, #4]
 80012fa:	607b      	str	r3, [r7, #4]
 80012fc:	687b      	ldr	r3, [r7, #4]
		  __HAL_UART_ENABLE_IT(&huart1, UART_IT_RXNE);
 80012fe:	4b0b      	ldr	r3, [pc, #44]	; (800132c <main+0x3a4>)
 8001300:	681b      	ldr	r3, [r3, #0]
 8001302:	68da      	ldr	r2, [r3, #12]
 8001304:	4b09      	ldr	r3, [pc, #36]	; (800132c <main+0x3a4>)
 8001306:	681b      	ldr	r3, [r3, #0]
 8001308:	f042 0220 	orr.w	r2, r2, #32
 800130c:	60da      	str	r2, [r3, #12]
		  HappyToggling(30);
 800130e:	201e      	movs	r0, #30
 8001310:	f7ff fb54 	bl	80009bc <HappyToggling>
		  MessageTimer = 0;
 8001314:	4b10      	ldr	r3, [pc, #64]	; (8001358 <main+0x3d0>)
 8001316:	2200      	movs	r2, #0
 8001318:	601a      	str	r2, [r3, #0]
	  }

	  Rewind5Sec();
 800131a:	f7ff fd95 	bl	8000e48 <Rewind5Sec>
	  Forwardd5Sec();
 800131e:	f7ff fdd3 	bl	8000ec8 <Forwardd5Sec>
	  if (HAL_GPIO_ReadPin(MagnetDoor_GPIO_Port, MagnetDoor_Pin) == 0)
 8001322:	e658      	b.n	8000fd6 <main+0x4e>
 8001324:	08005398 	.word	0x08005398
 8001328:	20000140 	.word	0x20000140
 800132c:	2000019c 	.word	0x2000019c
 8001330:	20000100 	.word	0x20000100
 8001334:	20000101 	.word	0x20000101
 8001338:	20000118 	.word	0x20000118
 800133c:	200001e4 	.word	0x200001e4
 8001340:	20000188 	.word	0x20000188
 8001344:	20000110 	.word	0x20000110
 8001348:	20000038 	.word	0x20000038
 800134c:	080053c8 	.word	0x080053c8
 8001350:	200000f4 	.word	0x200000f4
 8001354:	200000f9 	.word	0x200000f9
 8001358:	200000fc 	.word	0x200000fc

0800135c <SystemClock_Config>:
/**
  * @brief System Clock Configuration
  * @retval None
  */
void SystemClock_Config(void)
{
 800135c:	b580      	push	{r7, lr}
 800135e:	b098      	sub	sp, #96	; 0x60
 8001360:	af00      	add	r7, sp, #0
  RCC_OscInitTypeDef RCC_OscInitStruct = {0};
 8001362:	f107 0330 	add.w	r3, r7, #48	; 0x30
 8001366:	2230      	movs	r2, #48	; 0x30
 8001368:	2100      	movs	r1, #0
 800136a:	4618      	mov	r0, r3
 800136c:	f003 fafa 	bl	8004964 <memset>
  RCC_ClkInitTypeDef RCC_ClkInitStruct = {0};
 8001370:	f107 031c 	add.w	r3, r7, #28
 8001374:	2200      	movs	r2, #0
 8001376:	601a      	str	r2, [r3, #0]
 8001378:	605a      	str	r2, [r3, #4]
 800137a:	609a      	str	r2, [r3, #8]
 800137c:	60da      	str	r2, [r3, #12]
 800137e:	611a      	str	r2, [r3, #16]
  RCC_PeriphCLKInitTypeDef PeriphClkInitStruct = {0};
 8001380:	f107 030c 	add.w	r3, r7, #12
 8001384:	2200      	movs	r2, #0
 8001386:	601a      	str	r2, [r3, #0]
 8001388:	605a      	str	r2, [r3, #4]
 800138a:	609a      	str	r2, [r3, #8]
 800138c:	60da      	str	r2, [r3, #12]

  /** Configure the main internal regulator output voltage
  */
  __HAL_RCC_PWR_CLK_ENABLE();
 800138e:	2300      	movs	r3, #0
 8001390:	60bb      	str	r3, [r7, #8]
 8001392:	4b2b      	ldr	r3, [pc, #172]	; (8001440 <SystemClock_Config+0xe4>)
 8001394:	6c1b      	ldr	r3, [r3, #64]	; 0x40
 8001396:	4a2a      	ldr	r2, [pc, #168]	; (8001440 <SystemClock_Config+0xe4>)
 8001398:	f043 5380 	orr.w	r3, r3, #268435456	; 0x10000000
 800139c:	6413      	str	r3, [r2, #64]	; 0x40
 800139e:	4b28      	ldr	r3, [pc, #160]	; (8001440 <SystemClock_Config+0xe4>)
 80013a0:	6c1b      	ldr	r3, [r3, #64]	; 0x40
 80013a2:	f003 5380 	and.w	r3, r3, #268435456	; 0x10000000
 80013a6:	60bb      	str	r3, [r7, #8]
 80013a8:	68bb      	ldr	r3, [r7, #8]
  __HAL_PWR_VOLTAGESCALING_CONFIG(PWR_REGULATOR_VOLTAGE_SCALE1);
 80013aa:	2300      	movs	r3, #0
 80013ac:	607b      	str	r3, [r7, #4]
 80013ae:	4b25      	ldr	r3, [pc, #148]	; (8001444 <SystemClock_Config+0xe8>)
 80013b0:	681b      	ldr	r3, [r3, #0]
 80013b2:	4a24      	ldr	r2, [pc, #144]	; (8001444 <SystemClock_Config+0xe8>)
 80013b4:	f443 4380 	orr.w	r3, r3, #16384	; 0x4000
 80013b8:	6013      	str	r3, [r2, #0]
 80013ba:	4b22      	ldr	r3, [pc, #136]	; (8001444 <SystemClock_Config+0xe8>)
 80013bc:	681b      	ldr	r3, [r3, #0]
 80013be:	f403 4380 	and.w	r3, r3, #16384	; 0x4000
 80013c2:	607b      	str	r3, [r7, #4]
 80013c4:	687b      	ldr	r3, [r7, #4]
  /** Initializes the RCC Oscillators according to the specified parameters
  * in the RCC_OscInitTypeDef structure.
  */
  RCC_OscInitStruct.OscillatorType = RCC_OSCILLATORTYPE_HSI|RCC_OSCILLATORTYPE_LSE;
 80013c6:	2306      	movs	r3, #6
 80013c8:	633b      	str	r3, [r7, #48]	; 0x30
  RCC_OscInitStruct.LSEState = RCC_LSE_ON;
 80013ca:	2301      	movs	r3, #1
 80013cc:	63bb      	str	r3, [r7, #56]	; 0x38
  RCC_OscInitStruct.HSIState = RCC_HSI_ON;
 80013ce:	2301      	movs	r3, #1
 80013d0:	63fb      	str	r3, [r7, #60]	; 0x3c
  RCC_OscInitStruct.HSICalibrationValue = RCC_HSICALIBRATION_DEFAULT;
 80013d2:	2310      	movs	r3, #16
 80013d4:	643b      	str	r3, [r7, #64]	; 0x40
  RCC_OscInitStruct.PLL.PLLState = RCC_PLL_NONE;
 80013d6:	2300      	movs	r3, #0
 80013d8:	64bb      	str	r3, [r7, #72]	; 0x48
  if (HAL_RCC_OscConfig(&RCC_OscInitStruct) != HAL_OK)
 80013da:	f107 0330 	add.w	r3, r7, #48	; 0x30
 80013de:	4618      	mov	r0, r3
 80013e0:	f001 f8ba 	bl	8002558 <HAL_RCC_OscConfig>
 80013e4:	4603      	mov	r3, r0
 80013e6:	2b00      	cmp	r3, #0
 80013e8:	d001      	beq.n	80013ee <SystemClock_Config+0x92>
  {
    Error_Handler();
 80013ea:	f000 f94d 	bl	8001688 <Error_Handler>
  }
  /** Initializes the CPU, AHB and APB buses clocks
  */
  RCC_ClkInitStruct.ClockType = RCC_CLOCKTYPE_HCLK|RCC_CLOCKTYPE_SYSCLK
 80013ee:	230f      	movs	r3, #15
 80013f0:	61fb      	str	r3, [r7, #28]
                              |RCC_CLOCKTYPE_PCLK1|RCC_CLOCKTYPE_PCLK2;
  RCC_ClkInitStruct.SYSCLKSource = RCC_SYSCLKSOURCE_HSI;
 80013f2:	2300      	movs	r3, #0
 80013f4:	623b      	str	r3, [r7, #32]
  RCC_ClkInitStruct.AHBCLKDivider = RCC_SYSCLK_DIV1;
 80013f6:	2300      	movs	r3, #0
 80013f8:	627b      	str	r3, [r7, #36]	; 0x24
  RCC_ClkInitStruct.APB1CLKDivider = RCC_HCLK_DIV1;
 80013fa:	2300      	movs	r3, #0
 80013fc:	62bb      	str	r3, [r7, #40]	; 0x28
  RCC_ClkInitStruct.APB2CLKDivider = RCC_HCLK_DIV1;
 80013fe:	2300      	movs	r3, #0
 8001400:	62fb      	str	r3, [r7, #44]	; 0x2c

  if (HAL_RCC_ClockConfig(&RCC_ClkInitStruct, FLASH_LATENCY_0) != HAL_OK)
 8001402:	f107 031c 	add.w	r3, r7, #28
 8001406:	2100      	movs	r1, #0
 8001408:	4618      	mov	r0, r3
 800140a:	f001 fb1d 	bl	8002a48 <HAL_RCC_ClockConfig>
 800140e:	4603      	mov	r3, r0
 8001410:	2b00      	cmp	r3, #0
 8001412:	d001      	beq.n	8001418 <SystemClock_Config+0xbc>
  {
    Error_Handler();
 8001414:	f000 f938 	bl	8001688 <Error_Handler>
  }
  PeriphClkInitStruct.PeriphClockSelection = RCC_PERIPHCLK_RTC;
 8001418:	2302      	movs	r3, #2
 800141a:	60fb      	str	r3, [r7, #12]
  PeriphClkInitStruct.RTCClockSelection = RCC_RTCCLKSOURCE_LSE;
 800141c:	f44f 7380 	mov.w	r3, #256	; 0x100
 8001420:	61bb      	str	r3, [r7, #24]
  if (HAL_RCCEx_PeriphCLKConfig(&PeriphClkInitStruct) != HAL_OK)
 8001422:	f107 030c 	add.w	r3, r7, #12
 8001426:	4618      	mov	r0, r3
 8001428:	f001 fd0a 	bl	8002e40 <HAL_RCCEx_PeriphCLKConfig>
 800142c:	4603      	mov	r3, r0
 800142e:	2b00      	cmp	r3, #0
 8001430:	d001      	beq.n	8001436 <SystemClock_Config+0xda>
  {
    Error_Handler();
 8001432:	f000 f929 	bl	8001688 <Error_Handler>
  }
}
 8001436:	bf00      	nop
 8001438:	3760      	adds	r7, #96	; 0x60
 800143a:	46bd      	mov	sp, r7
 800143c:	bd80      	pop	{r7, pc}
 800143e:	bf00      	nop
 8001440:	40023800 	.word	0x40023800
 8001444:	40007000 	.word	0x40007000

08001448 <MX_RTC_Init>:
  * @brief RTC Initialization Function
  * @param None
  * @retval None
  */
static void MX_RTC_Init(void)
{
 8001448:	b580      	push	{r7, lr}
 800144a:	af00      	add	r7, sp, #0
  /* USER CODE BEGIN RTC_Init 1 */

  /* USER CODE END RTC_Init 1 */
  /** Initialize RTC Only
  */
  hrtc.Instance = RTC;
 800144c:	4b0f      	ldr	r3, [pc, #60]	; (800148c <MX_RTC_Init+0x44>)
 800144e:	4a10      	ldr	r2, [pc, #64]	; (8001490 <MX_RTC_Init+0x48>)
 8001450:	601a      	str	r2, [r3, #0]
  hrtc.Init.HourFormat = RTC_HOURFORMAT_24;
 8001452:	4b0e      	ldr	r3, [pc, #56]	; (800148c <MX_RTC_Init+0x44>)
 8001454:	2200      	movs	r2, #0
 8001456:	605a      	str	r2, [r3, #4]
  hrtc.Init.AsynchPrediv = 127;
 8001458:	4b0c      	ldr	r3, [pc, #48]	; (800148c <MX_RTC_Init+0x44>)
 800145a:	227f      	movs	r2, #127	; 0x7f
 800145c:	609a      	str	r2, [r3, #8]
  hrtc.Init.SynchPrediv = 255;
 800145e:	4b0b      	ldr	r3, [pc, #44]	; (800148c <MX_RTC_Init+0x44>)
 8001460:	22ff      	movs	r2, #255	; 0xff
 8001462:	60da      	str	r2, [r3, #12]
  hrtc.Init.OutPut = RTC_OUTPUT_DISABLE;
 8001464:	4b09      	ldr	r3, [pc, #36]	; (800148c <MX_RTC_Init+0x44>)
 8001466:	2200      	movs	r2, #0
 8001468:	611a      	str	r2, [r3, #16]
  hrtc.Init.OutPutPolarity = RTC_OUTPUT_POLARITY_HIGH;
 800146a:	4b08      	ldr	r3, [pc, #32]	; (800148c <MX_RTC_Init+0x44>)
 800146c:	2200      	movs	r2, #0
 800146e:	615a      	str	r2, [r3, #20]
  hrtc.Init.OutPutType = RTC_OUTPUT_TYPE_OPENDRAIN;
 8001470:	4b06      	ldr	r3, [pc, #24]	; (800148c <MX_RTC_Init+0x44>)
 8001472:	2200      	movs	r2, #0
 8001474:	619a      	str	r2, [r3, #24]
  if (HAL_RTC_Init(&hrtc) != HAL_OK)
 8001476:	4805      	ldr	r0, [pc, #20]	; (800148c <MX_RTC_Init+0x44>)
 8001478:	f001 fdc4 	bl	8003004 <HAL_RTC_Init>
 800147c:	4603      	mov	r3, r0
 800147e:	2b00      	cmp	r3, #0
 8001480:	d001      	beq.n	8001486 <MX_RTC_Init+0x3e>
  {
    Error_Handler();
 8001482:	f000 f901 	bl	8001688 <Error_Handler>
//  }
  /* USER CODE BEGIN RTC_Init 2 */

  /* USER CODE END RTC_Init 2 */

}
 8001486:	bf00      	nop
 8001488:	bd80      	pop	{r7, pc}
 800148a:	bf00      	nop
 800148c:	200001e4 	.word	0x200001e4
 8001490:	40002800 	.word	0x40002800

08001494 <MX_USART1_UART_Init>:
  * @brief USART1 Initialization Function
  * @param None
  * @retval None
  */
static void MX_USART1_UART_Init(void)
{
 8001494:	b580      	push	{r7, lr}
 8001496:	af00      	add	r7, sp, #0
  /* USER CODE END USART1_Init 0 */

  /* USER CODE BEGIN USART1_Init 1 */

  /* USER CODE END USART1_Init 1 */
  huart1.Instance = USART1;
 8001498:	4b11      	ldr	r3, [pc, #68]	; (80014e0 <MX_USART1_UART_Init+0x4c>)
 800149a:	4a12      	ldr	r2, [pc, #72]	; (80014e4 <MX_USART1_UART_Init+0x50>)
 800149c:	601a      	str	r2, [r3, #0]
  huart1.Init.BaudRate = 9600;
 800149e:	4b10      	ldr	r3, [pc, #64]	; (80014e0 <MX_USART1_UART_Init+0x4c>)
 80014a0:	f44f 5216 	mov.w	r2, #9600	; 0x2580
 80014a4:	605a      	str	r2, [r3, #4]
  huart1.Init.WordLength = UART_WORDLENGTH_8B;
 80014a6:	4b0e      	ldr	r3, [pc, #56]	; (80014e0 <MX_USART1_UART_Init+0x4c>)
 80014a8:	2200      	movs	r2, #0
 80014aa:	609a      	str	r2, [r3, #8]
  huart1.Init.StopBits = UART_STOPBITS_1;
 80014ac:	4b0c      	ldr	r3, [pc, #48]	; (80014e0 <MX_USART1_UART_Init+0x4c>)
 80014ae:	2200      	movs	r2, #0
 80014b0:	60da      	str	r2, [r3, #12]
  huart1.Init.Parity = UART_PARITY_NONE;
 80014b2:	4b0b      	ldr	r3, [pc, #44]	; (80014e0 <MX_USART1_UART_Init+0x4c>)
 80014b4:	2200      	movs	r2, #0
 80014b6:	611a      	str	r2, [r3, #16]
  huart1.Init.Mode = UART_MODE_TX_RX;
 80014b8:	4b09      	ldr	r3, [pc, #36]	; (80014e0 <MX_USART1_UART_Init+0x4c>)
 80014ba:	220c      	movs	r2, #12
 80014bc:	615a      	str	r2, [r3, #20]
  huart1.Init.HwFlowCtl = UART_HWCONTROL_NONE;
 80014be:	4b08      	ldr	r3, [pc, #32]	; (80014e0 <MX_USART1_UART_Init+0x4c>)
 80014c0:	2200      	movs	r2, #0
 80014c2:	619a      	str	r2, [r3, #24]
  huart1.Init.OverSampling = UART_OVERSAMPLING_16;
 80014c4:	4b06      	ldr	r3, [pc, #24]	; (80014e0 <MX_USART1_UART_Init+0x4c>)
 80014c6:	2200      	movs	r2, #0
 80014c8:	61da      	str	r2, [r3, #28]
  if (HAL_UART_Init(&huart1) != HAL_OK)
 80014ca:	4805      	ldr	r0, [pc, #20]	; (80014e0 <MX_USART1_UART_Init+0x4c>)
 80014cc:	f002 fb72 	bl	8003bb4 <HAL_UART_Init>
 80014d0:	4603      	mov	r3, r0
 80014d2:	2b00      	cmp	r3, #0
 80014d4:	d001      	beq.n	80014da <MX_USART1_UART_Init+0x46>
  {
    Error_Handler();
 80014d6:	f000 f8d7 	bl	8001688 <Error_Handler>
  }
  /* USER CODE BEGIN USART1_Init 2 */

  /* USER CODE END USART1_Init 2 */

}
 80014da:	bf00      	nop
 80014dc:	bd80      	pop	{r7, pc}
 80014de:	bf00      	nop
 80014e0:	2000019c 	.word	0x2000019c
 80014e4:	40011000 	.word	0x40011000

080014e8 <MX_GPIO_Init>:
  * @brief GPIO Initialization Function
  * @param None
  * @retval None
  */
static void MX_GPIO_Init(void)
{
 80014e8:	b580      	push	{r7, lr}
 80014ea:	b08c      	sub	sp, #48	; 0x30
 80014ec:	af00      	add	r7, sp, #0
  GPIO_InitTypeDef GPIO_InitStruct = {0};
 80014ee:	f107 031c 	add.w	r3, r7, #28
 80014f2:	2200      	movs	r2, #0
 80014f4:	601a      	str	r2, [r3, #0]
 80014f6:	605a      	str	r2, [r3, #4]
 80014f8:	609a      	str	r2, [r3, #8]
 80014fa:	60da      	str	r2, [r3, #12]
 80014fc:	611a      	str	r2, [r3, #16]

  /* GPIO Ports Clock Enable */
  __HAL_RCC_GPIOE_CLK_ENABLE();
 80014fe:	2300      	movs	r3, #0
 8001500:	61bb      	str	r3, [r7, #24]
 8001502:	4b5b      	ldr	r3, [pc, #364]	; (8001670 <MX_GPIO_Init+0x188>)
 8001504:	6b1b      	ldr	r3, [r3, #48]	; 0x30
 8001506:	4a5a      	ldr	r2, [pc, #360]	; (8001670 <MX_GPIO_Init+0x188>)
 8001508:	f043 0310 	orr.w	r3, r3, #16
 800150c:	6313      	str	r3, [r2, #48]	; 0x30
 800150e:	4b58      	ldr	r3, [pc, #352]	; (8001670 <MX_GPIO_Init+0x188>)
 8001510:	6b1b      	ldr	r3, [r3, #48]	; 0x30
 8001512:	f003 0310 	and.w	r3, r3, #16
 8001516:	61bb      	str	r3, [r7, #24]
 8001518:	69bb      	ldr	r3, [r7, #24]
  __HAL_RCC_GPIOC_CLK_ENABLE();
 800151a:	2300      	movs	r3, #0
 800151c:	617b      	str	r3, [r7, #20]
 800151e:	4b54      	ldr	r3, [pc, #336]	; (8001670 <MX_GPIO_Init+0x188>)
 8001520:	6b1b      	ldr	r3, [r3, #48]	; 0x30
 8001522:	4a53      	ldr	r2, [pc, #332]	; (8001670 <MX_GPIO_Init+0x188>)
 8001524:	f043 0304 	orr.w	r3, r3, #4
 8001528:	6313      	str	r3, [r2, #48]	; 0x30
 800152a:	4b51      	ldr	r3, [pc, #324]	; (8001670 <MX_GPIO_Init+0x188>)
 800152c:	6b1b      	ldr	r3, [r3, #48]	; 0x30
 800152e:	f003 0304 	and.w	r3, r3, #4
 8001532:	617b      	str	r3, [r7, #20]
 8001534:	697b      	ldr	r3, [r7, #20]
  __HAL_RCC_GPIOF_CLK_ENABLE();
 8001536:	2300      	movs	r3, #0
 8001538:	613b      	str	r3, [r7, #16]
 800153a:	4b4d      	ldr	r3, [pc, #308]	; (8001670 <MX_GPIO_Init+0x188>)
 800153c:	6b1b      	ldr	r3, [r3, #48]	; 0x30
 800153e:	4a4c      	ldr	r2, [pc, #304]	; (8001670 <MX_GPIO_Init+0x188>)
 8001540:	f043 0320 	orr.w	r3, r3, #32
 8001544:	6313      	str	r3, [r2, #48]	; 0x30
 8001546:	4b4a      	ldr	r3, [pc, #296]	; (8001670 <MX_GPIO_Init+0x188>)
 8001548:	6b1b      	ldr	r3, [r3, #48]	; 0x30
 800154a:	f003 0320 	and.w	r3, r3, #32
 800154e:	613b      	str	r3, [r7, #16]
 8001550:	693b      	ldr	r3, [r7, #16]
  __HAL_RCC_GPIOH_CLK_ENABLE();
 8001552:	2300      	movs	r3, #0
 8001554:	60fb      	str	r3, [r7, #12]
 8001556:	4b46      	ldr	r3, [pc, #280]	; (8001670 <MX_GPIO_Init+0x188>)
 8001558:	6b1b      	ldr	r3, [r3, #48]	; 0x30
 800155a:	4a45      	ldr	r2, [pc, #276]	; (8001670 <MX_GPIO_Init+0x188>)
 800155c:	f043 0380 	orr.w	r3, r3, #128	; 0x80
 8001560:	6313      	str	r3, [r2, #48]	; 0x30
 8001562:	4b43      	ldr	r3, [pc, #268]	; (8001670 <MX_GPIO_Init+0x188>)
 8001564:	6b1b      	ldr	r3, [r3, #48]	; 0x30
 8001566:	f003 0380 	and.w	r3, r3, #128	; 0x80
 800156a:	60fb      	str	r3, [r7, #12]
 800156c:	68fb      	ldr	r3, [r7, #12]
  __HAL_RCC_GPIOB_CLK_ENABLE();
 800156e:	2300      	movs	r3, #0
 8001570:	60bb      	str	r3, [r7, #8]
 8001572:	4b3f      	ldr	r3, [pc, #252]	; (8001670 <MX_GPIO_Init+0x188>)
 8001574:	6b1b      	ldr	r3, [r3, #48]	; 0x30
 8001576:	4a3e      	ldr	r2, [pc, #248]	; (8001670 <MX_GPIO_Init+0x188>)
 8001578:	f043 0302 	orr.w	r3, r3, #2
 800157c:	6313      	str	r3, [r2, #48]	; 0x30
 800157e:	4b3c      	ldr	r3, [pc, #240]	; (8001670 <MX_GPIO_Init+0x188>)
 8001580:	6b1b      	ldr	r3, [r3, #48]	; 0x30
 8001582:	f003 0302 	and.w	r3, r3, #2
 8001586:	60bb      	str	r3, [r7, #8]
 8001588:	68bb      	ldr	r3, [r7, #8]
  __HAL_RCC_GPIOG_CLK_ENABLE();
 800158a:	2300      	movs	r3, #0
 800158c:	607b      	str	r3, [r7, #4]
 800158e:	4b38      	ldr	r3, [pc, #224]	; (8001670 <MX_GPIO_Init+0x188>)
 8001590:	6b1b      	ldr	r3, [r3, #48]	; 0x30
 8001592:	4a37      	ldr	r2, [pc, #220]	; (8001670 <MX_GPIO_Init+0x188>)
 8001594:	f043 0340 	orr.w	r3, r3, #64	; 0x40
 8001598:	6313      	str	r3, [r2, #48]	; 0x30
 800159a:	4b35      	ldr	r3, [pc, #212]	; (8001670 <MX_GPIO_Init+0x188>)
 800159c:	6b1b      	ldr	r3, [r3, #48]	; 0x30
 800159e:	f003 0340 	and.w	r3, r3, #64	; 0x40
 80015a2:	607b      	str	r3, [r7, #4]
 80015a4:	687b      	ldr	r3, [r7, #4]
  __HAL_RCC_GPIOA_CLK_ENABLE();
 80015a6:	2300      	movs	r3, #0
 80015a8:	603b      	str	r3, [r7, #0]
 80015aa:	4b31      	ldr	r3, [pc, #196]	; (8001670 <MX_GPIO_Init+0x188>)
 80015ac:	6b1b      	ldr	r3, [r3, #48]	; 0x30
 80015ae:	4a30      	ldr	r2, [pc, #192]	; (8001670 <MX_GPIO_Init+0x188>)
 80015b0:	f043 0301 	orr.w	r3, r3, #1
 80015b4:	6313      	str	r3, [r2, #48]	; 0x30
 80015b6:	4b2e      	ldr	r3, [pc, #184]	; (8001670 <MX_GPIO_Init+0x188>)
 80015b8:	6b1b      	ldr	r3, [r3, #48]	; 0x30
 80015ba:	f003 0301 	and.w	r3, r3, #1
 80015be:	603b      	str	r3, [r7, #0]
 80015c0:	683b      	ldr	r3, [r7, #0]

  /*Configure GPIO pin Output Level */
  HAL_GPIO_WritePin(GPIOF, LED0_Pin|LED1_Pin, GPIO_PIN_RESET);
 80015c2:	2200      	movs	r2, #0
 80015c4:	f44f 61c0 	mov.w	r1, #1536	; 0x600
 80015c8:	482a      	ldr	r0, [pc, #168]	; (8001674 <MX_GPIO_Init+0x18c>)
 80015ca:	f000 ff6d 	bl	80024a8 <HAL_GPIO_WritePin>

  /*Configure GPIO pin Output Level */
  HAL_GPIO_WritePin(OpenDoor_GPIO_Port, OpenDoor_Pin, GPIO_PIN_SET);
 80015ce:	2201      	movs	r2, #1
 80015d0:	f44f 5180 	mov.w	r1, #4096	; 0x1000
 80015d4:	4828      	ldr	r0, [pc, #160]	; (8001678 <MX_GPIO_Init+0x190>)
 80015d6:	f000 ff67 	bl	80024a8 <HAL_GPIO_WritePin>

  /*Configure GPIO pins : KEY1_Pin KEY0_Pin */
  GPIO_InitStruct.Pin = KEY1_Pin|KEY0_Pin;
 80015da:	2318      	movs	r3, #24
 80015dc:	61fb      	str	r3, [r7, #28]
  GPIO_InitStruct.Mode = GPIO_MODE_IT_RISING;
 80015de:	4b27      	ldr	r3, [pc, #156]	; (800167c <MX_GPIO_Init+0x194>)
 80015e0:	623b      	str	r3, [r7, #32]
  GPIO_InitStruct.Pull = GPIO_PULLUP;
 80015e2:	2301      	movs	r3, #1
 80015e4:	627b      	str	r3, [r7, #36]	; 0x24
  HAL_GPIO_Init(GPIOE, &GPIO_InitStruct);
 80015e6:	f107 031c 	add.w	r3, r7, #28
 80015ea:	4619      	mov	r1, r3
 80015ec:	4824      	ldr	r0, [pc, #144]	; (8001680 <MX_GPIO_Init+0x198>)
 80015ee:	f000 fda7 	bl	8002140 <HAL_GPIO_Init>

  /*Configure GPIO pins : LED0_Pin LED1_Pin */
  GPIO_InitStruct.Pin = LED0_Pin|LED1_Pin;
 80015f2:	f44f 63c0 	mov.w	r3, #1536	; 0x600
 80015f6:	61fb      	str	r3, [r7, #28]
  GPIO_InitStruct.Mode = GPIO_MODE_OUTPUT_OD;
 80015f8:	2311      	movs	r3, #17
 80015fa:	623b      	str	r3, [r7, #32]
  GPIO_InitStruct.Pull = GPIO_NOPULL;
 80015fc:	2300      	movs	r3, #0
 80015fe:	627b      	str	r3, [r7, #36]	; 0x24
  GPIO_InitStruct.Speed = GPIO_SPEED_FREQ_LOW;
 8001600:	2300      	movs	r3, #0
 8001602:	62bb      	str	r3, [r7, #40]	; 0x28
  HAL_GPIO_Init(GPIOF, &GPIO_InitStruct);
 8001604:	f107 031c 	add.w	r3, r7, #28
 8001608:	4619      	mov	r1, r3
 800160a:	481a      	ldr	r0, [pc, #104]	; (8001674 <MX_GPIO_Init+0x18c>)
 800160c:	f000 fd98 	bl	8002140 <HAL_GPIO_Init>

  /*Configure GPIO pin : OpenDoor_Pin */
  GPIO_InitStruct.Pin = OpenDoor_Pin;
 8001610:	f44f 5380 	mov.w	r3, #4096	; 0x1000
 8001614:	61fb      	str	r3, [r7, #28]
  GPIO_InitStruct.Mode = GPIO_MODE_OUTPUT_OD;
 8001616:	2311      	movs	r3, #17
 8001618:	623b      	str	r3, [r7, #32]
  GPIO_InitStruct.Pull = GPIO_NOPULL;
 800161a:	2300      	movs	r3, #0
 800161c:	627b      	str	r3, [r7, #36]	; 0x24
  GPIO_InitStruct.Speed = GPIO_SPEED_FREQ_LOW;
 800161e:	2300      	movs	r3, #0
 8001620:	62bb      	str	r3, [r7, #40]	; 0x28
  HAL_GPIO_Init(OpenDoor_GPIO_Port, &GPIO_InitStruct);
 8001622:	f107 031c 	add.w	r3, r7, #28
 8001626:	4619      	mov	r1, r3
 8001628:	4813      	ldr	r0, [pc, #76]	; (8001678 <MX_GPIO_Init+0x190>)
 800162a:	f000 fd89 	bl	8002140 <HAL_GPIO_Init>

  /*Configure GPIO pin : MagnetDoor_Pin */
  GPIO_InitStruct.Pin = MagnetDoor_Pin;
 800162e:	f44f 7380 	mov.w	r3, #256	; 0x100
 8001632:	61fb      	str	r3, [r7, #28]
  GPIO_InitStruct.Mode = GPIO_MODE_INPUT;
 8001634:	2300      	movs	r3, #0
 8001636:	623b      	str	r3, [r7, #32]
  GPIO_InitStruct.Pull = GPIO_PULLUP;
 8001638:	2301      	movs	r3, #1
 800163a:	627b      	str	r3, [r7, #36]	; 0x24
  HAL_GPIO_Init(MagnetDoor_GPIO_Port, &GPIO_InitStruct);
 800163c:	f107 031c 	add.w	r3, r7, #28
 8001640:	4619      	mov	r1, r3
 8001642:	4810      	ldr	r0, [pc, #64]	; (8001684 <MX_GPIO_Init+0x19c>)
 8001644:	f000 fd7c 	bl	8002140 <HAL_GPIO_Init>

  /* EXTI interrupt init*/
  HAL_NVIC_SetPriority(EXTI3_IRQn, 2, 0);
 8001648:	2200      	movs	r2, #0
 800164a:	2102      	movs	r1, #2
 800164c:	2009      	movs	r0, #9
 800164e:	f000 fca0 	bl	8001f92 <HAL_NVIC_SetPriority>
  HAL_NVIC_EnableIRQ(EXTI3_IRQn);
 8001652:	2009      	movs	r0, #9
 8001654:	f000 fcb9 	bl	8001fca <HAL_NVIC_EnableIRQ>

  HAL_NVIC_SetPriority(EXTI4_IRQn, 2, 0);
 8001658:	2200      	movs	r2, #0
 800165a:	2102      	movs	r1, #2
 800165c:	200a      	movs	r0, #10
 800165e:	f000 fc98 	bl	8001f92 <HAL_NVIC_SetPriority>
  HAL_NVIC_EnableIRQ(EXTI4_IRQn);
 8001662:	200a      	movs	r0, #10
 8001664:	f000 fcb1 	bl	8001fca <HAL_NVIC_EnableIRQ>

}
 8001668:	bf00      	nop
 800166a:	3730      	adds	r7, #48	; 0x30
 800166c:	46bd      	mov	sp, r7
 800166e:	bd80      	pop	{r7, pc}
 8001670:	40023800 	.word	0x40023800
 8001674:	40021400 	.word	0x40021400
 8001678:	40020400 	.word	0x40020400
 800167c:	10110000 	.word	0x10110000
 8001680:	40021000 	.word	0x40021000
 8001684:	40021800 	.word	0x40021800

08001688 <Error_Handler>:
/**
  * @brief  This function is executed in case of error occurrence.
  * @retval None
  */
void Error_Handler(void)
{
 8001688:	b480      	push	{r7}
 800168a:	af00      	add	r7, sp, #0
  \details Disables IRQ interrupts by setting the I-bit in the CPSR.
           Can only be executed in Privileged modes.
 */
__STATIC_FORCEINLINE void __disable_irq(void)
{
  __ASM volatile ("cpsid i" : : : "memory");
 800168c:	b672      	cpsid	i
}
 800168e:	bf00      	nop
  /* USER CODE BEGIN Error_Handler_Debug */
  /* User can add his own implementation to report the HAL error return state */
  __disable_irq();
  while (1)
 8001690:	e7fe      	b.n	8001690 <Error_Handler+0x8>
	...

08001694 <HAL_MspInit>:
/* USER CODE END 0 */
/**
  * Initializes the Global MSP.
  */
void HAL_MspInit(void)
{
 8001694:	b480      	push	{r7}
 8001696:	b083      	sub	sp, #12
 8001698:	af00      	add	r7, sp, #0
  /* USER CODE BEGIN MspInit 0 */

  /* USER CODE END MspInit 0 */

  __HAL_RCC_SYSCFG_CLK_ENABLE();
 800169a:	2300      	movs	r3, #0
 800169c:	607b      	str	r3, [r7, #4]
 800169e:	4b10      	ldr	r3, [pc, #64]	; (80016e0 <HAL_MspInit+0x4c>)
 80016a0:	6c5b      	ldr	r3, [r3, #68]	; 0x44
 80016a2:	4a0f      	ldr	r2, [pc, #60]	; (80016e0 <HAL_MspInit+0x4c>)
 80016a4:	f443 4380 	orr.w	r3, r3, #16384	; 0x4000
 80016a8:	6453      	str	r3, [r2, #68]	; 0x44
 80016aa:	4b0d      	ldr	r3, [pc, #52]	; (80016e0 <HAL_MspInit+0x4c>)
 80016ac:	6c5b      	ldr	r3, [r3, #68]	; 0x44
 80016ae:	f403 4380 	and.w	r3, r3, #16384	; 0x4000
 80016b2:	607b      	str	r3, [r7, #4]
 80016b4:	687b      	ldr	r3, [r7, #4]
  __HAL_RCC_PWR_CLK_ENABLE();
 80016b6:	2300      	movs	r3, #0
 80016b8:	603b      	str	r3, [r7, #0]
 80016ba:	4b09      	ldr	r3, [pc, #36]	; (80016e0 <HAL_MspInit+0x4c>)
 80016bc:	6c1b      	ldr	r3, [r3, #64]	; 0x40
 80016be:	4a08      	ldr	r2, [pc, #32]	; (80016e0 <HAL_MspInit+0x4c>)
 80016c0:	f043 5380 	orr.w	r3, r3, #268435456	; 0x10000000
 80016c4:	6413      	str	r3, [r2, #64]	; 0x40
 80016c6:	4b06      	ldr	r3, [pc, #24]	; (80016e0 <HAL_MspInit+0x4c>)
 80016c8:	6c1b      	ldr	r3, [r3, #64]	; 0x40
 80016ca:	f003 5380 	and.w	r3, r3, #268435456	; 0x10000000
 80016ce:	603b      	str	r3, [r7, #0]
 80016d0:	683b      	ldr	r3, [r7, #0]
  /* System interrupt init*/

  /* USER CODE BEGIN MspInit 1 */

  /* USER CODE END MspInit 1 */
}
 80016d2:	bf00      	nop
 80016d4:	370c      	adds	r7, #12
 80016d6:	46bd      	mov	sp, r7
 80016d8:	f85d 7b04 	ldr.w	r7, [sp], #4
 80016dc:	4770      	bx	lr
 80016de:	bf00      	nop
 80016e0:	40023800 	.word	0x40023800

080016e4 <HAL_RTC_MspInit>:
* This function configures the hardware resources used in this example
* @param hrtc: RTC handle pointer
* @retval None
*/
void HAL_RTC_MspInit(RTC_HandleTypeDef* hrtc)
{
 80016e4:	b580      	push	{r7, lr}
 80016e6:	b082      	sub	sp, #8
 80016e8:	af00      	add	r7, sp, #0
 80016ea:	6078      	str	r0, [r7, #4]
  if(hrtc->Instance==RTC)
 80016ec:	687b      	ldr	r3, [r7, #4]
 80016ee:	681b      	ldr	r3, [r3, #0]
 80016f0:	4a08      	ldr	r2, [pc, #32]	; (8001714 <HAL_RTC_MspInit+0x30>)
 80016f2:	4293      	cmp	r3, r2
 80016f4:	d10a      	bne.n	800170c <HAL_RTC_MspInit+0x28>
  {
  /* USER CODE BEGIN RTC_MspInit 0 */

  /* USER CODE END RTC_MspInit 0 */
    /* Peripheral clock enable */
    __HAL_RCC_RTC_ENABLE();
 80016f6:	4b08      	ldr	r3, [pc, #32]	; (8001718 <HAL_RTC_MspInit+0x34>)
 80016f8:	2201      	movs	r2, #1
 80016fa:	601a      	str	r2, [r3, #0]
    /* RTC interrupt Init */
    HAL_NVIC_SetPriority(RTC_Alarm_IRQn, 0, 0);
 80016fc:	2200      	movs	r2, #0
 80016fe:	2100      	movs	r1, #0
 8001700:	2029      	movs	r0, #41	; 0x29
 8001702:	f000 fc46 	bl	8001f92 <HAL_NVIC_SetPriority>
    HAL_NVIC_EnableIRQ(RTC_Alarm_IRQn);
 8001706:	2029      	movs	r0, #41	; 0x29
 8001708:	f000 fc5f 	bl	8001fca <HAL_NVIC_EnableIRQ>
  /* USER CODE BEGIN RTC_MspInit 1 */

  /* USER CODE END RTC_MspInit 1 */
  }

}
 800170c:	bf00      	nop
 800170e:	3708      	adds	r7, #8
 8001710:	46bd      	mov	sp, r7
 8001712:	bd80      	pop	{r7, pc}
 8001714:	40002800 	.word	0x40002800
 8001718:	42470e3c 	.word	0x42470e3c

0800171c <HAL_RTC_MspDeInit>:
* This function freeze the hardware resources used in this example
* @param hrtc: RTC handle pointer
* @retval None
*/
void HAL_RTC_MspDeInit(RTC_HandleTypeDef* hrtc)
{
 800171c:	b580      	push	{r7, lr}
 800171e:	b082      	sub	sp, #8
 8001720:	af00      	add	r7, sp, #0
 8001722:	6078      	str	r0, [r7, #4]
  if(hrtc->Instance==RTC)
 8001724:	687b      	ldr	r3, [r7, #4]
 8001726:	681b      	ldr	r3, [r3, #0]
 8001728:	4a06      	ldr	r2, [pc, #24]	; (8001744 <HAL_RTC_MspDeInit+0x28>)
 800172a:	4293      	cmp	r3, r2
 800172c:	d105      	bne.n	800173a <HAL_RTC_MspDeInit+0x1e>
  {
  /* USER CODE BEGIN RTC_MspDeInit 0 */

  /* USER CODE END RTC_MspDeInit 0 */
    /* Peripheral clock disable */
    __HAL_RCC_RTC_DISABLE();
 800172e:	4b06      	ldr	r3, [pc, #24]	; (8001748 <HAL_RTC_MspDeInit+0x2c>)
 8001730:	2200      	movs	r2, #0
 8001732:	601a      	str	r2, [r3, #0]

    /* RTC interrupt DeInit */
    HAL_NVIC_DisableIRQ(RTC_Alarm_IRQn);
 8001734:	2029      	movs	r0, #41	; 0x29
 8001736:	f000 fc56 	bl	8001fe6 <HAL_NVIC_DisableIRQ>
  /* USER CODE BEGIN RTC_MspDeInit 1 */

  /* USER CODE END RTC_MspDeInit 1 */
  }

}
 800173a:	bf00      	nop
 800173c:	3708      	adds	r7, #8
 800173e:	46bd      	mov	sp, r7
 8001740:	bd80      	pop	{r7, pc}
 8001742:	bf00      	nop
 8001744:	40002800 	.word	0x40002800
 8001748:	42470e3c 	.word	0x42470e3c

0800174c <HAL_UART_MspInit>:
* This function configures the hardware resources used in this example
* @param huart: UART handle pointer
* @retval None
*/
void HAL_UART_MspInit(UART_HandleTypeDef* huart)
{
 800174c:	b580      	push	{r7, lr}
 800174e:	b08a      	sub	sp, #40	; 0x28
 8001750:	af00      	add	r7, sp, #0
 8001752:	6078      	str	r0, [r7, #4]
  GPIO_InitTypeDef GPIO_InitStruct = {0};
 8001754:	f107 0314 	add.w	r3, r7, #20
 8001758:	2200      	movs	r2, #0
 800175a:	601a      	str	r2, [r3, #0]
 800175c:	605a      	str	r2, [r3, #4]
 800175e:	609a      	str	r2, [r3, #8]
 8001760:	60da      	str	r2, [r3, #12]
 8001762:	611a      	str	r2, [r3, #16]
  if(huart->Instance==USART1)
 8001764:	687b      	ldr	r3, [r7, #4]
 8001766:	681b      	ldr	r3, [r3, #0]
 8001768:	4a1d      	ldr	r2, [pc, #116]	; (80017e0 <HAL_UART_MspInit+0x94>)
 800176a:	4293      	cmp	r3, r2
 800176c:	d134      	bne.n	80017d8 <HAL_UART_MspInit+0x8c>
  {
  /* USER CODE BEGIN USART1_MspInit 0 */

  /* USER CODE END USART1_MspInit 0 */
    /* Peripheral clock enable */
    __HAL_RCC_USART1_CLK_ENABLE();
 800176e:	2300      	movs	r3, #0
 8001770:	613b      	str	r3, [r7, #16]
 8001772:	4b1c      	ldr	r3, [pc, #112]	; (80017e4 <HAL_UART_MspInit+0x98>)
 8001774:	6c5b      	ldr	r3, [r3, #68]	; 0x44
 8001776:	4a1b      	ldr	r2, [pc, #108]	; (80017e4 <HAL_UART_MspInit+0x98>)
 8001778:	f043 0310 	orr.w	r3, r3, #16
 800177c:	6453      	str	r3, [r2, #68]	; 0x44
 800177e:	4b19      	ldr	r3, [pc, #100]	; (80017e4 <HAL_UART_MspInit+0x98>)
 8001780:	6c5b      	ldr	r3, [r3, #68]	; 0x44
 8001782:	f003 0310 	and.w	r3, r3, #16
 8001786:	613b      	str	r3, [r7, #16]
 8001788:	693b      	ldr	r3, [r7, #16]

    __HAL_RCC_GPIOA_CLK_ENABLE();
 800178a:	2300      	movs	r3, #0
 800178c:	60fb      	str	r3, [r7, #12]
 800178e:	4b15      	ldr	r3, [pc, #84]	; (80017e4 <HAL_UART_MspInit+0x98>)
 8001790:	6b1b      	ldr	r3, [r3, #48]	; 0x30
 8001792:	4a14      	ldr	r2, [pc, #80]	; (80017e4 <HAL_UART_MspInit+0x98>)
 8001794:	f043 0301 	orr.w	r3, r3, #1
 8001798:	6313      	str	r3, [r2, #48]	; 0x30
 800179a:	4b12      	ldr	r3, [pc, #72]	; (80017e4 <HAL_UART_MspInit+0x98>)
 800179c:	6b1b      	ldr	r3, [r3, #48]	; 0x30
 800179e:	f003 0301 	and.w	r3, r3, #1
 80017a2:	60fb      	str	r3, [r7, #12]
 80017a4:	68fb      	ldr	r3, [r7, #12]
    /**USART1 GPIO Configuration
    PA9     ------> USART1_TX
    PA10     ------> USART1_RX
    */
    GPIO_InitStruct.Pin = GPIO_PIN_9|GPIO_PIN_10;
 80017a6:	f44f 63c0 	mov.w	r3, #1536	; 0x600
 80017aa:	617b      	str	r3, [r7, #20]
    GPIO_InitStruct.Mode = GPIO_MODE_AF_PP;
 80017ac:	2302      	movs	r3, #2
 80017ae:	61bb      	str	r3, [r7, #24]
    GPIO_InitStruct.Pull = GPIO_NOPULL;
 80017b0:	2300      	movs	r3, #0
 80017b2:	61fb      	str	r3, [r7, #28]
    GPIO_InitStruct.Speed = GPIO_SPEED_FREQ_VERY_HIGH;
 80017b4:	2303      	movs	r3, #3
 80017b6:	623b      	str	r3, [r7, #32]
    GPIO_InitStruct.Alternate = GPIO_AF7_USART1;
 80017b8:	2307      	movs	r3, #7
 80017ba:	627b      	str	r3, [r7, #36]	; 0x24
    HAL_GPIO_Init(GPIOA, &GPIO_InitStruct);
 80017bc:	f107 0314 	add.w	r3, r7, #20
 80017c0:	4619      	mov	r1, r3
 80017c2:	4809      	ldr	r0, [pc, #36]	; (80017e8 <HAL_UART_MspInit+0x9c>)
 80017c4:	f000 fcbc 	bl	8002140 <HAL_GPIO_Init>

    /* USART1 interrupt Init */
    HAL_NVIC_SetPriority(USART1_IRQn, 0, 0);
 80017c8:	2200      	movs	r2, #0
 80017ca:	2100      	movs	r1, #0
 80017cc:	2025      	movs	r0, #37	; 0x25
 80017ce:	f000 fbe0 	bl	8001f92 <HAL_NVIC_SetPriority>
    HAL_NVIC_EnableIRQ(USART1_IRQn);
 80017d2:	2025      	movs	r0, #37	; 0x25
 80017d4:	f000 fbf9 	bl	8001fca <HAL_NVIC_EnableIRQ>
  /* USER CODE BEGIN USART1_MspInit 1 */

  /* USER CODE END USART1_MspInit 1 */
  }

}
 80017d8:	bf00      	nop
 80017da:	3728      	adds	r7, #40	; 0x28
 80017dc:	46bd      	mov	sp, r7
 80017de:	bd80      	pop	{r7, pc}
 80017e0:	40011000 	.word	0x40011000
 80017e4:	40023800 	.word	0x40023800
 80017e8:	40020000 	.word	0x40020000

080017ec <NMI_Handler>:
/******************************************************************************/
/**
  * @brief This function handles Non maskable interrupt.
  */
void NMI_Handler(void)
{
 80017ec:	b480      	push	{r7}
 80017ee:	af00      	add	r7, sp, #0
  /* USER CODE BEGIN NonMaskableInt_IRQn 0 */

  /* USER CODE END NonMaskableInt_IRQn 0 */
  /* USER CODE BEGIN NonMaskableInt_IRQn 1 */
  while (1)
 80017f0:	e7fe      	b.n	80017f0 <NMI_Handler+0x4>

080017f2 <HardFault_Handler>:

/**
  * @brief This function handles Hard fault interrupt.
  */
void HardFault_Handler(void)
{
 80017f2:	b480      	push	{r7}
 80017f4:	af00      	add	r7, sp, #0
  /* USER CODE BEGIN HardFault_IRQn 0 */

  /* USER CODE END HardFault_IRQn 0 */
  while (1)
 80017f6:	e7fe      	b.n	80017f6 <HardFault_Handler+0x4>

080017f8 <MemManage_Handler>:

/**
  * @brief This function handles Memory management fault.
  */
void MemManage_Handler(void)
{
 80017f8:	b480      	push	{r7}
 80017fa:	af00      	add	r7, sp, #0
  /* USER CODE BEGIN MemoryManagement_IRQn 0 */

  /* USER CODE END MemoryManagement_IRQn 0 */
  while (1)
 80017fc:	e7fe      	b.n	80017fc <MemManage_Handler+0x4>

080017fe <BusFault_Handler>:

/**
  * @brief This function handles Pre-fetch fault, memory access fault.
  */
void BusFault_Handler(void)
{
 80017fe:	b480      	push	{r7}
 8001800:	af00      	add	r7, sp, #0
  /* USER CODE BEGIN BusFault_IRQn 0 */

  /* USER CODE END BusFault_IRQn 0 */
  while (1)
 8001802:	e7fe      	b.n	8001802 <BusFault_Handler+0x4>

08001804 <UsageFault_Handler>:

/**
  * @brief This function handles Undefined instruction or illegal state.
  */
void UsageFault_Handler(void)
{
 8001804:	b480      	push	{r7}
 8001806:	af00      	add	r7, sp, #0
  /* USER CODE BEGIN UsageFault_IRQn 0 */

  /* USER CODE END UsageFault_IRQn 0 */
  while (1)
 8001808:	e7fe      	b.n	8001808 <UsageFault_Handler+0x4>

0800180a <SVC_Handler>:

/**
  * @brief This function handles System service call via SWI instruction.
  */
void SVC_Handler(void)
{
 800180a:	b480      	push	{r7}
 800180c:	af00      	add	r7, sp, #0

  /* USER CODE END SVCall_IRQn 0 */
  /* USER CODE BEGIN SVCall_IRQn 1 */

  /* USER CODE END SVCall_IRQn 1 */
}
 800180e:	bf00      	nop
 8001810:	46bd      	mov	sp, r7
 8001812:	f85d 7b04 	ldr.w	r7, [sp], #4
 8001816:	4770      	bx	lr

08001818 <DebugMon_Handler>:

/**
  * @brief This function handles Debug monitor.
  */
void DebugMon_Handler(void)
{
 8001818:	b480      	push	{r7}
 800181a:	af00      	add	r7, sp, #0

  /* USER CODE END DebugMonitor_IRQn 0 */
  /* USER CODE BEGIN DebugMonitor_IRQn 1 */

  /* USER CODE END DebugMonitor_IRQn 1 */
}
 800181c:	bf00      	nop
 800181e:	46bd      	mov	sp, r7
 8001820:	f85d 7b04 	ldr.w	r7, [sp], #4
 8001824:	4770      	bx	lr

08001826 <PendSV_Handler>:

/**
  * @brief This function handles Pendable request for system service.
  */
void PendSV_Handler(void)
{
 8001826:	b480      	push	{r7}
 8001828:	af00      	add	r7, sp, #0

  /* USER CODE END PendSV_IRQn 0 */
  /* USER CODE BEGIN PendSV_IRQn 1 */

  /* USER CODE END PendSV_IRQn 1 */
}
 800182a:	bf00      	nop
 800182c:	46bd      	mov	sp, r7
 800182e:	f85d 7b04 	ldr.w	r7, [sp], #4
 8001832:	4770      	bx	lr

08001834 <SysTick_Handler>:

/**
  * @brief This function handles System tick timer.
  */
void SysTick_Handler(void)
{
 8001834:	b580      	push	{r7, lr}
 8001836:	af00      	add	r7, sp, #0
  /* USER CODE BEGIN SysTick_IRQn 0 */

  /* USER CODE END SysTick_IRQn 0 */
  HAL_IncTick();
 8001838:	f000 fa68 	bl	8001d0c <HAL_IncTick>
  /* USER CODE BEGIN SysTick_IRQn 1 */

  /* USER CODE END SysTick_IRQn 1 */
}
 800183c:	bf00      	nop
 800183e:	bd80      	pop	{r7, pc}

08001840 <EXTI3_IRQHandler>:

/**
  * @brief This function handles EXTI line3 interrupt.
  */
void EXTI3_IRQHandler(void)
{
 8001840:	b580      	push	{r7, lr}
 8001842:	af00      	add	r7, sp, #0
  /* USER CODE BEGIN EXTI3_IRQn 0 */

//	jitter solver
	if (HAL_GetTick() - JitterButtonK1 > 300)
 8001844:	f000 fa76 	bl	8001d34 <HAL_GetTick>
 8001848:	4603      	mov	r3, r0
 800184a:	4a0a      	ldr	r2, [pc, #40]	; (8001874 <EXTI3_IRQHandler+0x34>)
 800184c:	7812      	ldrb	r2, [r2, #0]
 800184e:	1a9b      	subs	r3, r3, r2
 8001850:	f5b3 7f96 	cmp.w	r3, #300	; 0x12c
 8001854:	d908      	bls.n	8001868 <EXTI3_IRQHandler+0x28>
	{
		JitterButtonK1 = HAL_GetTick();
 8001856:	f000 fa6d 	bl	8001d34 <HAL_GetTick>
 800185a:	4603      	mov	r3, r0
 800185c:	b2da      	uxtb	r2, r3
 800185e:	4b05      	ldr	r3, [pc, #20]	; (8001874 <EXTI3_IRQHandler+0x34>)
 8001860:	701a      	strb	r2, [r3, #0]

//		here is our action on KEY1 button
		K1isPressed = 1;
 8001862:	4b05      	ldr	r3, [pc, #20]	; (8001878 <EXTI3_IRQHandler+0x38>)
 8001864:	2201      	movs	r2, #1
 8001866:	701a      	strb	r2, [r3, #0]
	}

  /* USER CODE END EXTI3_IRQn 0 */
  HAL_GPIO_EXTI_IRQHandler(GPIO_PIN_3);
 8001868:	2008      	movs	r0, #8
 800186a:	f000 fe51 	bl	8002510 <HAL_GPIO_EXTI_IRQHandler>
  /* USER CODE BEGIN EXTI3_IRQn 1 */

  /* USER CODE END EXTI3_IRQn 1 */
}
 800186e:	bf00      	nop
 8001870:	bd80      	pop	{r7, pc}
 8001872:	bf00      	nop
 8001874:	20000103 	.word	0x20000103
 8001878:	200001e1 	.word	0x200001e1

0800187c <EXTI4_IRQHandler>:

/**
  * @brief This function handles EXTI line4 interrupt.
  */
void EXTI4_IRQHandler(void)
{
 800187c:	b580      	push	{r7, lr}
 800187e:	af00      	add	r7, sp, #0
  /* USER CODE BEGIN EXTI4_IRQn 0 */

//	jitter solver
	if (HAL_GetTick() - JitterButtonK0 > 300)
 8001880:	f000 fa58 	bl	8001d34 <HAL_GetTick>
 8001884:	4603      	mov	r3, r0
 8001886:	4a0a      	ldr	r2, [pc, #40]	; (80018b0 <EXTI4_IRQHandler+0x34>)
 8001888:	7812      	ldrb	r2, [r2, #0]
 800188a:	1a9b      	subs	r3, r3, r2
 800188c:	f5b3 7f96 	cmp.w	r3, #300	; 0x12c
 8001890:	d908      	bls.n	80018a4 <EXTI4_IRQHandler+0x28>
	{
		JitterButtonK0 = HAL_GetTick();
 8001892:	f000 fa4f 	bl	8001d34 <HAL_GetTick>
 8001896:	4603      	mov	r3, r0
 8001898:	b2da      	uxtb	r2, r3
 800189a:	4b05      	ldr	r3, [pc, #20]	; (80018b0 <EXTI4_IRQHandler+0x34>)
 800189c:	701a      	strb	r2, [r3, #0]

//		here is our action on KEY0 button
		K0isPressed = 1;
 800189e:	4b05      	ldr	r3, [pc, #20]	; (80018b4 <EXTI4_IRQHandler+0x38>)
 80018a0:	2201      	movs	r2, #1
 80018a2:	701a      	strb	r2, [r3, #0]
	}

  /* USER CODE END EXTI4_IRQn 0 */
  HAL_GPIO_EXTI_IRQHandler(GPIO_PIN_4);
 80018a4:	2010      	movs	r0, #16
 80018a6:	f000 fe33 	bl	8002510 <HAL_GPIO_EXTI_IRQHandler>
  /* USER CODE BEGIN EXTI4_IRQn 1 */

  /* USER CODE END EXTI4_IRQn 1 */
}
 80018aa:	bf00      	nop
 80018ac:	bd80      	pop	{r7, pc}
 80018ae:	bf00      	nop
 80018b0:	20000102 	.word	0x20000102
 80018b4:	200001e0 	.word	0x200001e0

080018b8 <USART1_IRQHandler>:

/**
  * @brief This function handles USART1 global interrupt.
  */
void USART1_IRQHandler(void)
{
 80018b8:	b590      	push	{r4, r7, lr}
 80018ba:	b087      	sub	sp, #28
 80018bc:	af04      	add	r7, sp, #16
  /* USER CODE BEGIN USART1_IRQn 0 */

  /* USER CODE END USART1_IRQn 0 */
  HAL_UART_IRQHandler(&huart1);
 80018be:	4890      	ldr	r0, [pc, #576]	; (8001b00 <USART1_IRQHandler+0x248>)
 80018c0:	f002 fafa 	bl	8003eb8 <HAL_UART_IRQHandler>
  /* USER CODE BEGIN USART1_IRQn 1 */

  if (MessageTimer == 0)
 80018c4:	4b8f      	ldr	r3, [pc, #572]	; (8001b04 <USART1_IRQHandler+0x24c>)
 80018c6:	681b      	ldr	r3, [r3, #0]
 80018c8:	2b00      	cmp	r3, #0
 80018ca:	d104      	bne.n	80018d6 <USART1_IRQHandler+0x1e>
	  MessageTimer = HAL_GetTick();
 80018cc:	f000 fa32 	bl	8001d34 <HAL_GetTick>
 80018d0:	4603      	mov	r3, r0
 80018d2:	4a8c      	ldr	r2, [pc, #560]	; (8001b04 <USART1_IRQHandler+0x24c>)
 80018d4:	6013      	str	r3, [r2, #0]
  HAL_UART_Receive(&huart1, RxData, 1, 10);
 80018d6:	230a      	movs	r3, #10
 80018d8:	2201      	movs	r2, #1
 80018da:	498b      	ldr	r1, [pc, #556]	; (8001b08 <USART1_IRQHandler+0x250>)
 80018dc:	4888      	ldr	r0, [pc, #544]	; (8001b00 <USART1_IRQHandler+0x248>)
 80018de:	f002 fa48 	bl	8003d72 <HAL_UART_Receive>
  Buffer[CharCounter] = *RxData;
 80018e2:	4b8a      	ldr	r3, [pc, #552]	; (8001b0c <USART1_IRQHandler+0x254>)
 80018e4:	781b      	ldrb	r3, [r3, #0]
 80018e6:	461a      	mov	r2, r3
 80018e8:	4b87      	ldr	r3, [pc, #540]	; (8001b08 <USART1_IRQHandler+0x250>)
 80018ea:	7819      	ldrb	r1, [r3, #0]
 80018ec:	4b88      	ldr	r3, [pc, #544]	; (8001b10 <USART1_IRQHandler+0x258>)
 80018ee:	5499      	strb	r1, [r3, r2]
  CharCounter++;
 80018f0:	4b86      	ldr	r3, [pc, #536]	; (8001b0c <USART1_IRQHandler+0x254>)
 80018f2:	781b      	ldrb	r3, [r3, #0]
 80018f4:	3301      	adds	r3, #1
 80018f6:	b2da      	uxtb	r2, r3
 80018f8:	4b84      	ldr	r3, [pc, #528]	; (8001b0c <USART1_IRQHandler+0x254>)
 80018fa:	701a      	strb	r2, [r3, #0]

  if (CharCounter == strlen(DelMessage))
 80018fc:	4b83      	ldr	r3, [pc, #524]	; (8001b0c <USART1_IRQHandler+0x254>)
 80018fe:	781b      	ldrb	r3, [r3, #0]
 8001900:	461c      	mov	r4, r3
 8001902:	4884      	ldr	r0, [pc, #528]	; (8001b14 <USART1_IRQHandler+0x25c>)
 8001904:	f7fe fc64 	bl	80001d0 <strlen>
 8001908:	4603      	mov	r3, r0
 800190a:	429c      	cmp	r4, r3
 800190c:	d10c      	bne.n	8001928 <USART1_IRQHandler+0x70>
  {
	  if (!strncmp(Buffer, DelMessage, CharCounter))
 800190e:	4b7f      	ldr	r3, [pc, #508]	; (8001b0c <USART1_IRQHandler+0x254>)
 8001910:	781b      	ldrb	r3, [r3, #0]
 8001912:	461a      	mov	r2, r3
 8001914:	497f      	ldr	r1, [pc, #508]	; (8001b14 <USART1_IRQHandler+0x25c>)
 8001916:	487e      	ldr	r0, [pc, #504]	; (8001b10 <USART1_IRQHandler+0x258>)
 8001918:	f003 f84c 	bl	80049b4 <strncmp>
 800191c:	4603      	mov	r3, r0
 800191e:	2b00      	cmp	r3, #0
 8001920:	d102      	bne.n	8001928 <USART1_IRQHandler+0x70>
	  {
		  DeleteAlarm = 1;
 8001922:	4b7d      	ldr	r3, [pc, #500]	; (8001b18 <USART1_IRQHandler+0x260>)
 8001924:	2201      	movs	r2, #1
 8001926:	701a      	strb	r2, [r3, #0]
	  }
  }

  if (CharCounter == strlen(OpenMessage))
 8001928:	4b78      	ldr	r3, [pc, #480]	; (8001b0c <USART1_IRQHandler+0x254>)
 800192a:	781b      	ldrb	r3, [r3, #0]
 800192c:	461c      	mov	r4, r3
 800192e:	487b      	ldr	r0, [pc, #492]	; (8001b1c <USART1_IRQHandler+0x264>)
 8001930:	f7fe fc4e 	bl	80001d0 <strlen>
 8001934:	4603      	mov	r3, r0
 8001936:	429c      	cmp	r4, r3
 8001938:	d14e      	bne.n	80019d8 <USART1_IRQHandler+0x120>
  {
	  if (!strncmp(Buffer, OpenMessage, CharCounter))
 800193a:	4b74      	ldr	r3, [pc, #464]	; (8001b0c <USART1_IRQHandler+0x254>)
 800193c:	781b      	ldrb	r3, [r3, #0]
 800193e:	461a      	mov	r2, r3
 8001940:	4976      	ldr	r1, [pc, #472]	; (8001b1c <USART1_IRQHandler+0x264>)
 8001942:	4873      	ldr	r0, [pc, #460]	; (8001b10 <USART1_IRQHandler+0x258>)
 8001944:	f003 f836 	bl	80049b4 <strncmp>
 8001948:	4603      	mov	r3, r0
 800194a:	2b00      	cmp	r3, #0
 800194c:	d144      	bne.n	80019d8 <USART1_IRQHandler+0x120>
	  {
		  if (IsAlarmSetBeforeNow())
 800194e:	f7ff f923 	bl	8000b98 <IsAlarmSetBeforeNow>
 8001952:	4603      	mov	r3, r0
 8001954:	2b00      	cmp	r3, #0
 8001956:	d015      	beq.n	8001984 <USART1_IRQHandler+0xcc>
		  {
			  HAL_GPIO_WritePin(OpenDoor_GPIO_Port, OpenDoor_Pin, RESET);
 8001958:	2200      	movs	r2, #0
 800195a:	f44f 5180 	mov.w	r1, #4096	; 0x1000
 800195e:	4870      	ldr	r0, [pc, #448]	; (8001b20 <USART1_IRQHandler+0x268>)
 8001960:	f000 fda2 	bl	80024a8 <HAL_GPIO_WritePin>
			  HAL_UART_Transmit(&huart1, (uint8_t* )Buffer, CharCounter, CharCounter);
 8001964:	4b69      	ldr	r3, [pc, #420]	; (8001b0c <USART1_IRQHandler+0x254>)
 8001966:	781b      	ldrb	r3, [r3, #0]
 8001968:	b29a      	uxth	r2, r3
 800196a:	4b68      	ldr	r3, [pc, #416]	; (8001b0c <USART1_IRQHandler+0x254>)
 800196c:	781b      	ldrb	r3, [r3, #0]
 800196e:	4968      	ldr	r1, [pc, #416]	; (8001b10 <USART1_IRQHandler+0x258>)
 8001970:	4863      	ldr	r0, [pc, #396]	; (8001b00 <USART1_IRQHandler+0x248>)
 8001972:	f002 f96c 	bl	8003c4e <HAL_UART_Transmit>
			  HAL_GPIO_WritePin(OpenDoor_GPIO_Port, OpenDoor_Pin, SET);
 8001976:	2201      	movs	r2, #1
 8001978:	f44f 5180 	mov.w	r1, #4096	; 0x1000
 800197c:	4868      	ldr	r0, [pc, #416]	; (8001b20 <USART1_IRQHandler+0x268>)
 800197e:	f000 fd93 	bl	80024a8 <HAL_GPIO_WritePin>
 8001982:	e029      	b.n	80019d8 <USART1_IRQHandler+0x120>
		  } else
		  {
			  HAL_RTC_GetAlarm(&hrtc, &gAlarm, RTC_ALARM_A, RTC_FORMAT_BCD);
 8001984:	2301      	movs	r3, #1
 8001986:	f44f 7280 	mov.w	r2, #256	; 0x100
 800198a:	4966      	ldr	r1, [pc, #408]	; (8001b24 <USART1_IRQHandler+0x26c>)
 800198c:	4866      	ldr	r0, [pc, #408]	; (8001b28 <USART1_IRQHandler+0x270>)
 800198e:	f001 ff45 	bl	800381c <HAL_RTC_GetAlarm>
			  sprintf(Message, "%s %02x:%02x of %02x.%02x", AlarmNowIsOn, gAlarm.AlarmTime.Hours, gAlarm.AlarmTime.Minutes, gAlarm.AlarmTime.Seconds, gAlarm.AlarmDateWeekDay);
 8001992:	4b64      	ldr	r3, [pc, #400]	; (8001b24 <USART1_IRQHandler+0x26c>)
 8001994:	781b      	ldrb	r3, [r3, #0]
 8001996:	4618      	mov	r0, r3
 8001998:	4b62      	ldr	r3, [pc, #392]	; (8001b24 <USART1_IRQHandler+0x26c>)
 800199a:	785b      	ldrb	r3, [r3, #1]
 800199c:	461a      	mov	r2, r3
 800199e:	4b61      	ldr	r3, [pc, #388]	; (8001b24 <USART1_IRQHandler+0x26c>)
 80019a0:	789b      	ldrb	r3, [r3, #2]
 80019a2:	4619      	mov	r1, r3
 80019a4:	4b5f      	ldr	r3, [pc, #380]	; (8001b24 <USART1_IRQHandler+0x26c>)
 80019a6:	f893 3020 	ldrb.w	r3, [r3, #32]
 80019aa:	9302      	str	r3, [sp, #8]
 80019ac:	9101      	str	r1, [sp, #4]
 80019ae:	9200      	str	r2, [sp, #0]
 80019b0:	4603      	mov	r3, r0
 80019b2:	4a5e      	ldr	r2, [pc, #376]	; (8001b2c <USART1_IRQHandler+0x274>)
 80019b4:	495e      	ldr	r1, [pc, #376]	; (8001b30 <USART1_IRQHandler+0x278>)
 80019b6:	485f      	ldr	r0, [pc, #380]	; (8001b34 <USART1_IRQHandler+0x27c>)
 80019b8:	f002 ffdc 	bl	8004974 <siprintf>
			  HAL_UART_Transmit(&huart1, (uint8_t* )Message, strlen(Message), strlen(Message));
 80019bc:	485d      	ldr	r0, [pc, #372]	; (8001b34 <USART1_IRQHandler+0x27c>)
 80019be:	f7fe fc07 	bl	80001d0 <strlen>
 80019c2:	4603      	mov	r3, r0
 80019c4:	b29c      	uxth	r4, r3
 80019c6:	485b      	ldr	r0, [pc, #364]	; (8001b34 <USART1_IRQHandler+0x27c>)
 80019c8:	f7fe fc02 	bl	80001d0 <strlen>
 80019cc:	4603      	mov	r3, r0
 80019ce:	4622      	mov	r2, r4
 80019d0:	4958      	ldr	r1, [pc, #352]	; (8001b34 <USART1_IRQHandler+0x27c>)
 80019d2:	484b      	ldr	r0, [pc, #300]	; (8001b00 <USART1_IRQHandler+0x248>)
 80019d4:	f002 f93b 	bl	8003c4e <HAL_UART_Transmit>
		  }
	  }
  }

  if (CharCounter == strlen(GetAlarmMessage))
 80019d8:	4b4c      	ldr	r3, [pc, #304]	; (8001b0c <USART1_IRQHandler+0x254>)
 80019da:	781b      	ldrb	r3, [r3, #0]
 80019dc:	461c      	mov	r4, r3
 80019de:	4856      	ldr	r0, [pc, #344]	; (8001b38 <USART1_IRQHandler+0x280>)
 80019e0:	f7fe fbf6 	bl	80001d0 <strlen>
 80019e4:	4603      	mov	r3, r0
 80019e6:	429c      	cmp	r4, r3
 80019e8:	d10c      	bne.n	8001a04 <USART1_IRQHandler+0x14c>
  {
	  if (!strncmp(Buffer, GetAlarmMessage, CharCounter))
 80019ea:	4b48      	ldr	r3, [pc, #288]	; (8001b0c <USART1_IRQHandler+0x254>)
 80019ec:	781b      	ldrb	r3, [r3, #0]
 80019ee:	461a      	mov	r2, r3
 80019f0:	4951      	ldr	r1, [pc, #324]	; (8001b38 <USART1_IRQHandler+0x280>)
 80019f2:	4847      	ldr	r0, [pc, #284]	; (8001b10 <USART1_IRQHandler+0x258>)
 80019f4:	f002 ffde 	bl	80049b4 <strncmp>
 80019f8:	4603      	mov	r3, r0
 80019fa:	2b00      	cmp	r3, #0
 80019fc:	d102      	bne.n	8001a04 <USART1_IRQHandler+0x14c>
	  {
		  GetAlarm = 1;
 80019fe:	4b4f      	ldr	r3, [pc, #316]	; (8001b3c <USART1_IRQHandler+0x284>)
 8001a00:	2201      	movs	r2, #1
 8001a02:	701a      	strb	r2, [r3, #0]
	  }
  }

  if (CharCounter == 8)
 8001a04:	4b41      	ldr	r3, [pc, #260]	; (8001b0c <USART1_IRQHandler+0x254>)
 8001a06:	781b      	ldrb	r3, [r3, #0]
 8001a08:	2b08      	cmp	r3, #8
 8001a0a:	d174      	bne.n	8001af6 <USART1_IRQHandler+0x23e>
  {
	  uint8_t loop;
	  for (loop = 0; loop < CharCounter; loop++)
 8001a0c:	2300      	movs	r3, #0
 8001a0e:	71fb      	strb	r3, [r7, #7]
 8001a10:	e06a      	b.n	8001ae8 <USART1_IRQHandler+0x230>
	  {
		  if isdigit((uint8_t)Buffer[loop])
 8001a12:	79fb      	ldrb	r3, [r7, #7]
 8001a14:	4a3e      	ldr	r2, [pc, #248]	; (8001b10 <USART1_IRQHandler+0x258>)
 8001a16:	5cd3      	ldrb	r3, [r2, r3]
 8001a18:	3301      	adds	r3, #1
 8001a1a:	4a49      	ldr	r2, [pc, #292]	; (8001b40 <USART1_IRQHandler+0x288>)
 8001a1c:	4413      	add	r3, r2
 8001a1e:	781b      	ldrb	r3, [r3, #0]
 8001a20:	f003 0304 	and.w	r3, r3, #4
 8001a24:	2b00      	cmp	r3, #0
 8001a26:	d065      	beq.n	8001af4 <USART1_IRQHandler+0x23c>
		  {
			  if (loop == CharCounter-1)
 8001a28:	79fa      	ldrb	r2, [r7, #7]
 8001a2a:	4b38      	ldr	r3, [pc, #224]	; (8001b0c <USART1_IRQHandler+0x254>)
 8001a2c:	781b      	ldrb	r3, [r3, #0]
 8001a2e:	3b01      	subs	r3, #1
 8001a30:	429a      	cmp	r2, r3
 8001a32:	d156      	bne.n	8001ae2 <USART1_IRQHandler+0x22a>
			  {
				  __HAL_UART_DISABLE_IT(&huart1, UART_IT_RXNE);
 8001a34:	4b32      	ldr	r3, [pc, #200]	; (8001b00 <USART1_IRQHandler+0x248>)
 8001a36:	681b      	ldr	r3, [r3, #0]
 8001a38:	68da      	ldr	r2, [r3, #12]
 8001a3a:	4b31      	ldr	r3, [pc, #196]	; (8001b00 <USART1_IRQHandler+0x248>)
 8001a3c:	681b      	ldr	r3, [r3, #0]
 8001a3e:	f022 0220 	bic.w	r2, r2, #32
 8001a42:	60da      	str	r2, [r3, #12]

//				  check if all the received numbers are valid to set for alarm
				  Hstr[0] = (char)Buffer[0];
 8001a44:	4b32      	ldr	r3, [pc, #200]	; (8001b10 <USART1_IRQHandler+0x258>)
 8001a46:	781a      	ldrb	r2, [r3, #0]
 8001a48:	4b3e      	ldr	r3, [pc, #248]	; (8001b44 <USART1_IRQHandler+0x28c>)
 8001a4a:	701a      	strb	r2, [r3, #0]
				  Hstr[1] = (char)Buffer[1];
 8001a4c:	4b30      	ldr	r3, [pc, #192]	; (8001b10 <USART1_IRQHandler+0x258>)
 8001a4e:	785a      	ldrb	r2, [r3, #1]
 8001a50:	4b3c      	ldr	r3, [pc, #240]	; (8001b44 <USART1_IRQHandler+0x28c>)
 8001a52:	705a      	strb	r2, [r3, #1]
				  SetHours = atoi(Hstr);
 8001a54:	483b      	ldr	r0, [pc, #236]	; (8001b44 <USART1_IRQHandler+0x28c>)
 8001a56:	f002 ff57 	bl	8004908 <atoi>
 8001a5a:	4603      	mov	r3, r0
 8001a5c:	b2da      	uxtb	r2, r3
 8001a5e:	4b3a      	ldr	r3, [pc, #232]	; (8001b48 <USART1_IRQHandler+0x290>)
 8001a60:	701a      	strb	r2, [r3, #0]
				  if ( (SetHours >= 0) && (SetHours <= 23) )
 8001a62:	4b39      	ldr	r3, [pc, #228]	; (8001b48 <USART1_IRQHandler+0x290>)
 8001a64:	781b      	ldrb	r3, [r3, #0]
 8001a66:	2b17      	cmp	r3, #23
 8001a68:	d83b      	bhi.n	8001ae2 <USART1_IRQHandler+0x22a>
				  {
					  Mstr[0] = (char)Buffer[2];
 8001a6a:	4b29      	ldr	r3, [pc, #164]	; (8001b10 <USART1_IRQHandler+0x258>)
 8001a6c:	789a      	ldrb	r2, [r3, #2]
 8001a6e:	4b37      	ldr	r3, [pc, #220]	; (8001b4c <USART1_IRQHandler+0x294>)
 8001a70:	701a      	strb	r2, [r3, #0]
					  Mstr[1] = (char)Buffer[3];
 8001a72:	4b27      	ldr	r3, [pc, #156]	; (8001b10 <USART1_IRQHandler+0x258>)
 8001a74:	78da      	ldrb	r2, [r3, #3]
 8001a76:	4b35      	ldr	r3, [pc, #212]	; (8001b4c <USART1_IRQHandler+0x294>)
 8001a78:	705a      	strb	r2, [r3, #1]
					  SetMinutes = atoi(Mstr);
 8001a7a:	4834      	ldr	r0, [pc, #208]	; (8001b4c <USART1_IRQHandler+0x294>)
 8001a7c:	f002 ff44 	bl	8004908 <atoi>
 8001a80:	4603      	mov	r3, r0
 8001a82:	b2da      	uxtb	r2, r3
 8001a84:	4b32      	ldr	r3, [pc, #200]	; (8001b50 <USART1_IRQHandler+0x298>)
 8001a86:	701a      	strb	r2, [r3, #0]
					  if ( (SetMinutes >= 0) && (SetMinutes <= 59) )
 8001a88:	4b31      	ldr	r3, [pc, #196]	; (8001b50 <USART1_IRQHandler+0x298>)
 8001a8a:	781b      	ldrb	r3, [r3, #0]
 8001a8c:	2b3b      	cmp	r3, #59	; 0x3b
 8001a8e:	d828      	bhi.n	8001ae2 <USART1_IRQHandler+0x22a>
					  {
						  Dstr[0] = (char)Buffer[6];
 8001a90:	4b1f      	ldr	r3, [pc, #124]	; (8001b10 <USART1_IRQHandler+0x258>)
 8001a92:	799a      	ldrb	r2, [r3, #6]
 8001a94:	4b2f      	ldr	r3, [pc, #188]	; (8001b54 <USART1_IRQHandler+0x29c>)
 8001a96:	701a      	strb	r2, [r3, #0]
						  Dstr[1] = (char)Buffer[7];
 8001a98:	4b1d      	ldr	r3, [pc, #116]	; (8001b10 <USART1_IRQHandler+0x258>)
 8001a9a:	79da      	ldrb	r2, [r3, #7]
 8001a9c:	4b2d      	ldr	r3, [pc, #180]	; (8001b54 <USART1_IRQHandler+0x29c>)
 8001a9e:	705a      	strb	r2, [r3, #1]
						  SetDate = atoi(Dstr);
 8001aa0:	482c      	ldr	r0, [pc, #176]	; (8001b54 <USART1_IRQHandler+0x29c>)
 8001aa2:	f002 ff31 	bl	8004908 <atoi>
 8001aa6:	4603      	mov	r3, r0
 8001aa8:	b2da      	uxtb	r2, r3
 8001aaa:	4b2b      	ldr	r3, [pc, #172]	; (8001b58 <USART1_IRQHandler+0x2a0>)
 8001aac:	701a      	strb	r2, [r3, #0]
						  if ( (SetDate >= 1) && (SetDate <= 30) )
 8001aae:	4b2a      	ldr	r3, [pc, #168]	; (8001b58 <USART1_IRQHandler+0x2a0>)
 8001ab0:	781b      	ldrb	r3, [r3, #0]
 8001ab2:	2b00      	cmp	r3, #0
 8001ab4:	d015      	beq.n	8001ae2 <USART1_IRQHandler+0x22a>
 8001ab6:	4b28      	ldr	r3, [pc, #160]	; (8001b58 <USART1_IRQHandler+0x2a0>)
 8001ab8:	781b      	ldrb	r3, [r3, #0]
 8001aba:	2b1e      	cmp	r3, #30
 8001abc:	d811      	bhi.n	8001ae2 <USART1_IRQHandler+0x22a>
						  {
							  Sstr[0] = (char)Buffer[4];
 8001abe:	4b14      	ldr	r3, [pc, #80]	; (8001b10 <USART1_IRQHandler+0x258>)
 8001ac0:	791a      	ldrb	r2, [r3, #4]
 8001ac2:	4b26      	ldr	r3, [pc, #152]	; (8001b5c <USART1_IRQHandler+0x2a4>)
 8001ac4:	701a      	strb	r2, [r3, #0]
							  Sstr[1] = (char)Buffer[5];
 8001ac6:	4b12      	ldr	r3, [pc, #72]	; (8001b10 <USART1_IRQHandler+0x258>)
 8001ac8:	795a      	ldrb	r2, [r3, #5]
 8001aca:	4b24      	ldr	r3, [pc, #144]	; (8001b5c <USART1_IRQHandler+0x2a4>)
 8001acc:	705a      	strb	r2, [r3, #1]
							  SetSeconds = atoi(Sstr);
 8001ace:	4823      	ldr	r0, [pc, #140]	; (8001b5c <USART1_IRQHandler+0x2a4>)
 8001ad0:	f002 ff1a 	bl	8004908 <atoi>
 8001ad4:	4603      	mov	r3, r0
 8001ad6:	b2da      	uxtb	r2, r3
 8001ad8:	4b21      	ldr	r3, [pc, #132]	; (8001b60 <USART1_IRQHandler+0x2a8>)
 8001ada:	701a      	strb	r2, [r3, #0]
							  SetAlarm = 1;
 8001adc:	4b21      	ldr	r3, [pc, #132]	; (8001b64 <USART1_IRQHandler+0x2ac>)
 8001ade:	2201      	movs	r2, #1
 8001ae0:	701a      	strb	r2, [r3, #0]
	  for (loop = 0; loop < CharCounter; loop++)
 8001ae2:	79fb      	ldrb	r3, [r7, #7]
 8001ae4:	3301      	adds	r3, #1
 8001ae6:	71fb      	strb	r3, [r7, #7]
 8001ae8:	4b08      	ldr	r3, [pc, #32]	; (8001b0c <USART1_IRQHandler+0x254>)
 8001aea:	781b      	ldrb	r3, [r3, #0]
 8001aec:	79fa      	ldrb	r2, [r7, #7]
 8001aee:	429a      	cmp	r2, r3
 8001af0:	d38f      	bcc.n	8001a12 <USART1_IRQHandler+0x15a>
			  break;
	  }
  }

  /* USER CODE END USART1_IRQn 1 */
}
 8001af2:	e000      	b.n	8001af6 <USART1_IRQHandler+0x23e>
			  break;
 8001af4:	bf00      	nop
}
 8001af6:	bf00      	nop
 8001af8:	370c      	adds	r7, #12
 8001afa:	46bd      	mov	sp, r7
 8001afc:	bd90      	pop	{r4, r7, pc}
 8001afe:	bf00      	nop
 8001b00:	2000019c 	.word	0x2000019c
 8001b04:	200000fc 	.word	0x200000fc
 8001b08:	2000024c 	.word	0x2000024c
 8001b0c:	200000f9 	.word	0x200000f9
 8001b10:	20000230 	.word	0x20000230
 8001b14:	20000050 	.word	0x20000050
 8001b18:	20000100 	.word	0x20000100
 8001b1c:	20000048 	.word	0x20000048
 8001b20:	40020400 	.word	0x40020400
 8001b24:	20000118 	.word	0x20000118
 8001b28:	200001e4 	.word	0x200001e4
 8001b2c:	20000038 	.word	0x20000038
 8001b30:	08005404 	.word	0x08005404
 8001b34:	20000140 	.word	0x20000140
 8001b38:	20000058 	.word	0x20000058
 8001b3c:	20000101 	.word	0x20000101
 8001b40:	08005438 	.word	0x08005438
 8001b44:	20000250 	.word	0x20000250
 8001b48:	2000023d 	.word	0x2000023d
 8001b4c:	20000248 	.word	0x20000248
 8001b50:	20000114 	.word	0x20000114
 8001b54:	20000244 	.word	0x20000244
 8001b58:	20000186 	.word	0x20000186
 8001b5c:	20000240 	.word	0x20000240
 8001b60:	20000187 	.word	0x20000187
 8001b64:	200000f8 	.word	0x200000f8

08001b68 <RTC_Alarm_IRQHandler>:

/**
  * @brief This function handles RTC alarms A and B interrupt through EXTI line 17.
  */
void RTC_Alarm_IRQHandler(void)
{
 8001b68:	b580      	push	{r7, lr}
 8001b6a:	af00      	add	r7, sp, #0
  /* USER CODE BEGIN RTC_Alarm_IRQn 0 */

  /* USER CODE END RTC_Alarm_IRQn 0 */
  HAL_RTC_AlarmIRQHandler(&hrtc);
 8001b6c:	4802      	ldr	r0, [pc, #8]	; (8001b78 <RTC_Alarm_IRQHandler+0x10>)
 8001b6e:	f001 fee5 	bl	800393c <HAL_RTC_AlarmIRQHandler>
  /* USER CODE BEGIN RTC_Alarm_IRQn 1 */

  /* USER CODE END RTC_Alarm_IRQn 1 */
}
 8001b72:	bf00      	nop
 8001b74:	bd80      	pop	{r7, pc}
 8001b76:	bf00      	nop
 8001b78:	200001e4 	.word	0x200001e4

08001b7c <_sbrk>:
 *
 * @param incr Memory size
 * @return Pointer to allocated memory
 */
void *_sbrk(ptrdiff_t incr)
{
 8001b7c:	b580      	push	{r7, lr}
 8001b7e:	b086      	sub	sp, #24
 8001b80:	af00      	add	r7, sp, #0
 8001b82:	6078      	str	r0, [r7, #4]
  extern uint8_t _end; /* Symbol defined in the linker script */
  extern uint8_t _estack; /* Symbol defined in the linker script */
  extern uint32_t _Min_Stack_Size; /* Symbol defined in the linker script */
  const uint32_t stack_limit = (uint32_t)&_estack - (uint32_t)&_Min_Stack_Size;
 8001b84:	4a14      	ldr	r2, [pc, #80]	; (8001bd8 <_sbrk+0x5c>)
 8001b86:	4b15      	ldr	r3, [pc, #84]	; (8001bdc <_sbrk+0x60>)
 8001b88:	1ad3      	subs	r3, r2, r3
 8001b8a:	617b      	str	r3, [r7, #20]
  const uint8_t *max_heap = (uint8_t *)stack_limit;
 8001b8c:	697b      	ldr	r3, [r7, #20]
 8001b8e:	613b      	str	r3, [r7, #16]
  uint8_t *prev_heap_end;

  /* Initialize heap end at first call */
  if (NULL == __sbrk_heap_end)
 8001b90:	4b13      	ldr	r3, [pc, #76]	; (8001be0 <_sbrk+0x64>)
 8001b92:	681b      	ldr	r3, [r3, #0]
 8001b94:	2b00      	cmp	r3, #0
 8001b96:	d102      	bne.n	8001b9e <_sbrk+0x22>
  {
    __sbrk_heap_end = &_end;
 8001b98:	4b11      	ldr	r3, [pc, #68]	; (8001be0 <_sbrk+0x64>)
 8001b9a:	4a12      	ldr	r2, [pc, #72]	; (8001be4 <_sbrk+0x68>)
 8001b9c:	601a      	str	r2, [r3, #0]
  }

  /* Protect heap from growing into the reserved MSP stack */
  if (__sbrk_heap_end + incr > max_heap)
 8001b9e:	4b10      	ldr	r3, [pc, #64]	; (8001be0 <_sbrk+0x64>)
 8001ba0:	681a      	ldr	r2, [r3, #0]
 8001ba2:	687b      	ldr	r3, [r7, #4]
 8001ba4:	4413      	add	r3, r2
 8001ba6:	693a      	ldr	r2, [r7, #16]
 8001ba8:	429a      	cmp	r2, r3
 8001baa:	d207      	bcs.n	8001bbc <_sbrk+0x40>
  {
    errno = ENOMEM;
 8001bac:	f002 feb0 	bl	8004910 <__errno>
 8001bb0:	4603      	mov	r3, r0
 8001bb2:	220c      	movs	r2, #12
 8001bb4:	601a      	str	r2, [r3, #0]
    return (void *)-1;
 8001bb6:	f04f 33ff 	mov.w	r3, #4294967295	; 0xffffffff
 8001bba:	e009      	b.n	8001bd0 <_sbrk+0x54>
  }

  prev_heap_end = __sbrk_heap_end;
 8001bbc:	4b08      	ldr	r3, [pc, #32]	; (8001be0 <_sbrk+0x64>)
 8001bbe:	681b      	ldr	r3, [r3, #0]
 8001bc0:	60fb      	str	r3, [r7, #12]
  __sbrk_heap_end += incr;
 8001bc2:	4b07      	ldr	r3, [pc, #28]	; (8001be0 <_sbrk+0x64>)
 8001bc4:	681a      	ldr	r2, [r3, #0]
 8001bc6:	687b      	ldr	r3, [r7, #4]
 8001bc8:	4413      	add	r3, r2
 8001bca:	4a05      	ldr	r2, [pc, #20]	; (8001be0 <_sbrk+0x64>)
 8001bcc:	6013      	str	r3, [r2, #0]

  return (void *)prev_heap_end;
 8001bce:	68fb      	ldr	r3, [r7, #12]
}
 8001bd0:	4618      	mov	r0, r3
 8001bd2:	3718      	adds	r7, #24
 8001bd4:	46bd      	mov	sp, r7
 8001bd6:	bd80      	pop	{r7, pc}
 8001bd8:	20020000 	.word	0x20020000
 8001bdc:	00000400 	.word	0x00000400
 8001be0:	20000104 	.word	0x20000104
 8001be4:	20000268 	.word	0x20000268

08001be8 <SystemInit>:
  *         configuration.
  * @param  None
  * @retval None
  */
void SystemInit(void)
{
 8001be8:	b480      	push	{r7}
 8001bea:	af00      	add	r7, sp, #0
  /* FPU settings ------------------------------------------------------------*/
  #if (__FPU_PRESENT == 1) && (__FPU_USED == 1)
    SCB->CPACR |= ((3UL << 10*2)|(3UL << 11*2));  /* set CP10 and CP11 Full Access */
 8001bec:	4b08      	ldr	r3, [pc, #32]	; (8001c10 <SystemInit+0x28>)
 8001bee:	f8d3 3088 	ldr.w	r3, [r3, #136]	; 0x88
 8001bf2:	4a07      	ldr	r2, [pc, #28]	; (8001c10 <SystemInit+0x28>)
 8001bf4:	f443 0370 	orr.w	r3, r3, #15728640	; 0xf00000
 8001bf8:	f8c2 3088 	str.w	r3, [r2, #136]	; 0x88

  /* Configure the Vector Table location add offset address ------------------*/
#ifdef VECT_TAB_SRAM
  SCB->VTOR = SRAM_BASE | VECT_TAB_OFFSET; /* Vector Table Relocation in Internal SRAM */
#else
  SCB->VTOR = FLASH_BASE | VECT_TAB_OFFSET; /* Vector Table Relocation in Internal FLASH */
 8001bfc:	4b04      	ldr	r3, [pc, #16]	; (8001c10 <SystemInit+0x28>)
 8001bfe:	f04f 6200 	mov.w	r2, #134217728	; 0x8000000
 8001c02:	609a      	str	r2, [r3, #8]
#endif
}
 8001c04:	bf00      	nop
 8001c06:	46bd      	mov	sp, r7
 8001c08:	f85d 7b04 	ldr.w	r7, [sp], #4
 8001c0c:	4770      	bx	lr
 8001c0e:	bf00      	nop
 8001c10:	e000ed00 	.word	0xe000ed00

08001c14 <Reset_Handler>:

    .section  .text.Reset_Handler
  .weak  Reset_Handler
  .type  Reset_Handler, %function
Reset_Handler:  
  ldr   sp, =_estack     /* set stack pointer */
 8001c14:	f8df d034 	ldr.w	sp, [pc, #52]	; 8001c4c <LoopFillZerobss+0x14>

/* Copy the data segment initializers from flash to SRAM */  
  movs  r1, #0
 8001c18:	2100      	movs	r1, #0
  b  LoopCopyDataInit
 8001c1a:	e003      	b.n	8001c24 <LoopCopyDataInit>

08001c1c <CopyDataInit>:

CopyDataInit:
  ldr  r3, =_sidata
 8001c1c:	4b0c      	ldr	r3, [pc, #48]	; (8001c50 <LoopFillZerobss+0x18>)
  ldr  r3, [r3, r1]
 8001c1e:	585b      	ldr	r3, [r3, r1]
  str  r3, [r0, r1]
 8001c20:	5043      	str	r3, [r0, r1]
  adds  r1, r1, #4
 8001c22:	3104      	adds	r1, #4

08001c24 <LoopCopyDataInit>:
    
LoopCopyDataInit:
  ldr  r0, =_sdata
 8001c24:	480b      	ldr	r0, [pc, #44]	; (8001c54 <LoopFillZerobss+0x1c>)
  ldr  r3, =_edata
 8001c26:	4b0c      	ldr	r3, [pc, #48]	; (8001c58 <LoopFillZerobss+0x20>)
  adds  r2, r0, r1
 8001c28:	1842      	adds	r2, r0, r1
  cmp  r2, r3
 8001c2a:	429a      	cmp	r2, r3
  bcc  CopyDataInit
 8001c2c:	d3f6      	bcc.n	8001c1c <CopyDataInit>
  ldr  r2, =_sbss
 8001c2e:	4a0b      	ldr	r2, [pc, #44]	; (8001c5c <LoopFillZerobss+0x24>)
  b  LoopFillZerobss
 8001c30:	e002      	b.n	8001c38 <LoopFillZerobss>

08001c32 <FillZerobss>:
/* Zero fill the bss segment. */  
FillZerobss:
  movs  r3, #0
 8001c32:	2300      	movs	r3, #0
  str  r3, [r2], #4
 8001c34:	f842 3b04 	str.w	r3, [r2], #4

08001c38 <LoopFillZerobss>:
    
LoopFillZerobss:
  ldr  r3, = _ebss
 8001c38:	4b09      	ldr	r3, [pc, #36]	; (8001c60 <LoopFillZerobss+0x28>)
  cmp  r2, r3
 8001c3a:	429a      	cmp	r2, r3
  bcc  FillZerobss
 8001c3c:	d3f9      	bcc.n	8001c32 <FillZerobss>

/* Call the clock system intitialization function.*/
  bl  SystemInit   
 8001c3e:	f7ff ffd3 	bl	8001be8 <SystemInit>
/* Call static constructors */
    bl __libc_init_array
 8001c42:	f002 fe6b 	bl	800491c <__libc_init_array>
/* Call the application's entry point.*/
  bl  main
 8001c46:	f7ff f99f 	bl	8000f88 <main>
  bx  lr    
 8001c4a:	4770      	bx	lr
  ldr   sp, =_estack     /* set stack pointer */
 8001c4c:	20020000 	.word	0x20020000
  ldr  r3, =_sidata
 8001c50:	0800557c 	.word	0x0800557c
  ldr  r0, =_sdata
 8001c54:	20000000 	.word	0x20000000
  ldr  r3, =_edata
 8001c58:	200000d4 	.word	0x200000d4
  ldr  r2, =_sbss
 8001c5c:	200000d4 	.word	0x200000d4
  ldr  r3, = _ebss
 8001c60:	20000268 	.word	0x20000268

08001c64 <ADC_IRQHandler>:
 * @retval None       
*/
    .section  .text.Default_Handler,"ax",%progbits
Default_Handler:
Infinite_Loop:
  b  Infinite_Loop
 8001c64:	e7fe      	b.n	8001c64 <ADC_IRQHandler>
	...

08001c68 <HAL_Init>:
  *         need to ensure that the SysTick time base is always set to 1 millisecond
  *         to have correct HAL operation.
  * @retval HAL status
  */
HAL_StatusTypeDef HAL_Init(void)
{
 8001c68:	b580      	push	{r7, lr}
 8001c6a:	af00      	add	r7, sp, #0
  /* Configure Flash prefetch, Instruction cache, Data cache */ 
#if (INSTRUCTION_CACHE_ENABLE != 0U)
  __HAL_FLASH_INSTRUCTION_CACHE_ENABLE();
 8001c6c:	4b0e      	ldr	r3, [pc, #56]	; (8001ca8 <HAL_Init+0x40>)
 8001c6e:	681b      	ldr	r3, [r3, #0]
 8001c70:	4a0d      	ldr	r2, [pc, #52]	; (8001ca8 <HAL_Init+0x40>)
 8001c72:	f443 7300 	orr.w	r3, r3, #512	; 0x200
 8001c76:	6013      	str	r3, [r2, #0]
#endif /* INSTRUCTION_CACHE_ENABLE */

#if (DATA_CACHE_ENABLE != 0U)
  __HAL_FLASH_DATA_CACHE_ENABLE();
 8001c78:	4b0b      	ldr	r3, [pc, #44]	; (8001ca8 <HAL_Init+0x40>)
 8001c7a:	681b      	ldr	r3, [r3, #0]
 8001c7c:	4a0a      	ldr	r2, [pc, #40]	; (8001ca8 <HAL_Init+0x40>)
 8001c7e:	f443 6380 	orr.w	r3, r3, #1024	; 0x400
 8001c82:	6013      	str	r3, [r2, #0]
#endif /* DATA_CACHE_ENABLE */

#if (PREFETCH_ENABLE != 0U)
  __HAL_FLASH_PREFETCH_BUFFER_ENABLE();
 8001c84:	4b08      	ldr	r3, [pc, #32]	; (8001ca8 <HAL_Init+0x40>)
 8001c86:	681b      	ldr	r3, [r3, #0]
 8001c88:	4a07      	ldr	r2, [pc, #28]	; (8001ca8 <HAL_Init+0x40>)
 8001c8a:	f443 7380 	orr.w	r3, r3, #256	; 0x100
 8001c8e:	6013      	str	r3, [r2, #0]
#endif /* PREFETCH_ENABLE */

  /* Set Interrupt Group Priority */
  HAL_NVIC_SetPriorityGrouping(NVIC_PRIORITYGROUP_4);
 8001c90:	2003      	movs	r0, #3
 8001c92:	f000 f973 	bl	8001f7c <HAL_NVIC_SetPriorityGrouping>

  /* Use systick as time base source and configure 1ms tick (default clock after Reset is HSI) */
  HAL_InitTick(TICK_INT_PRIORITY);
 8001c96:	2000      	movs	r0, #0
 8001c98:	f000 f808 	bl	8001cac <HAL_InitTick>

  /* Init the low level hardware */
  HAL_MspInit();
 8001c9c:	f7ff fcfa 	bl	8001694 <HAL_MspInit>

  /* Return function status */
  return HAL_OK;
 8001ca0:	2300      	movs	r3, #0
}
 8001ca2:	4618      	mov	r0, r3
 8001ca4:	bd80      	pop	{r7, pc}
 8001ca6:	bf00      	nop
 8001ca8:	40023c00 	.word	0x40023c00

08001cac <HAL_InitTick>:
  *       implementation  in user file.
  * @param TickPriority Tick interrupt priority.
  * @retval HAL status
  */
__weak HAL_StatusTypeDef HAL_InitTick(uint32_t TickPriority)
{
 8001cac:	b580      	push	{r7, lr}
 8001cae:	b082      	sub	sp, #8
 8001cb0:	af00      	add	r7, sp, #0
 8001cb2:	6078      	str	r0, [r7, #4]
  /* Configure the SysTick to have interrupt in 1ms time basis*/
  if (HAL_SYSTICK_Config(SystemCoreClock / (1000U / uwTickFreq)) > 0U)
 8001cb4:	4b12      	ldr	r3, [pc, #72]	; (8001d00 <HAL_InitTick+0x54>)
 8001cb6:	681a      	ldr	r2, [r3, #0]
 8001cb8:	4b12      	ldr	r3, [pc, #72]	; (8001d04 <HAL_InitTick+0x58>)
 8001cba:	781b      	ldrb	r3, [r3, #0]
 8001cbc:	4619      	mov	r1, r3
 8001cbe:	f44f 737a 	mov.w	r3, #1000	; 0x3e8
 8001cc2:	fbb3 f3f1 	udiv	r3, r3, r1
 8001cc6:	fbb2 f3f3 	udiv	r3, r2, r3
 8001cca:	4618      	mov	r0, r3
 8001ccc:	f000 f999 	bl	8002002 <HAL_SYSTICK_Config>
 8001cd0:	4603      	mov	r3, r0
 8001cd2:	2b00      	cmp	r3, #0
 8001cd4:	d001      	beq.n	8001cda <HAL_InitTick+0x2e>
  {
    return HAL_ERROR;
 8001cd6:	2301      	movs	r3, #1
 8001cd8:	e00e      	b.n	8001cf8 <HAL_InitTick+0x4c>
  }

  /* Configure the SysTick IRQ priority */
  if (TickPriority < (1UL << __NVIC_PRIO_BITS))
 8001cda:	687b      	ldr	r3, [r7, #4]
 8001cdc:	2b0f      	cmp	r3, #15
 8001cde:	d80a      	bhi.n	8001cf6 <HAL_InitTick+0x4a>
  {
    HAL_NVIC_SetPriority(SysTick_IRQn, TickPriority, 0U);
 8001ce0:	2200      	movs	r2, #0
 8001ce2:	6879      	ldr	r1, [r7, #4]
 8001ce4:	f04f 30ff 	mov.w	r0, #4294967295	; 0xffffffff
 8001ce8:	f000 f953 	bl	8001f92 <HAL_NVIC_SetPriority>
    uwTickPrio = TickPriority;
 8001cec:	4a06      	ldr	r2, [pc, #24]	; (8001d08 <HAL_InitTick+0x5c>)
 8001cee:	687b      	ldr	r3, [r7, #4]
 8001cf0:	6013      	str	r3, [r2, #0]
  {
    return HAL_ERROR;
  }

  /* Return function status */
  return HAL_OK;
 8001cf2:	2300      	movs	r3, #0
 8001cf4:	e000      	b.n	8001cf8 <HAL_InitTick+0x4c>
    return HAL_ERROR;
 8001cf6:	2301      	movs	r3, #1
}
 8001cf8:	4618      	mov	r0, r3
 8001cfa:	3708      	adds	r7, #8
 8001cfc:	46bd      	mov	sp, r7
 8001cfe:	bd80      	pop	{r7, pc}
 8001d00:	20000064 	.word	0x20000064
 8001d04:	2000006c 	.word	0x2000006c
 8001d08:	20000068 	.word	0x20000068

08001d0c <HAL_IncTick>:
 * @note This function is declared as __weak to be overwritten in case of other 
  *      implementations in user file.
  * @retval None
  */
__weak void HAL_IncTick(void)
{
 8001d0c:	b480      	push	{r7}
 8001d0e:	af00      	add	r7, sp, #0
  uwTick += uwTickFreq;
 8001d10:	4b06      	ldr	r3, [pc, #24]	; (8001d2c <HAL_IncTick+0x20>)
 8001d12:	781b      	ldrb	r3, [r3, #0]
 8001d14:	461a      	mov	r2, r3
 8001d16:	4b06      	ldr	r3, [pc, #24]	; (8001d30 <HAL_IncTick+0x24>)
 8001d18:	681b      	ldr	r3, [r3, #0]
 8001d1a:	4413      	add	r3, r2
 8001d1c:	4a04      	ldr	r2, [pc, #16]	; (8001d30 <HAL_IncTick+0x24>)
 8001d1e:	6013      	str	r3, [r2, #0]
}
 8001d20:	bf00      	nop
 8001d22:	46bd      	mov	sp, r7
 8001d24:	f85d 7b04 	ldr.w	r7, [sp], #4
 8001d28:	4770      	bx	lr
 8001d2a:	bf00      	nop
 8001d2c:	2000006c 	.word	0x2000006c
 8001d30:	20000254 	.word	0x20000254

08001d34 <HAL_GetTick>:
  * @note This function is declared as __weak to be overwritten in case of other 
  *       implementations in user file.
  * @retval tick value
  */
__weak uint32_t HAL_GetTick(void)
{
 8001d34:	b480      	push	{r7}
 8001d36:	af00      	add	r7, sp, #0
  return uwTick;
 8001d38:	4b03      	ldr	r3, [pc, #12]	; (8001d48 <HAL_GetTick+0x14>)
 8001d3a:	681b      	ldr	r3, [r3, #0]
}
 8001d3c:	4618      	mov	r0, r3
 8001d3e:	46bd      	mov	sp, r7
 8001d40:	f85d 7b04 	ldr.w	r7, [sp], #4
 8001d44:	4770      	bx	lr
 8001d46:	bf00      	nop
 8001d48:	20000254 	.word	0x20000254

08001d4c <HAL_Delay>:
  *       implementations in user file.
  * @param Delay specifies the delay time length, in milliseconds.
  * @retval None
  */
__weak void HAL_Delay(uint32_t Delay)
{
 8001d4c:	b580      	push	{r7, lr}
 8001d4e:	b084      	sub	sp, #16
 8001d50:	af00      	add	r7, sp, #0
 8001d52:	6078      	str	r0, [r7, #4]
  uint32_t tickstart = HAL_GetTick();
 8001d54:	f7ff ffee 	bl	8001d34 <HAL_GetTick>
 8001d58:	60b8      	str	r0, [r7, #8]
  uint32_t wait = Delay;
 8001d5a:	687b      	ldr	r3, [r7, #4]
 8001d5c:	60fb      	str	r3, [r7, #12]

  /* Add a freq to guarantee minimum wait */
  if (wait < HAL_MAX_DELAY)
 8001d5e:	68fb      	ldr	r3, [r7, #12]
 8001d60:	f1b3 3fff 	cmp.w	r3, #4294967295	; 0xffffffff
 8001d64:	d005      	beq.n	8001d72 <HAL_Delay+0x26>
  {
    wait += (uint32_t)(uwTickFreq);
 8001d66:	4b0a      	ldr	r3, [pc, #40]	; (8001d90 <HAL_Delay+0x44>)
 8001d68:	781b      	ldrb	r3, [r3, #0]
 8001d6a:	461a      	mov	r2, r3
 8001d6c:	68fb      	ldr	r3, [r7, #12]
 8001d6e:	4413      	add	r3, r2
 8001d70:	60fb      	str	r3, [r7, #12]
  }

  while((HAL_GetTick() - tickstart) < wait)
 8001d72:	bf00      	nop
 8001d74:	f7ff ffde 	bl	8001d34 <HAL_GetTick>
 8001d78:	4602      	mov	r2, r0
 8001d7a:	68bb      	ldr	r3, [r7, #8]
 8001d7c:	1ad3      	subs	r3, r2, r3
 8001d7e:	68fa      	ldr	r2, [r7, #12]
 8001d80:	429a      	cmp	r2, r3
 8001d82:	d8f7      	bhi.n	8001d74 <HAL_Delay+0x28>
  {
  }
}
 8001d84:	bf00      	nop
 8001d86:	bf00      	nop
 8001d88:	3710      	adds	r7, #16
 8001d8a:	46bd      	mov	sp, r7
 8001d8c:	bd80      	pop	{r7, pc}
 8001d8e:	bf00      	nop
 8001d90:	2000006c 	.word	0x2000006c

08001d94 <__NVIC_SetPriorityGrouping>:
           In case of a conflict between priority grouping and available
           priority bits (__NVIC_PRIO_BITS), the smallest possible priority group is set.
  \param [in]      PriorityGroup  Priority grouping field.
 */
__STATIC_INLINE void __NVIC_SetPriorityGrouping(uint32_t PriorityGroup)
{
 8001d94:	b480      	push	{r7}
 8001d96:	b085      	sub	sp, #20
 8001d98:	af00      	add	r7, sp, #0
 8001d9a:	6078      	str	r0, [r7, #4]
  uint32_t reg_value;
  uint32_t PriorityGroupTmp = (PriorityGroup & (uint32_t)0x07UL);             /* only values 0..7 are used          */
 8001d9c:	687b      	ldr	r3, [r7, #4]
 8001d9e:	f003 0307 	and.w	r3, r3, #7
 8001da2:	60fb      	str	r3, [r7, #12]

  reg_value  =  SCB->AIRCR;                                                   /* read old register configuration    */
 8001da4:	4b0c      	ldr	r3, [pc, #48]	; (8001dd8 <__NVIC_SetPriorityGrouping+0x44>)
 8001da6:	68db      	ldr	r3, [r3, #12]
 8001da8:	60bb      	str	r3, [r7, #8]
  reg_value &= ~((uint32_t)(SCB_AIRCR_VECTKEY_Msk | SCB_AIRCR_PRIGROUP_Msk)); /* clear bits to change               */
 8001daa:	68ba      	ldr	r2, [r7, #8]
 8001dac:	f64f 03ff 	movw	r3, #63743	; 0xf8ff
 8001db0:	4013      	ands	r3, r2
 8001db2:	60bb      	str	r3, [r7, #8]
  reg_value  =  (reg_value                                   |
                ((uint32_t)0x5FAUL << SCB_AIRCR_VECTKEY_Pos) |
                (PriorityGroupTmp << SCB_AIRCR_PRIGROUP_Pos)  );              /* Insert write key and priority group */
 8001db4:	68fb      	ldr	r3, [r7, #12]
 8001db6:	021a      	lsls	r2, r3, #8
                ((uint32_t)0x5FAUL << SCB_AIRCR_VECTKEY_Pos) |
 8001db8:	68bb      	ldr	r3, [r7, #8]
 8001dba:	4313      	orrs	r3, r2
  reg_value  =  (reg_value                                   |
 8001dbc:	f043 63bf 	orr.w	r3, r3, #100139008	; 0x5f80000
 8001dc0:	f443 3300 	orr.w	r3, r3, #131072	; 0x20000
 8001dc4:	60bb      	str	r3, [r7, #8]
  SCB->AIRCR =  reg_value;
 8001dc6:	4a04      	ldr	r2, [pc, #16]	; (8001dd8 <__NVIC_SetPriorityGrouping+0x44>)
 8001dc8:	68bb      	ldr	r3, [r7, #8]
 8001dca:	60d3      	str	r3, [r2, #12]
}
 8001dcc:	bf00      	nop
 8001dce:	3714      	adds	r7, #20
 8001dd0:	46bd      	mov	sp, r7
 8001dd2:	f85d 7b04 	ldr.w	r7, [sp], #4
 8001dd6:	4770      	bx	lr
 8001dd8:	e000ed00 	.word	0xe000ed00

08001ddc <__NVIC_GetPriorityGrouping>:
  \brief   Get Priority Grouping
  \details Reads the priority grouping field from the NVIC Interrupt Controller.
  \return                Priority grouping field (SCB->AIRCR [10:8] PRIGROUP field).
 */
__STATIC_INLINE uint32_t __NVIC_GetPriorityGrouping(void)
{
 8001ddc:	b480      	push	{r7}
 8001dde:	af00      	add	r7, sp, #0
  return ((uint32_t)((SCB->AIRCR & SCB_AIRCR_PRIGROUP_Msk) >> SCB_AIRCR_PRIGROUP_Pos));
 8001de0:	4b04      	ldr	r3, [pc, #16]	; (8001df4 <__NVIC_GetPriorityGrouping+0x18>)
 8001de2:	68db      	ldr	r3, [r3, #12]
 8001de4:	0a1b      	lsrs	r3, r3, #8
 8001de6:	f003 0307 	and.w	r3, r3, #7
}
 8001dea:	4618      	mov	r0, r3
 8001dec:	46bd      	mov	sp, r7
 8001dee:	f85d 7b04 	ldr.w	r7, [sp], #4
 8001df2:	4770      	bx	lr
 8001df4:	e000ed00 	.word	0xe000ed00

08001df8 <__NVIC_EnableIRQ>:
  \details Enables a device specific interrupt in the NVIC interrupt controller.
  \param [in]      IRQn  Device specific interrupt number.
  \note    IRQn must not be negative.
 */
__STATIC_INLINE void __NVIC_EnableIRQ(IRQn_Type IRQn)
{
 8001df8:	b480      	push	{r7}
 8001dfa:	b083      	sub	sp, #12
 8001dfc:	af00      	add	r7, sp, #0
 8001dfe:	4603      	mov	r3, r0
 8001e00:	71fb      	strb	r3, [r7, #7]
  if ((int32_t)(IRQn) >= 0)
 8001e02:	f997 3007 	ldrsb.w	r3, [r7, #7]
 8001e06:	2b00      	cmp	r3, #0
 8001e08:	db0b      	blt.n	8001e22 <__NVIC_EnableIRQ+0x2a>
  {
    NVIC->ISER[(((uint32_t)IRQn) >> 5UL)] = (uint32_t)(1UL << (((uint32_t)IRQn) & 0x1FUL));
 8001e0a:	79fb      	ldrb	r3, [r7, #7]
 8001e0c:	f003 021f 	and.w	r2, r3, #31
 8001e10:	4907      	ldr	r1, [pc, #28]	; (8001e30 <__NVIC_EnableIRQ+0x38>)
 8001e12:	f997 3007 	ldrsb.w	r3, [r7, #7]
 8001e16:	095b      	lsrs	r3, r3, #5
 8001e18:	2001      	movs	r0, #1
 8001e1a:	fa00 f202 	lsl.w	r2, r0, r2
 8001e1e:	f841 2023 	str.w	r2, [r1, r3, lsl #2]
  }
}
 8001e22:	bf00      	nop
 8001e24:	370c      	adds	r7, #12
 8001e26:	46bd      	mov	sp, r7
 8001e28:	f85d 7b04 	ldr.w	r7, [sp], #4
 8001e2c:	4770      	bx	lr
 8001e2e:	bf00      	nop
 8001e30:	e000e100 	.word	0xe000e100

08001e34 <__NVIC_DisableIRQ>:
  \details Disables a device specific interrupt in the NVIC interrupt controller.
  \param [in]      IRQn  Device specific interrupt number.
  \note    IRQn must not be negative.
 */
__STATIC_INLINE void __NVIC_DisableIRQ(IRQn_Type IRQn)
{
 8001e34:	b480      	push	{r7}
 8001e36:	b083      	sub	sp, #12
 8001e38:	af00      	add	r7, sp, #0
 8001e3a:	4603      	mov	r3, r0
 8001e3c:	71fb      	strb	r3, [r7, #7]
  if ((int32_t)(IRQn) >= 0)
 8001e3e:	f997 3007 	ldrsb.w	r3, [r7, #7]
 8001e42:	2b00      	cmp	r3, #0
 8001e44:	db12      	blt.n	8001e6c <__NVIC_DisableIRQ+0x38>
  {
    NVIC->ICER[(((uint32_t)IRQn) >> 5UL)] = (uint32_t)(1UL << (((uint32_t)IRQn) & 0x1FUL));
 8001e46:	79fb      	ldrb	r3, [r7, #7]
 8001e48:	f003 021f 	and.w	r2, r3, #31
 8001e4c:	490a      	ldr	r1, [pc, #40]	; (8001e78 <__NVIC_DisableIRQ+0x44>)
 8001e4e:	f997 3007 	ldrsb.w	r3, [r7, #7]
 8001e52:	095b      	lsrs	r3, r3, #5
 8001e54:	2001      	movs	r0, #1
 8001e56:	fa00 f202 	lsl.w	r2, r0, r2
 8001e5a:	3320      	adds	r3, #32
 8001e5c:	f841 2023 	str.w	r2, [r1, r3, lsl #2]
  \details Acts as a special kind of Data Memory Barrier.
           It completes when all explicit memory accesses before this instruction complete.
 */
__STATIC_FORCEINLINE void __DSB(void)
{
  __ASM volatile ("dsb 0xF":::"memory");
 8001e60:	f3bf 8f4f 	dsb	sy
}
 8001e64:	bf00      	nop
  __ASM volatile ("isb 0xF":::"memory");
 8001e66:	f3bf 8f6f 	isb	sy
}
 8001e6a:	bf00      	nop
    __DSB();
    __ISB();
  }
}
 8001e6c:	bf00      	nop
 8001e6e:	370c      	adds	r7, #12
 8001e70:	46bd      	mov	sp, r7
 8001e72:	f85d 7b04 	ldr.w	r7, [sp], #4
 8001e76:	4770      	bx	lr
 8001e78:	e000e100 	.word	0xe000e100

08001e7c <__NVIC_SetPriority>:
  \param [in]      IRQn  Interrupt number.
  \param [in]  priority  Priority to set.
  \note    The priority cannot be set for every processor exception.
 */
__STATIC_INLINE void __NVIC_SetPriority(IRQn_Type IRQn, uint32_t priority)
{
 8001e7c:	b480      	push	{r7}
 8001e7e:	b083      	sub	sp, #12
 8001e80:	af00      	add	r7, sp, #0
 8001e82:	4603      	mov	r3, r0
 8001e84:	6039      	str	r1, [r7, #0]
 8001e86:	71fb      	strb	r3, [r7, #7]
  if ((int32_t)(IRQn) >= 0)
 8001e88:	f997 3007 	ldrsb.w	r3, [r7, #7]
 8001e8c:	2b00      	cmp	r3, #0
 8001e8e:	db0a      	blt.n	8001ea6 <__NVIC_SetPriority+0x2a>
  {
    NVIC->IP[((uint32_t)IRQn)]               = (uint8_t)((priority << (8U - __NVIC_PRIO_BITS)) & (uint32_t)0xFFUL);
 8001e90:	683b      	ldr	r3, [r7, #0]
 8001e92:	b2da      	uxtb	r2, r3
 8001e94:	490c      	ldr	r1, [pc, #48]	; (8001ec8 <__NVIC_SetPriority+0x4c>)
 8001e96:	f997 3007 	ldrsb.w	r3, [r7, #7]
 8001e9a:	0112      	lsls	r2, r2, #4
 8001e9c:	b2d2      	uxtb	r2, r2
 8001e9e:	440b      	add	r3, r1
 8001ea0:	f883 2300 	strb.w	r2, [r3, #768]	; 0x300
  }
  else
  {
    SCB->SHP[(((uint32_t)IRQn) & 0xFUL)-4UL] = (uint8_t)((priority << (8U - __NVIC_PRIO_BITS)) & (uint32_t)0xFFUL);
  }
}
 8001ea4:	e00a      	b.n	8001ebc <__NVIC_SetPriority+0x40>
    SCB->SHP[(((uint32_t)IRQn) & 0xFUL)-4UL] = (uint8_t)((priority << (8U - __NVIC_PRIO_BITS)) & (uint32_t)0xFFUL);
 8001ea6:	683b      	ldr	r3, [r7, #0]
 8001ea8:	b2da      	uxtb	r2, r3
 8001eaa:	4908      	ldr	r1, [pc, #32]	; (8001ecc <__NVIC_SetPriority+0x50>)
 8001eac:	79fb      	ldrb	r3, [r7, #7]
 8001eae:	f003 030f 	and.w	r3, r3, #15
 8001eb2:	3b04      	subs	r3, #4
 8001eb4:	0112      	lsls	r2, r2, #4
 8001eb6:	b2d2      	uxtb	r2, r2
 8001eb8:	440b      	add	r3, r1
 8001eba:	761a      	strb	r2, [r3, #24]
}
 8001ebc:	bf00      	nop
 8001ebe:	370c      	adds	r7, #12
 8001ec0:	46bd      	mov	sp, r7
 8001ec2:	f85d 7b04 	ldr.w	r7, [sp], #4
 8001ec6:	4770      	bx	lr
 8001ec8:	e000e100 	.word	0xe000e100
 8001ecc:	e000ed00 	.word	0xe000ed00

08001ed0 <NVIC_EncodePriority>:
  \param [in]   PreemptPriority  Preemptive priority value (starting from 0).
  \param [in]       SubPriority  Subpriority value (starting from 0).
  \return                        Encoded priority. Value can be used in the function \ref NVIC_SetPriority().
 */
__STATIC_INLINE uint32_t NVIC_EncodePriority (uint32_t PriorityGroup, uint32_t PreemptPriority, uint32_t SubPriority)
{
 8001ed0:	b480      	push	{r7}
 8001ed2:	b089      	sub	sp, #36	; 0x24
 8001ed4:	af00      	add	r7, sp, #0
 8001ed6:	60f8      	str	r0, [r7, #12]
 8001ed8:	60b9      	str	r1, [r7, #8]
 8001eda:	607a      	str	r2, [r7, #4]
  uint32_t PriorityGroupTmp = (PriorityGroup & (uint32_t)0x07UL);   /* only values 0..7 are used          */
 8001edc:	68fb      	ldr	r3, [r7, #12]
 8001ede:	f003 0307 	and.w	r3, r3, #7
 8001ee2:	61fb      	str	r3, [r7, #28]
  uint32_t PreemptPriorityBits;
  uint32_t SubPriorityBits;

  PreemptPriorityBits = ((7UL - PriorityGroupTmp) > (uint32_t)(__NVIC_PRIO_BITS)) ? (uint32_t)(__NVIC_PRIO_BITS) : (uint32_t)(7UL - PriorityGroupTmp);
 8001ee4:	69fb      	ldr	r3, [r7, #28]
 8001ee6:	f1c3 0307 	rsb	r3, r3, #7
 8001eea:	2b04      	cmp	r3, #4
 8001eec:	bf28      	it	cs
 8001eee:	2304      	movcs	r3, #4
 8001ef0:	61bb      	str	r3, [r7, #24]
  SubPriorityBits     = ((PriorityGroupTmp + (uint32_t)(__NVIC_PRIO_BITS)) < (uint32_t)7UL) ? (uint32_t)0UL : (uint32_t)((PriorityGroupTmp - 7UL) + (uint32_t)(__NVIC_PRIO_BITS));
 8001ef2:	69fb      	ldr	r3, [r7, #28]
 8001ef4:	3304      	adds	r3, #4
 8001ef6:	2b06      	cmp	r3, #6
 8001ef8:	d902      	bls.n	8001f00 <NVIC_EncodePriority+0x30>
 8001efa:	69fb      	ldr	r3, [r7, #28]
 8001efc:	3b03      	subs	r3, #3
 8001efe:	e000      	b.n	8001f02 <NVIC_EncodePriority+0x32>
 8001f00:	2300      	movs	r3, #0
 8001f02:	617b      	str	r3, [r7, #20]

  return (
           ((PreemptPriority & (uint32_t)((1UL << (PreemptPriorityBits)) - 1UL)) << SubPriorityBits) |
 8001f04:	f04f 32ff 	mov.w	r2, #4294967295	; 0xffffffff
 8001f08:	69bb      	ldr	r3, [r7, #24]
 8001f0a:	fa02 f303 	lsl.w	r3, r2, r3
 8001f0e:	43da      	mvns	r2, r3
 8001f10:	68bb      	ldr	r3, [r7, #8]
 8001f12:	401a      	ands	r2, r3
 8001f14:	697b      	ldr	r3, [r7, #20]
 8001f16:	409a      	lsls	r2, r3
           ((SubPriority     & (uint32_t)((1UL << (SubPriorityBits    )) - 1UL)))
 8001f18:	f04f 31ff 	mov.w	r1, #4294967295	; 0xffffffff
 8001f1c:	697b      	ldr	r3, [r7, #20]
 8001f1e:	fa01 f303 	lsl.w	r3, r1, r3
 8001f22:	43d9      	mvns	r1, r3
 8001f24:	687b      	ldr	r3, [r7, #4]
 8001f26:	400b      	ands	r3, r1
           ((PreemptPriority & (uint32_t)((1UL << (PreemptPriorityBits)) - 1UL)) << SubPriorityBits) |
 8001f28:	4313      	orrs	r3, r2
         );
}
 8001f2a:	4618      	mov	r0, r3
 8001f2c:	3724      	adds	r7, #36	; 0x24
 8001f2e:	46bd      	mov	sp, r7
 8001f30:	f85d 7b04 	ldr.w	r7, [sp], #4
 8001f34:	4770      	bx	lr
	...

08001f38 <SysTick_Config>:
  \note    When the variable <b>__Vendor_SysTickConfig</b> is set to 1, then the
           function <b>SysTick_Config</b> is not included. In this case, the file <b><i>device</i>.h</b>
           must contain a vendor-specific implementation of this function.
 */
__STATIC_INLINE uint32_t SysTick_Config(uint32_t ticks)
{
 8001f38:	b580      	push	{r7, lr}
 8001f3a:	b082      	sub	sp, #8
 8001f3c:	af00      	add	r7, sp, #0
 8001f3e:	6078      	str	r0, [r7, #4]
  if ((ticks - 1UL) > SysTick_LOAD_RELOAD_Msk)
 8001f40:	687b      	ldr	r3, [r7, #4]
 8001f42:	3b01      	subs	r3, #1
 8001f44:	f1b3 7f80 	cmp.w	r3, #16777216	; 0x1000000
 8001f48:	d301      	bcc.n	8001f4e <SysTick_Config+0x16>
  {
    return (1UL);                                                   /* Reload value impossible */
 8001f4a:	2301      	movs	r3, #1
 8001f4c:	e00f      	b.n	8001f6e <SysTick_Config+0x36>
  }

  SysTick->LOAD  = (uint32_t)(ticks - 1UL);                         /* set reload register */
 8001f4e:	4a0a      	ldr	r2, [pc, #40]	; (8001f78 <SysTick_Config+0x40>)
 8001f50:	687b      	ldr	r3, [r7, #4]
 8001f52:	3b01      	subs	r3, #1
 8001f54:	6053      	str	r3, [r2, #4]
  NVIC_SetPriority (SysTick_IRQn, (1UL << __NVIC_PRIO_BITS) - 1UL); /* set Priority for Systick Interrupt */
 8001f56:	210f      	movs	r1, #15
 8001f58:	f04f 30ff 	mov.w	r0, #4294967295	; 0xffffffff
 8001f5c:	f7ff ff8e 	bl	8001e7c <__NVIC_SetPriority>
  SysTick->VAL   = 0UL;                                             /* Load the SysTick Counter Value */
 8001f60:	4b05      	ldr	r3, [pc, #20]	; (8001f78 <SysTick_Config+0x40>)
 8001f62:	2200      	movs	r2, #0
 8001f64:	609a      	str	r2, [r3, #8]
  SysTick->CTRL  = SysTick_CTRL_CLKSOURCE_Msk |
 8001f66:	4b04      	ldr	r3, [pc, #16]	; (8001f78 <SysTick_Config+0x40>)
 8001f68:	2207      	movs	r2, #7
 8001f6a:	601a      	str	r2, [r3, #0]
                   SysTick_CTRL_TICKINT_Msk   |
                   SysTick_CTRL_ENABLE_Msk;                         /* Enable SysTick IRQ and SysTick Timer */
  return (0UL);                                                     /* Function successful */
 8001f6c:	2300      	movs	r3, #0
}
 8001f6e:	4618      	mov	r0, r3
 8001f70:	3708      	adds	r7, #8
 8001f72:	46bd      	mov	sp, r7
 8001f74:	bd80      	pop	{r7, pc}
 8001f76:	bf00      	nop
 8001f78:	e000e010 	.word	0xe000e010

08001f7c <HAL_NVIC_SetPriorityGrouping>:
  * @note   When the NVIC_PriorityGroup_0 is selected, IRQ preemption is no more possible. 
  *         The pending IRQ priority will be managed only by the subpriority. 
  * @retval None
  */
void HAL_NVIC_SetPriorityGrouping(uint32_t PriorityGroup)
{
 8001f7c:	b580      	push	{r7, lr}
 8001f7e:	b082      	sub	sp, #8
 8001f80:	af00      	add	r7, sp, #0
 8001f82:	6078      	str	r0, [r7, #4]
  /* Check the parameters */
  assert_param(IS_NVIC_PRIORITY_GROUP(PriorityGroup));
  
  /* Set the PRIGROUP[10:8] bits according to the PriorityGroup parameter value */
  NVIC_SetPriorityGrouping(PriorityGroup);
 8001f84:	6878      	ldr	r0, [r7, #4]
 8001f86:	f7ff ff05 	bl	8001d94 <__NVIC_SetPriorityGrouping>
}
 8001f8a:	bf00      	nop
 8001f8c:	3708      	adds	r7, #8
 8001f8e:	46bd      	mov	sp, r7
 8001f90:	bd80      	pop	{r7, pc}

08001f92 <HAL_NVIC_SetPriority>:
  *         This parameter can be a value between 0 and 15
  *         A lower priority value indicates a higher priority.          
  * @retval None
  */
void HAL_NVIC_SetPriority(IRQn_Type IRQn, uint32_t PreemptPriority, uint32_t SubPriority)
{ 
 8001f92:	b580      	push	{r7, lr}
 8001f94:	b086      	sub	sp, #24
 8001f96:	af00      	add	r7, sp, #0
 8001f98:	4603      	mov	r3, r0
 8001f9a:	60b9      	str	r1, [r7, #8]
 8001f9c:	607a      	str	r2, [r7, #4]
 8001f9e:	73fb      	strb	r3, [r7, #15]
  uint32_t prioritygroup = 0x00U;
 8001fa0:	2300      	movs	r3, #0
 8001fa2:	617b      	str	r3, [r7, #20]
  
  /* Check the parameters */
  assert_param(IS_NVIC_SUB_PRIORITY(SubPriority));
  assert_param(IS_NVIC_PREEMPTION_PRIORITY(PreemptPriority));
  
  prioritygroup = NVIC_GetPriorityGrouping();
 8001fa4:	f7ff ff1a 	bl	8001ddc <__NVIC_GetPriorityGrouping>
 8001fa8:	6178      	str	r0, [r7, #20]
  
  NVIC_SetPriority(IRQn, NVIC_EncodePriority(prioritygroup, PreemptPriority, SubPriority));
 8001faa:	687a      	ldr	r2, [r7, #4]
 8001fac:	68b9      	ldr	r1, [r7, #8]
 8001fae:	6978      	ldr	r0, [r7, #20]
 8001fb0:	f7ff ff8e 	bl	8001ed0 <NVIC_EncodePriority>
 8001fb4:	4602      	mov	r2, r0
 8001fb6:	f997 300f 	ldrsb.w	r3, [r7, #15]
 8001fba:	4611      	mov	r1, r2
 8001fbc:	4618      	mov	r0, r3
 8001fbe:	f7ff ff5d 	bl	8001e7c <__NVIC_SetPriority>
}
 8001fc2:	bf00      	nop
 8001fc4:	3718      	adds	r7, #24
 8001fc6:	46bd      	mov	sp, r7
 8001fc8:	bd80      	pop	{r7, pc}

08001fca <HAL_NVIC_EnableIRQ>:
  *         This parameter can be an enumerator of IRQn_Type enumeration
  *         (For the complete STM32 Devices IRQ Channels list, please refer to the appropriate CMSIS device file (stm32f4xxxx.h))
  * @retval None
  */
void HAL_NVIC_EnableIRQ(IRQn_Type IRQn)
{
 8001fca:	b580      	push	{r7, lr}
 8001fcc:	b082      	sub	sp, #8
 8001fce:	af00      	add	r7, sp, #0
 8001fd0:	4603      	mov	r3, r0
 8001fd2:	71fb      	strb	r3, [r7, #7]
  /* Check the parameters */
  assert_param(IS_NVIC_DEVICE_IRQ(IRQn));
  
  /* Enable interrupt */
  NVIC_EnableIRQ(IRQn);
 8001fd4:	f997 3007 	ldrsb.w	r3, [r7, #7]
 8001fd8:	4618      	mov	r0, r3
 8001fda:	f7ff ff0d 	bl	8001df8 <__NVIC_EnableIRQ>
}
 8001fde:	bf00      	nop
 8001fe0:	3708      	adds	r7, #8
 8001fe2:	46bd      	mov	sp, r7
 8001fe4:	bd80      	pop	{r7, pc}

08001fe6 <HAL_NVIC_DisableIRQ>:
  *         This parameter can be an enumerator of IRQn_Type enumeration
  *         (For the complete STM32 Devices IRQ Channels list, please refer to the appropriate CMSIS device file (stm32f4xxxx.h))
  * @retval None
  */
void HAL_NVIC_DisableIRQ(IRQn_Type IRQn)
{
 8001fe6:	b580      	push	{r7, lr}
 8001fe8:	b082      	sub	sp, #8
 8001fea:	af00      	add	r7, sp, #0
 8001fec:	4603      	mov	r3, r0
 8001fee:	71fb      	strb	r3, [r7, #7]
  /* Check the parameters */
  assert_param(IS_NVIC_DEVICE_IRQ(IRQn));
  
  /* Disable interrupt */
  NVIC_DisableIRQ(IRQn);
 8001ff0:	f997 3007 	ldrsb.w	r3, [r7, #7]
 8001ff4:	4618      	mov	r0, r3
 8001ff6:	f7ff ff1d 	bl	8001e34 <__NVIC_DisableIRQ>
}
 8001ffa:	bf00      	nop
 8001ffc:	3708      	adds	r7, #8
 8001ffe:	46bd      	mov	sp, r7
 8002000:	bd80      	pop	{r7, pc}

08002002 <HAL_SYSTICK_Config>:
  * @param  TicksNumb Specifies the ticks Number of ticks between two interrupts.
  * @retval status:  - 0  Function succeeded.
  *                  - 1  Function failed.
  */
uint32_t HAL_SYSTICK_Config(uint32_t TicksNumb)
{
 8002002:	b580      	push	{r7, lr}
 8002004:	b082      	sub	sp, #8
 8002006:	af00      	add	r7, sp, #0
 8002008:	6078      	str	r0, [r7, #4]
   return SysTick_Config(TicksNumb);
 800200a:	6878      	ldr	r0, [r7, #4]
 800200c:	f7ff ff94 	bl	8001f38 <SysTick_Config>
 8002010:	4603      	mov	r3, r0
}
 8002012:	4618      	mov	r0, r3
 8002014:	3708      	adds	r7, #8
 8002016:	46bd      	mov	sp, r7
 8002018:	bd80      	pop	{r7, pc}

0800201a <HAL_DMA_Abort>:
  *        and the Stream will be effectively disabled only after the transfer of
  *        this single data is finished.  
  * @retval HAL status
  */
HAL_StatusTypeDef HAL_DMA_Abort(DMA_HandleTypeDef *hdma)
{
 800201a:	b580      	push	{r7, lr}
 800201c:	b084      	sub	sp, #16
 800201e:	af00      	add	r7, sp, #0
 8002020:	6078      	str	r0, [r7, #4]
  /* calculate DMA base and stream number */
  DMA_Base_Registers *regs = (DMA_Base_Registers *)hdma->StreamBaseAddress;
 8002022:	687b      	ldr	r3, [r7, #4]
 8002024:	6d9b      	ldr	r3, [r3, #88]	; 0x58
 8002026:	60fb      	str	r3, [r7, #12]
  
  uint32_t tickstart = HAL_GetTick();
 8002028:	f7ff fe84 	bl	8001d34 <HAL_GetTick>
 800202c:	60b8      	str	r0, [r7, #8]
  
  if(hdma->State != HAL_DMA_STATE_BUSY)
 800202e:	687b      	ldr	r3, [r7, #4]
 8002030:	f893 3035 	ldrb.w	r3, [r3, #53]	; 0x35
 8002034:	b2db      	uxtb	r3, r3
 8002036:	2b02      	cmp	r3, #2
 8002038:	d008      	beq.n	800204c <HAL_DMA_Abort+0x32>
  {
    hdma->ErrorCode = HAL_DMA_ERROR_NO_XFER;
 800203a:	687b      	ldr	r3, [r7, #4]
 800203c:	2280      	movs	r2, #128	; 0x80
 800203e:	655a      	str	r2, [r3, #84]	; 0x54
    
    /* Process Unlocked */
    __HAL_UNLOCK(hdma);
 8002040:	687b      	ldr	r3, [r7, #4]
 8002042:	2200      	movs	r2, #0
 8002044:	f883 2034 	strb.w	r2, [r3, #52]	; 0x34
    
    return HAL_ERROR;
 8002048:	2301      	movs	r3, #1
 800204a:	e052      	b.n	80020f2 <HAL_DMA_Abort+0xd8>
  }
  else
  {
    /* Disable all the transfer interrupts */
    hdma->Instance->CR  &= ~(DMA_IT_TC | DMA_IT_TE | DMA_IT_DME);
 800204c:	687b      	ldr	r3, [r7, #4]
 800204e:	681b      	ldr	r3, [r3, #0]
 8002050:	681a      	ldr	r2, [r3, #0]
 8002052:	687b      	ldr	r3, [r7, #4]
 8002054:	681b      	ldr	r3, [r3, #0]
 8002056:	f022 0216 	bic.w	r2, r2, #22
 800205a:	601a      	str	r2, [r3, #0]
    hdma->Instance->FCR &= ~(DMA_IT_FE);
 800205c:	687b      	ldr	r3, [r7, #4]
 800205e:	681b      	ldr	r3, [r3, #0]
 8002060:	695a      	ldr	r2, [r3, #20]
 8002062:	687b      	ldr	r3, [r7, #4]
 8002064:	681b      	ldr	r3, [r3, #0]
 8002066:	f022 0280 	bic.w	r2, r2, #128	; 0x80
 800206a:	615a      	str	r2, [r3, #20]
    
    if((hdma->XferHalfCpltCallback != NULL) || (hdma->XferM1HalfCpltCallback != NULL))
 800206c:	687b      	ldr	r3, [r7, #4]
 800206e:	6c1b      	ldr	r3, [r3, #64]	; 0x40
 8002070:	2b00      	cmp	r3, #0
 8002072:	d103      	bne.n	800207c <HAL_DMA_Abort+0x62>
 8002074:	687b      	ldr	r3, [r7, #4]
 8002076:	6c9b      	ldr	r3, [r3, #72]	; 0x48
 8002078:	2b00      	cmp	r3, #0
 800207a:	d007      	beq.n	800208c <HAL_DMA_Abort+0x72>
    {
      hdma->Instance->CR  &= ~(DMA_IT_HT);
 800207c:	687b      	ldr	r3, [r7, #4]
 800207e:	681b      	ldr	r3, [r3, #0]
 8002080:	681a      	ldr	r2, [r3, #0]
 8002082:	687b      	ldr	r3, [r7, #4]
 8002084:	681b      	ldr	r3, [r3, #0]
 8002086:	f022 0208 	bic.w	r2, r2, #8
 800208a:	601a      	str	r2, [r3, #0]
    }
    
    /* Disable the stream */
    __HAL_DMA_DISABLE(hdma);
 800208c:	687b      	ldr	r3, [r7, #4]
 800208e:	681b      	ldr	r3, [r3, #0]
 8002090:	681a      	ldr	r2, [r3, #0]
 8002092:	687b      	ldr	r3, [r7, #4]
 8002094:	681b      	ldr	r3, [r3, #0]
 8002096:	f022 0201 	bic.w	r2, r2, #1
 800209a:	601a      	str	r2, [r3, #0]
    
    /* Check if the DMA Stream is effectively disabled */
    while((hdma->Instance->CR & DMA_SxCR_EN) != RESET)
 800209c:	e013      	b.n	80020c6 <HAL_DMA_Abort+0xac>
    {
      /* Check for the Timeout */
      if((HAL_GetTick() - tickstart ) > HAL_TIMEOUT_DMA_ABORT)
 800209e:	f7ff fe49 	bl	8001d34 <HAL_GetTick>
 80020a2:	4602      	mov	r2, r0
 80020a4:	68bb      	ldr	r3, [r7, #8]
 80020a6:	1ad3      	subs	r3, r2, r3
 80020a8:	2b05      	cmp	r3, #5
 80020aa:	d90c      	bls.n	80020c6 <HAL_DMA_Abort+0xac>
      {
        /* Update error code */
        hdma->ErrorCode = HAL_DMA_ERROR_TIMEOUT;
 80020ac:	687b      	ldr	r3, [r7, #4]
 80020ae:	2220      	movs	r2, #32
 80020b0:	655a      	str	r2, [r3, #84]	; 0x54
        
        /* Process Unlocked */
        __HAL_UNLOCK(hdma);
 80020b2:	687b      	ldr	r3, [r7, #4]
 80020b4:	2200      	movs	r2, #0
 80020b6:	f883 2034 	strb.w	r2, [r3, #52]	; 0x34
        
        /* Change the DMA state */
        hdma->State = HAL_DMA_STATE_TIMEOUT;
 80020ba:	687b      	ldr	r3, [r7, #4]
 80020bc:	2203      	movs	r2, #3
 80020be:	f883 2035 	strb.w	r2, [r3, #53]	; 0x35
        
        return HAL_TIMEOUT;
 80020c2:	2303      	movs	r3, #3
 80020c4:	e015      	b.n	80020f2 <HAL_DMA_Abort+0xd8>
    while((hdma->Instance->CR & DMA_SxCR_EN) != RESET)
 80020c6:	687b      	ldr	r3, [r7, #4]
 80020c8:	681b      	ldr	r3, [r3, #0]
 80020ca:	681b      	ldr	r3, [r3, #0]
 80020cc:	f003 0301 	and.w	r3, r3, #1
 80020d0:	2b00      	cmp	r3, #0
 80020d2:	d1e4      	bne.n	800209e <HAL_DMA_Abort+0x84>
      }
    }
    
    /* Clear all interrupt flags at correct offset within the register */
    regs->IFCR = 0x3FU << hdma->StreamIndex;
 80020d4:	687b      	ldr	r3, [r7, #4]
 80020d6:	6ddb      	ldr	r3, [r3, #92]	; 0x5c
 80020d8:	223f      	movs	r2, #63	; 0x3f
 80020da:	409a      	lsls	r2, r3
 80020dc:	68fb      	ldr	r3, [r7, #12]
 80020de:	609a      	str	r2, [r3, #8]
    
    /* Process Unlocked */
    __HAL_UNLOCK(hdma);
 80020e0:	687b      	ldr	r3, [r7, #4]
 80020e2:	2200      	movs	r2, #0
 80020e4:	f883 2034 	strb.w	r2, [r3, #52]	; 0x34
    
    /* Change the DMA state*/
    hdma->State = HAL_DMA_STATE_READY;
 80020e8:	687b      	ldr	r3, [r7, #4]
 80020ea:	2201      	movs	r2, #1
 80020ec:	f883 2035 	strb.w	r2, [r3, #53]	; 0x35
  }
  return HAL_OK;
 80020f0:	2300      	movs	r3, #0
}
 80020f2:	4618      	mov	r0, r3
 80020f4:	3710      	adds	r7, #16
 80020f6:	46bd      	mov	sp, r7
 80020f8:	bd80      	pop	{r7, pc}

080020fa <HAL_DMA_Abort_IT>:
  * @param  hdma   pointer to a DMA_HandleTypeDef structure that contains
  *                 the configuration information for the specified DMA Stream.
  * @retval HAL status
  */
HAL_StatusTypeDef HAL_DMA_Abort_IT(DMA_HandleTypeDef *hdma)
{
 80020fa:	b480      	push	{r7}
 80020fc:	b083      	sub	sp, #12
 80020fe:	af00      	add	r7, sp, #0
 8002100:	6078      	str	r0, [r7, #4]
  if(hdma->State != HAL_DMA_STATE_BUSY)
 8002102:	687b      	ldr	r3, [r7, #4]
 8002104:	f893 3035 	ldrb.w	r3, [r3, #53]	; 0x35
 8002108:	b2db      	uxtb	r3, r3
 800210a:	2b02      	cmp	r3, #2
 800210c:	d004      	beq.n	8002118 <HAL_DMA_Abort_IT+0x1e>
  {
    hdma->ErrorCode = HAL_DMA_ERROR_NO_XFER;
 800210e:	687b      	ldr	r3, [r7, #4]
 8002110:	2280      	movs	r2, #128	; 0x80
 8002112:	655a      	str	r2, [r3, #84]	; 0x54
    return HAL_ERROR;
 8002114:	2301      	movs	r3, #1
 8002116:	e00c      	b.n	8002132 <HAL_DMA_Abort_IT+0x38>
  }
  else
  {
    /* Set Abort State  */
    hdma->State = HAL_DMA_STATE_ABORT;
 8002118:	687b      	ldr	r3, [r7, #4]
 800211a:	2205      	movs	r2, #5
 800211c:	f883 2035 	strb.w	r2, [r3, #53]	; 0x35
    
    /* Disable the stream */
    __HAL_DMA_DISABLE(hdma);
 8002120:	687b      	ldr	r3, [r7, #4]
 8002122:	681b      	ldr	r3, [r3, #0]
 8002124:	681a      	ldr	r2, [r3, #0]
 8002126:	687b      	ldr	r3, [r7, #4]
 8002128:	681b      	ldr	r3, [r3, #0]
 800212a:	f022 0201 	bic.w	r2, r2, #1
 800212e:	601a      	str	r2, [r3, #0]
  }

  return HAL_OK;
 8002130:	2300      	movs	r3, #0
}
 8002132:	4618      	mov	r0, r3
 8002134:	370c      	adds	r7, #12
 8002136:	46bd      	mov	sp, r7
 8002138:	f85d 7b04 	ldr.w	r7, [sp], #4
 800213c:	4770      	bx	lr
	...

08002140 <HAL_GPIO_Init>:
  * @param  GPIO_Init pointer to a GPIO_InitTypeDef structure that contains
  *         the configuration information for the specified GPIO peripheral.
  * @retval None
  */
void HAL_GPIO_Init(GPIO_TypeDef  *GPIOx, GPIO_InitTypeDef *GPIO_Init)
{
 8002140:	b480      	push	{r7}
 8002142:	b089      	sub	sp, #36	; 0x24
 8002144:	af00      	add	r7, sp, #0
 8002146:	6078      	str	r0, [r7, #4]
 8002148:	6039      	str	r1, [r7, #0]
  uint32_t position;
  uint32_t ioposition = 0x00U;
 800214a:	2300      	movs	r3, #0
 800214c:	617b      	str	r3, [r7, #20]
  uint32_t iocurrent = 0x00U;
 800214e:	2300      	movs	r3, #0
 8002150:	613b      	str	r3, [r7, #16]
  uint32_t temp = 0x00U;
 8002152:	2300      	movs	r3, #0
 8002154:	61bb      	str	r3, [r7, #24]
  assert_param(IS_GPIO_PIN(GPIO_Init->Pin));
  assert_param(IS_GPIO_MODE(GPIO_Init->Mode));
  assert_param(IS_GPIO_PULL(GPIO_Init->Pull));

  /* Configure the port pins */
  for(position = 0U; position < GPIO_NUMBER; position++)
 8002156:	2300      	movs	r3, #0
 8002158:	61fb      	str	r3, [r7, #28]
 800215a:	e16b      	b.n	8002434 <HAL_GPIO_Init+0x2f4>
  {
    /* Get the IO position */
    ioposition = 0x01U << position;
 800215c:	2201      	movs	r2, #1
 800215e:	69fb      	ldr	r3, [r7, #28]
 8002160:	fa02 f303 	lsl.w	r3, r2, r3
 8002164:	617b      	str	r3, [r7, #20]
    /* Get the current IO position */
    iocurrent = (uint32_t)(GPIO_Init->Pin) & ioposition;
 8002166:	683b      	ldr	r3, [r7, #0]
 8002168:	681b      	ldr	r3, [r3, #0]
 800216a:	697a      	ldr	r2, [r7, #20]
 800216c:	4013      	ands	r3, r2
 800216e:	613b      	str	r3, [r7, #16]

    if(iocurrent == ioposition)
 8002170:	693a      	ldr	r2, [r7, #16]
 8002172:	697b      	ldr	r3, [r7, #20]
 8002174:	429a      	cmp	r2, r3
 8002176:	f040 815a 	bne.w	800242e <HAL_GPIO_Init+0x2ee>
    {
      /*--------------------- GPIO Mode Configuration ------------------------*/
      /* In case of Output or Alternate function mode selection */
      if(((GPIO_Init->Mode & GPIO_MODE) == MODE_OUTPUT) || \
 800217a:	683b      	ldr	r3, [r7, #0]
 800217c:	685b      	ldr	r3, [r3, #4]
 800217e:	f003 0303 	and.w	r3, r3, #3
 8002182:	2b01      	cmp	r3, #1
 8002184:	d005      	beq.n	8002192 <HAL_GPIO_Init+0x52>
          (GPIO_Init->Mode & GPIO_MODE) == MODE_AF)
 8002186:	683b      	ldr	r3, [r7, #0]
 8002188:	685b      	ldr	r3, [r3, #4]
 800218a:	f003 0303 	and.w	r3, r3, #3
      if(((GPIO_Init->Mode & GPIO_MODE) == MODE_OUTPUT) || \
 800218e:	2b02      	cmp	r3, #2
 8002190:	d130      	bne.n	80021f4 <HAL_GPIO_Init+0xb4>
      {
        /* Check the Speed parameter */
        assert_param(IS_GPIO_SPEED(GPIO_Init->Speed));
        /* Configure the IO Speed */
        temp = GPIOx->OSPEEDR; 
 8002192:	687b      	ldr	r3, [r7, #4]
 8002194:	689b      	ldr	r3, [r3, #8]
 8002196:	61bb      	str	r3, [r7, #24]
        temp &= ~(GPIO_OSPEEDER_OSPEEDR0 << (position * 2U));
 8002198:	69fb      	ldr	r3, [r7, #28]
 800219a:	005b      	lsls	r3, r3, #1
 800219c:	2203      	movs	r2, #3
 800219e:	fa02 f303 	lsl.w	r3, r2, r3
 80021a2:	43db      	mvns	r3, r3
 80021a4:	69ba      	ldr	r2, [r7, #24]
 80021a6:	4013      	ands	r3, r2
 80021a8:	61bb      	str	r3, [r7, #24]
        temp |= (GPIO_Init->Speed << (position * 2U));
 80021aa:	683b      	ldr	r3, [r7, #0]
 80021ac:	68da      	ldr	r2, [r3, #12]
 80021ae:	69fb      	ldr	r3, [r7, #28]
 80021b0:	005b      	lsls	r3, r3, #1
 80021b2:	fa02 f303 	lsl.w	r3, r2, r3
 80021b6:	69ba      	ldr	r2, [r7, #24]
 80021b8:	4313      	orrs	r3, r2
 80021ba:	61bb      	str	r3, [r7, #24]
        GPIOx->OSPEEDR = temp;
 80021bc:	687b      	ldr	r3, [r7, #4]
 80021be:	69ba      	ldr	r2, [r7, #24]
 80021c0:	609a      	str	r2, [r3, #8]

        /* Configure the IO Output Type */
        temp = GPIOx->OTYPER;
 80021c2:	687b      	ldr	r3, [r7, #4]
 80021c4:	685b      	ldr	r3, [r3, #4]
 80021c6:	61bb      	str	r3, [r7, #24]
        temp &= ~(GPIO_OTYPER_OT_0 << position) ;
 80021c8:	2201      	movs	r2, #1
 80021ca:	69fb      	ldr	r3, [r7, #28]
 80021cc:	fa02 f303 	lsl.w	r3, r2, r3
 80021d0:	43db      	mvns	r3, r3
 80021d2:	69ba      	ldr	r2, [r7, #24]
 80021d4:	4013      	ands	r3, r2
 80021d6:	61bb      	str	r3, [r7, #24]
        temp |= (((GPIO_Init->Mode & GPIO_OUTPUT_TYPE) >> 4U) << position);
 80021d8:	683b      	ldr	r3, [r7, #0]
 80021da:	685b      	ldr	r3, [r3, #4]
 80021dc:	091b      	lsrs	r3, r3, #4
 80021de:	f003 0201 	and.w	r2, r3, #1
 80021e2:	69fb      	ldr	r3, [r7, #28]
 80021e4:	fa02 f303 	lsl.w	r3, r2, r3
 80021e8:	69ba      	ldr	r2, [r7, #24]
 80021ea:	4313      	orrs	r3, r2
 80021ec:	61bb      	str	r3, [r7, #24]
        GPIOx->OTYPER = temp;
 80021ee:	687b      	ldr	r3, [r7, #4]
 80021f0:	69ba      	ldr	r2, [r7, #24]
 80021f2:	605a      	str	r2, [r3, #4]
       }

      if((GPIO_Init->Mode & GPIO_MODE) != MODE_ANALOG)
 80021f4:	683b      	ldr	r3, [r7, #0]
 80021f6:	685b      	ldr	r3, [r3, #4]
 80021f8:	f003 0303 	and.w	r3, r3, #3
 80021fc:	2b03      	cmp	r3, #3
 80021fe:	d017      	beq.n	8002230 <HAL_GPIO_Init+0xf0>
      {
        /* Activate the Pull-up or Pull down resistor for the current IO */
        temp = GPIOx->PUPDR;
 8002200:	687b      	ldr	r3, [r7, #4]
 8002202:	68db      	ldr	r3, [r3, #12]
 8002204:	61bb      	str	r3, [r7, #24]
        temp &= ~(GPIO_PUPDR_PUPDR0 << (position * 2U));
 8002206:	69fb      	ldr	r3, [r7, #28]
 8002208:	005b      	lsls	r3, r3, #1
 800220a:	2203      	movs	r2, #3
 800220c:	fa02 f303 	lsl.w	r3, r2, r3
 8002210:	43db      	mvns	r3, r3
 8002212:	69ba      	ldr	r2, [r7, #24]
 8002214:	4013      	ands	r3, r2
 8002216:	61bb      	str	r3, [r7, #24]
        temp |= ((GPIO_Init->Pull) << (position * 2U));
 8002218:	683b      	ldr	r3, [r7, #0]
 800221a:	689a      	ldr	r2, [r3, #8]
 800221c:	69fb      	ldr	r3, [r7, #28]
 800221e:	005b      	lsls	r3, r3, #1
 8002220:	fa02 f303 	lsl.w	r3, r2, r3
 8002224:	69ba      	ldr	r2, [r7, #24]
 8002226:	4313      	orrs	r3, r2
 8002228:	61bb      	str	r3, [r7, #24]
        GPIOx->PUPDR = temp;
 800222a:	687b      	ldr	r3, [r7, #4]
 800222c:	69ba      	ldr	r2, [r7, #24]
 800222e:	60da      	str	r2, [r3, #12]
      }

      /* In case of Alternate function mode selection */
      if((GPIO_Init->Mode & GPIO_MODE) == MODE_AF)
 8002230:	683b      	ldr	r3, [r7, #0]
 8002232:	685b      	ldr	r3, [r3, #4]
 8002234:	f003 0303 	and.w	r3, r3, #3
 8002238:	2b02      	cmp	r3, #2
 800223a:	d123      	bne.n	8002284 <HAL_GPIO_Init+0x144>
      {
        /* Check the Alternate function parameter */
        assert_param(IS_GPIO_AF(GPIO_Init->Alternate));
        /* Configure Alternate function mapped with the current IO */
        temp = GPIOx->AFR[position >> 3U];
 800223c:	69fb      	ldr	r3, [r7, #28]
 800223e:	08da      	lsrs	r2, r3, #3
 8002240:	687b      	ldr	r3, [r7, #4]
 8002242:	3208      	adds	r2, #8
 8002244:	f853 3022 	ldr.w	r3, [r3, r2, lsl #2]
 8002248:	61bb      	str	r3, [r7, #24]
        temp &= ~(0xFU << ((uint32_t)(position & 0x07U) * 4U)) ;
 800224a:	69fb      	ldr	r3, [r7, #28]
 800224c:	f003 0307 	and.w	r3, r3, #7
 8002250:	009b      	lsls	r3, r3, #2
 8002252:	220f      	movs	r2, #15
 8002254:	fa02 f303 	lsl.w	r3, r2, r3
 8002258:	43db      	mvns	r3, r3
 800225a:	69ba      	ldr	r2, [r7, #24]
 800225c:	4013      	ands	r3, r2
 800225e:	61bb      	str	r3, [r7, #24]
        temp |= ((uint32_t)(GPIO_Init->Alternate) << (((uint32_t)position & 0x07U) * 4U));
 8002260:	683b      	ldr	r3, [r7, #0]
 8002262:	691a      	ldr	r2, [r3, #16]
 8002264:	69fb      	ldr	r3, [r7, #28]
 8002266:	f003 0307 	and.w	r3, r3, #7
 800226a:	009b      	lsls	r3, r3, #2
 800226c:	fa02 f303 	lsl.w	r3, r2, r3
 8002270:	69ba      	ldr	r2, [r7, #24]
 8002272:	4313      	orrs	r3, r2
 8002274:	61bb      	str	r3, [r7, #24]
        GPIOx->AFR[position >> 3U] = temp;
 8002276:	69fb      	ldr	r3, [r7, #28]
 8002278:	08da      	lsrs	r2, r3, #3
 800227a:	687b      	ldr	r3, [r7, #4]
 800227c:	3208      	adds	r2, #8
 800227e:	69b9      	ldr	r1, [r7, #24]
 8002280:	f843 1022 	str.w	r1, [r3, r2, lsl #2]
      }

      /* Configure IO Direction mode (Input, Output, Alternate or Analog) */
      temp = GPIOx->MODER;
 8002284:	687b      	ldr	r3, [r7, #4]
 8002286:	681b      	ldr	r3, [r3, #0]
 8002288:	61bb      	str	r3, [r7, #24]
      temp &= ~(GPIO_MODER_MODER0 << (position * 2U));
 800228a:	69fb      	ldr	r3, [r7, #28]
 800228c:	005b      	lsls	r3, r3, #1
 800228e:	2203      	movs	r2, #3
 8002290:	fa02 f303 	lsl.w	r3, r2, r3
 8002294:	43db      	mvns	r3, r3
 8002296:	69ba      	ldr	r2, [r7, #24]
 8002298:	4013      	ands	r3, r2
 800229a:	61bb      	str	r3, [r7, #24]
      temp |= ((GPIO_Init->Mode & GPIO_MODE) << (position * 2U));
 800229c:	683b      	ldr	r3, [r7, #0]
 800229e:	685b      	ldr	r3, [r3, #4]
 80022a0:	f003 0203 	and.w	r2, r3, #3
 80022a4:	69fb      	ldr	r3, [r7, #28]
 80022a6:	005b      	lsls	r3, r3, #1
 80022a8:	fa02 f303 	lsl.w	r3, r2, r3
 80022ac:	69ba      	ldr	r2, [r7, #24]
 80022ae:	4313      	orrs	r3, r2
 80022b0:	61bb      	str	r3, [r7, #24]
      GPIOx->MODER = temp;
 80022b2:	687b      	ldr	r3, [r7, #4]
 80022b4:	69ba      	ldr	r2, [r7, #24]
 80022b6:	601a      	str	r2, [r3, #0]

      /*--------------------- EXTI Mode Configuration ------------------------*/
      /* Configure the External Interrupt or event for the current IO */
      if((GPIO_Init->Mode & EXTI_MODE) == EXTI_MODE)
 80022b8:	683b      	ldr	r3, [r7, #0]
 80022ba:	685b      	ldr	r3, [r3, #4]
 80022bc:	f003 5380 	and.w	r3, r3, #268435456	; 0x10000000
 80022c0:	2b00      	cmp	r3, #0
 80022c2:	f000 80b4 	beq.w	800242e <HAL_GPIO_Init+0x2ee>
      {
        /* Enable SYSCFG Clock */
        __HAL_RCC_SYSCFG_CLK_ENABLE();
 80022c6:	2300      	movs	r3, #0
 80022c8:	60fb      	str	r3, [r7, #12]
 80022ca:	4b60      	ldr	r3, [pc, #384]	; (800244c <HAL_GPIO_Init+0x30c>)
 80022cc:	6c5b      	ldr	r3, [r3, #68]	; 0x44
 80022ce:	4a5f      	ldr	r2, [pc, #380]	; (800244c <HAL_GPIO_Init+0x30c>)
 80022d0:	f443 4380 	orr.w	r3, r3, #16384	; 0x4000
 80022d4:	6453      	str	r3, [r2, #68]	; 0x44
 80022d6:	4b5d      	ldr	r3, [pc, #372]	; (800244c <HAL_GPIO_Init+0x30c>)
 80022d8:	6c5b      	ldr	r3, [r3, #68]	; 0x44
 80022da:	f403 4380 	and.w	r3, r3, #16384	; 0x4000
 80022de:	60fb      	str	r3, [r7, #12]
 80022e0:	68fb      	ldr	r3, [r7, #12]

        temp = SYSCFG->EXTICR[position >> 2U];
 80022e2:	4a5b      	ldr	r2, [pc, #364]	; (8002450 <HAL_GPIO_Init+0x310>)
 80022e4:	69fb      	ldr	r3, [r7, #28]
 80022e6:	089b      	lsrs	r3, r3, #2
 80022e8:	3302      	adds	r3, #2
 80022ea:	f852 3023 	ldr.w	r3, [r2, r3, lsl #2]
 80022ee:	61bb      	str	r3, [r7, #24]
        temp &= ~(0x0FU << (4U * (position & 0x03U)));
 80022f0:	69fb      	ldr	r3, [r7, #28]
 80022f2:	f003 0303 	and.w	r3, r3, #3
 80022f6:	009b      	lsls	r3, r3, #2
 80022f8:	220f      	movs	r2, #15
 80022fa:	fa02 f303 	lsl.w	r3, r2, r3
 80022fe:	43db      	mvns	r3, r3
 8002300:	69ba      	ldr	r2, [r7, #24]
 8002302:	4013      	ands	r3, r2
 8002304:	61bb      	str	r3, [r7, #24]
        temp |= ((uint32_t)(GPIO_GET_INDEX(GPIOx)) << (4U * (position & 0x03U)));
 8002306:	687b      	ldr	r3, [r7, #4]
 8002308:	4a52      	ldr	r2, [pc, #328]	; (8002454 <HAL_GPIO_Init+0x314>)
 800230a:	4293      	cmp	r3, r2
 800230c:	d02b      	beq.n	8002366 <HAL_GPIO_Init+0x226>
 800230e:	687b      	ldr	r3, [r7, #4]
 8002310:	4a51      	ldr	r2, [pc, #324]	; (8002458 <HAL_GPIO_Init+0x318>)
 8002312:	4293      	cmp	r3, r2
 8002314:	d025      	beq.n	8002362 <HAL_GPIO_Init+0x222>
 8002316:	687b      	ldr	r3, [r7, #4]
 8002318:	4a50      	ldr	r2, [pc, #320]	; (800245c <HAL_GPIO_Init+0x31c>)
 800231a:	4293      	cmp	r3, r2
 800231c:	d01f      	beq.n	800235e <HAL_GPIO_Init+0x21e>
 800231e:	687b      	ldr	r3, [r7, #4]
 8002320:	4a4f      	ldr	r2, [pc, #316]	; (8002460 <HAL_GPIO_Init+0x320>)
 8002322:	4293      	cmp	r3, r2
 8002324:	d019      	beq.n	800235a <HAL_GPIO_Init+0x21a>
 8002326:	687b      	ldr	r3, [r7, #4]
 8002328:	4a4e      	ldr	r2, [pc, #312]	; (8002464 <HAL_GPIO_Init+0x324>)
 800232a:	4293      	cmp	r3, r2
 800232c:	d013      	beq.n	8002356 <HAL_GPIO_Init+0x216>
 800232e:	687b      	ldr	r3, [r7, #4]
 8002330:	4a4d      	ldr	r2, [pc, #308]	; (8002468 <HAL_GPIO_Init+0x328>)
 8002332:	4293      	cmp	r3, r2
 8002334:	d00d      	beq.n	8002352 <HAL_GPIO_Init+0x212>
 8002336:	687b      	ldr	r3, [r7, #4]
 8002338:	4a4c      	ldr	r2, [pc, #304]	; (800246c <HAL_GPIO_Init+0x32c>)
 800233a:	4293      	cmp	r3, r2
 800233c:	d007      	beq.n	800234e <HAL_GPIO_Init+0x20e>
 800233e:	687b      	ldr	r3, [r7, #4]
 8002340:	4a4b      	ldr	r2, [pc, #300]	; (8002470 <HAL_GPIO_Init+0x330>)
 8002342:	4293      	cmp	r3, r2
 8002344:	d101      	bne.n	800234a <HAL_GPIO_Init+0x20a>
 8002346:	2307      	movs	r3, #7
 8002348:	e00e      	b.n	8002368 <HAL_GPIO_Init+0x228>
 800234a:	2308      	movs	r3, #8
 800234c:	e00c      	b.n	8002368 <HAL_GPIO_Init+0x228>
 800234e:	2306      	movs	r3, #6
 8002350:	e00a      	b.n	8002368 <HAL_GPIO_Init+0x228>
 8002352:	2305      	movs	r3, #5
 8002354:	e008      	b.n	8002368 <HAL_GPIO_Init+0x228>
 8002356:	2304      	movs	r3, #4
 8002358:	e006      	b.n	8002368 <HAL_GPIO_Init+0x228>
 800235a:	2303      	movs	r3, #3
 800235c:	e004      	b.n	8002368 <HAL_GPIO_Init+0x228>
 800235e:	2302      	movs	r3, #2
 8002360:	e002      	b.n	8002368 <HAL_GPIO_Init+0x228>
 8002362:	2301      	movs	r3, #1
 8002364:	e000      	b.n	8002368 <HAL_GPIO_Init+0x228>
 8002366:	2300      	movs	r3, #0
 8002368:	69fa      	ldr	r2, [r7, #28]
 800236a:	f002 0203 	and.w	r2, r2, #3
 800236e:	0092      	lsls	r2, r2, #2
 8002370:	4093      	lsls	r3, r2
 8002372:	69ba      	ldr	r2, [r7, #24]
 8002374:	4313      	orrs	r3, r2
 8002376:	61bb      	str	r3, [r7, #24]
        SYSCFG->EXTICR[position >> 2U] = temp;
 8002378:	4935      	ldr	r1, [pc, #212]	; (8002450 <HAL_GPIO_Init+0x310>)
 800237a:	69fb      	ldr	r3, [r7, #28]
 800237c:	089b      	lsrs	r3, r3, #2
 800237e:	3302      	adds	r3, #2
 8002380:	69ba      	ldr	r2, [r7, #24]
 8002382:	f841 2023 	str.w	r2, [r1, r3, lsl #2]

        /* Clear EXTI line configuration */
        temp = EXTI->IMR;
 8002386:	4b3b      	ldr	r3, [pc, #236]	; (8002474 <HAL_GPIO_Init+0x334>)
 8002388:	681b      	ldr	r3, [r3, #0]
 800238a:	61bb      	str	r3, [r7, #24]
        temp &= ~((uint32_t)iocurrent);
 800238c:	693b      	ldr	r3, [r7, #16]
 800238e:	43db      	mvns	r3, r3
 8002390:	69ba      	ldr	r2, [r7, #24]
 8002392:	4013      	ands	r3, r2
 8002394:	61bb      	str	r3, [r7, #24]
        if((GPIO_Init->Mode & GPIO_MODE_IT) == GPIO_MODE_IT)
 8002396:	683b      	ldr	r3, [r7, #0]
 8002398:	685b      	ldr	r3, [r3, #4]
 800239a:	f403 3380 	and.w	r3, r3, #65536	; 0x10000
 800239e:	2b00      	cmp	r3, #0
 80023a0:	d003      	beq.n	80023aa <HAL_GPIO_Init+0x26a>
        {
          temp |= iocurrent;
 80023a2:	69ba      	ldr	r2, [r7, #24]
 80023a4:	693b      	ldr	r3, [r7, #16]
 80023a6:	4313      	orrs	r3, r2
 80023a8:	61bb      	str	r3, [r7, #24]
        }
        EXTI->IMR = temp;
 80023aa:	4a32      	ldr	r2, [pc, #200]	; (8002474 <HAL_GPIO_Init+0x334>)
 80023ac:	69bb      	ldr	r3, [r7, #24]
 80023ae:	6013      	str	r3, [r2, #0]

        temp = EXTI->EMR;
 80023b0:	4b30      	ldr	r3, [pc, #192]	; (8002474 <HAL_GPIO_Init+0x334>)
 80023b2:	685b      	ldr	r3, [r3, #4]
 80023b4:	61bb      	str	r3, [r7, #24]
        temp &= ~((uint32_t)iocurrent);
 80023b6:	693b      	ldr	r3, [r7, #16]
 80023b8:	43db      	mvns	r3, r3
 80023ba:	69ba      	ldr	r2, [r7, #24]
 80023bc:	4013      	ands	r3, r2
 80023be:	61bb      	str	r3, [r7, #24]
        if((GPIO_Init->Mode & GPIO_MODE_EVT) == GPIO_MODE_EVT)
 80023c0:	683b      	ldr	r3, [r7, #0]
 80023c2:	685b      	ldr	r3, [r3, #4]
 80023c4:	f403 3300 	and.w	r3, r3, #131072	; 0x20000
 80023c8:	2b00      	cmp	r3, #0
 80023ca:	d003      	beq.n	80023d4 <HAL_GPIO_Init+0x294>
        {
          temp |= iocurrent;
 80023cc:	69ba      	ldr	r2, [r7, #24]
 80023ce:	693b      	ldr	r3, [r7, #16]
 80023d0:	4313      	orrs	r3, r2
 80023d2:	61bb      	str	r3, [r7, #24]
        }
        EXTI->EMR = temp;
 80023d4:	4a27      	ldr	r2, [pc, #156]	; (8002474 <HAL_GPIO_Init+0x334>)
 80023d6:	69bb      	ldr	r3, [r7, #24]
 80023d8:	6053      	str	r3, [r2, #4]

        /* Clear Rising Falling edge configuration */
        temp = EXTI->RTSR;
 80023da:	4b26      	ldr	r3, [pc, #152]	; (8002474 <HAL_GPIO_Init+0x334>)
 80023dc:	689b      	ldr	r3, [r3, #8]
 80023de:	61bb      	str	r3, [r7, #24]
        temp &= ~((uint32_t)iocurrent);
 80023e0:	693b      	ldr	r3, [r7, #16]
 80023e2:	43db      	mvns	r3, r3
 80023e4:	69ba      	ldr	r2, [r7, #24]
 80023e6:	4013      	ands	r3, r2
 80023e8:	61bb      	str	r3, [r7, #24]
        if((GPIO_Init->Mode & RISING_EDGE) == RISING_EDGE)
 80023ea:	683b      	ldr	r3, [r7, #0]
 80023ec:	685b      	ldr	r3, [r3, #4]
 80023ee:	f403 1380 	and.w	r3, r3, #1048576	; 0x100000
 80023f2:	2b00      	cmp	r3, #0
 80023f4:	d003      	beq.n	80023fe <HAL_GPIO_Init+0x2be>
        {
          temp |= iocurrent;
 80023f6:	69ba      	ldr	r2, [r7, #24]
 80023f8:	693b      	ldr	r3, [r7, #16]
 80023fa:	4313      	orrs	r3, r2
 80023fc:	61bb      	str	r3, [r7, #24]
        }
        EXTI->RTSR = temp;
 80023fe:	4a1d      	ldr	r2, [pc, #116]	; (8002474 <HAL_GPIO_Init+0x334>)
 8002400:	69bb      	ldr	r3, [r7, #24]
 8002402:	6093      	str	r3, [r2, #8]

        temp = EXTI->FTSR;
 8002404:	4b1b      	ldr	r3, [pc, #108]	; (8002474 <HAL_GPIO_Init+0x334>)
 8002406:	68db      	ldr	r3, [r3, #12]
 8002408:	61bb      	str	r3, [r7, #24]
        temp &= ~((uint32_t)iocurrent);
 800240a:	693b      	ldr	r3, [r7, #16]
 800240c:	43db      	mvns	r3, r3
 800240e:	69ba      	ldr	r2, [r7, #24]
 8002410:	4013      	ands	r3, r2
 8002412:	61bb      	str	r3, [r7, #24]
        if((GPIO_Init->Mode & FALLING_EDGE) == FALLING_EDGE)
 8002414:	683b      	ldr	r3, [r7, #0]
 8002416:	685b      	ldr	r3, [r3, #4]
 8002418:	f403 1300 	and.w	r3, r3, #2097152	; 0x200000
 800241c:	2b00      	cmp	r3, #0
 800241e:	d003      	beq.n	8002428 <HAL_GPIO_Init+0x2e8>
        {
          temp |= iocurrent;
 8002420:	69ba      	ldr	r2, [r7, #24]
 8002422:	693b      	ldr	r3, [r7, #16]
 8002424:	4313      	orrs	r3, r2
 8002426:	61bb      	str	r3, [r7, #24]
        }
        EXTI->FTSR = temp;
 8002428:	4a12      	ldr	r2, [pc, #72]	; (8002474 <HAL_GPIO_Init+0x334>)
 800242a:	69bb      	ldr	r3, [r7, #24]
 800242c:	60d3      	str	r3, [r2, #12]
  for(position = 0U; position < GPIO_NUMBER; position++)
 800242e:	69fb      	ldr	r3, [r7, #28]
 8002430:	3301      	adds	r3, #1
 8002432:	61fb      	str	r3, [r7, #28]
 8002434:	69fb      	ldr	r3, [r7, #28]
 8002436:	2b0f      	cmp	r3, #15
 8002438:	f67f ae90 	bls.w	800215c <HAL_GPIO_Init+0x1c>
      }
    }
  }
}
 800243c:	bf00      	nop
 800243e:	bf00      	nop
 8002440:	3724      	adds	r7, #36	; 0x24
 8002442:	46bd      	mov	sp, r7
 8002444:	f85d 7b04 	ldr.w	r7, [sp], #4
 8002448:	4770      	bx	lr
 800244a:	bf00      	nop
 800244c:	40023800 	.word	0x40023800
 8002450:	40013800 	.word	0x40013800
 8002454:	40020000 	.word	0x40020000
 8002458:	40020400 	.word	0x40020400
 800245c:	40020800 	.word	0x40020800
 8002460:	40020c00 	.word	0x40020c00
 8002464:	40021000 	.word	0x40021000
 8002468:	40021400 	.word	0x40021400
 800246c:	40021800 	.word	0x40021800
 8002470:	40021c00 	.word	0x40021c00
 8002474:	40013c00 	.word	0x40013c00

08002478 <HAL_GPIO_ReadPin>:
  * @param  GPIO_Pin specifies the port bit to read.
  *         This parameter can be GPIO_PIN_x where x can be (0..15).
  * @retval The input port pin value.
  */
GPIO_PinState HAL_GPIO_ReadPin(GPIO_TypeDef* GPIOx, uint16_t GPIO_Pin)
{
 8002478:	b480      	push	{r7}
 800247a:	b085      	sub	sp, #20
 800247c:	af00      	add	r7, sp, #0
 800247e:	6078      	str	r0, [r7, #4]
 8002480:	460b      	mov	r3, r1
 8002482:	807b      	strh	r3, [r7, #2]
  GPIO_PinState bitstatus;

  /* Check the parameters */
  assert_param(IS_GPIO_PIN(GPIO_Pin));

  if((GPIOx->IDR & GPIO_Pin) != (uint32_t)GPIO_PIN_RESET)
 8002484:	687b      	ldr	r3, [r7, #4]
 8002486:	691a      	ldr	r2, [r3, #16]
 8002488:	887b      	ldrh	r3, [r7, #2]
 800248a:	4013      	ands	r3, r2
 800248c:	2b00      	cmp	r3, #0
 800248e:	d002      	beq.n	8002496 <HAL_GPIO_ReadPin+0x1e>
  {
    bitstatus = GPIO_PIN_SET;
 8002490:	2301      	movs	r3, #1
 8002492:	73fb      	strb	r3, [r7, #15]
 8002494:	e001      	b.n	800249a <HAL_GPIO_ReadPin+0x22>
  }
  else
  {
    bitstatus = GPIO_PIN_RESET;
 8002496:	2300      	movs	r3, #0
 8002498:	73fb      	strb	r3, [r7, #15]
  }
  return bitstatus;
 800249a:	7bfb      	ldrb	r3, [r7, #15]
}
 800249c:	4618      	mov	r0, r3
 800249e:	3714      	adds	r7, #20
 80024a0:	46bd      	mov	sp, r7
 80024a2:	f85d 7b04 	ldr.w	r7, [sp], #4
 80024a6:	4770      	bx	lr

080024a8 <HAL_GPIO_WritePin>:
  *            @arg GPIO_PIN_RESET: to clear the port pin
  *            @arg GPIO_PIN_SET: to set the port pin
  * @retval None
  */
void HAL_GPIO_WritePin(GPIO_TypeDef* GPIOx, uint16_t GPIO_Pin, GPIO_PinState PinState)
{
 80024a8:	b480      	push	{r7}
 80024aa:	b083      	sub	sp, #12
 80024ac:	af00      	add	r7, sp, #0
 80024ae:	6078      	str	r0, [r7, #4]
 80024b0:	460b      	mov	r3, r1
 80024b2:	807b      	strh	r3, [r7, #2]
 80024b4:	4613      	mov	r3, r2
 80024b6:	707b      	strb	r3, [r7, #1]
  /* Check the parameters */
  assert_param(IS_GPIO_PIN(GPIO_Pin));
  assert_param(IS_GPIO_PIN_ACTION(PinState));

  if(PinState != GPIO_PIN_RESET)
 80024b8:	787b      	ldrb	r3, [r7, #1]
 80024ba:	2b00      	cmp	r3, #0
 80024bc:	d003      	beq.n	80024c6 <HAL_GPIO_WritePin+0x1e>
  {
    GPIOx->BSRR = GPIO_Pin;
 80024be:	887a      	ldrh	r2, [r7, #2]
 80024c0:	687b      	ldr	r3, [r7, #4]
 80024c2:	619a      	str	r2, [r3, #24]
  }
  else
  {
    GPIOx->BSRR = (uint32_t)GPIO_Pin << 16U;
  }
}
 80024c4:	e003      	b.n	80024ce <HAL_GPIO_WritePin+0x26>
    GPIOx->BSRR = (uint32_t)GPIO_Pin << 16U;
 80024c6:	887b      	ldrh	r3, [r7, #2]
 80024c8:	041a      	lsls	r2, r3, #16
 80024ca:	687b      	ldr	r3, [r7, #4]
 80024cc:	619a      	str	r2, [r3, #24]
}
 80024ce:	bf00      	nop
 80024d0:	370c      	adds	r7, #12
 80024d2:	46bd      	mov	sp, r7
 80024d4:	f85d 7b04 	ldr.w	r7, [sp], #4
 80024d8:	4770      	bx	lr

080024da <HAL_GPIO_TogglePin>:
  *                      x can be (A..I) to select the GPIO peripheral for STM32F40XX and STM32F427X devices.
  * @param  GPIO_Pin Specifies the pins to be toggled.
  * @retval None
  */
void HAL_GPIO_TogglePin(GPIO_TypeDef* GPIOx, uint16_t GPIO_Pin)
{
 80024da:	b480      	push	{r7}
 80024dc:	b085      	sub	sp, #20
 80024de:	af00      	add	r7, sp, #0
 80024e0:	6078      	str	r0, [r7, #4]
 80024e2:	460b      	mov	r3, r1
 80024e4:	807b      	strh	r3, [r7, #2]

  /* Check the parameters */
  assert_param(IS_GPIO_PIN(GPIO_Pin));

  /* get current Ouput Data Register value */
  odr = GPIOx->ODR;
 80024e6:	687b      	ldr	r3, [r7, #4]
 80024e8:	695b      	ldr	r3, [r3, #20]
 80024ea:	60fb      	str	r3, [r7, #12]

  /* Set selected pins that were at low level, and reset ones that were high */
  GPIOx->BSRR = ((odr & GPIO_Pin) << GPIO_NUMBER) | (~odr & GPIO_Pin);
 80024ec:	887a      	ldrh	r2, [r7, #2]
 80024ee:	68fb      	ldr	r3, [r7, #12]
 80024f0:	4013      	ands	r3, r2
 80024f2:	041a      	lsls	r2, r3, #16
 80024f4:	68fb      	ldr	r3, [r7, #12]
 80024f6:	43d9      	mvns	r1, r3
 80024f8:	887b      	ldrh	r3, [r7, #2]
 80024fa:	400b      	ands	r3, r1
 80024fc:	431a      	orrs	r2, r3
 80024fe:	687b      	ldr	r3, [r7, #4]
 8002500:	619a      	str	r2, [r3, #24]
}
 8002502:	bf00      	nop
 8002504:	3714      	adds	r7, #20
 8002506:	46bd      	mov	sp, r7
 8002508:	f85d 7b04 	ldr.w	r7, [sp], #4
 800250c:	4770      	bx	lr
	...

08002510 <HAL_GPIO_EXTI_IRQHandler>:
  * @brief  This function handles EXTI interrupt request.
  * @param  GPIO_Pin Specifies the pins connected EXTI line
  * @retval None
  */
void HAL_GPIO_EXTI_IRQHandler(uint16_t GPIO_Pin)
{
 8002510:	b580      	push	{r7, lr}
 8002512:	b082      	sub	sp, #8
 8002514:	af00      	add	r7, sp, #0
 8002516:	4603      	mov	r3, r0
 8002518:	80fb      	strh	r3, [r7, #6]
  /* EXTI line interrupt detected */
  if(__HAL_GPIO_EXTI_GET_IT(GPIO_Pin) != RESET)
 800251a:	4b08      	ldr	r3, [pc, #32]	; (800253c <HAL_GPIO_EXTI_IRQHandler+0x2c>)
 800251c:	695a      	ldr	r2, [r3, #20]
 800251e:	88fb      	ldrh	r3, [r7, #6]
 8002520:	4013      	ands	r3, r2
 8002522:	2b00      	cmp	r3, #0
 8002524:	d006      	beq.n	8002534 <HAL_GPIO_EXTI_IRQHandler+0x24>
  {
    __HAL_GPIO_EXTI_CLEAR_IT(GPIO_Pin);
 8002526:	4a05      	ldr	r2, [pc, #20]	; (800253c <HAL_GPIO_EXTI_IRQHandler+0x2c>)
 8002528:	88fb      	ldrh	r3, [r7, #6]
 800252a:	6153      	str	r3, [r2, #20]
    HAL_GPIO_EXTI_Callback(GPIO_Pin);
 800252c:	88fb      	ldrh	r3, [r7, #6]
 800252e:	4618      	mov	r0, r3
 8002530:	f000 f806 	bl	8002540 <HAL_GPIO_EXTI_Callback>
  }
}
 8002534:	bf00      	nop
 8002536:	3708      	adds	r7, #8
 8002538:	46bd      	mov	sp, r7
 800253a:	bd80      	pop	{r7, pc}
 800253c:	40013c00 	.word	0x40013c00

08002540 <HAL_GPIO_EXTI_Callback>:
  * @brief  EXTI line detection callbacks.
  * @param  GPIO_Pin Specifies the pins connected EXTI line
  * @retval None
  */
__weak void HAL_GPIO_EXTI_Callback(uint16_t GPIO_Pin)
{
 8002540:	b480      	push	{r7}
 8002542:	b083      	sub	sp, #12
 8002544:	af00      	add	r7, sp, #0
 8002546:	4603      	mov	r3, r0
 8002548:	80fb      	strh	r3, [r7, #6]
  /* Prevent unused argument(s) compilation warning */
  UNUSED(GPIO_Pin);
  /* NOTE: This function Should not be modified, when the callback is needed,
           the HAL_GPIO_EXTI_Callback could be implemented in the user file
   */
}
 800254a:	bf00      	nop
 800254c:	370c      	adds	r7, #12
 800254e:	46bd      	mov	sp, r7
 8002550:	f85d 7b04 	ldr.w	r7, [sp], #4
 8002554:	4770      	bx	lr
	...

08002558 <HAL_RCC_OscConfig>:
  *         supported by this API. User should request a transition to HSE Off
  *         first and then HSE On or HSE Bypass.
  * @retval HAL status
  */
__weak HAL_StatusTypeDef HAL_RCC_OscConfig(RCC_OscInitTypeDef  *RCC_OscInitStruct)
{
 8002558:	b580      	push	{r7, lr}
 800255a:	b086      	sub	sp, #24
 800255c:	af00      	add	r7, sp, #0
 800255e:	6078      	str	r0, [r7, #4]
  uint32_t tickstart, pll_config;

  /* Check Null pointer */
  if(RCC_OscInitStruct == NULL)
 8002560:	687b      	ldr	r3, [r7, #4]
 8002562:	2b00      	cmp	r3, #0
 8002564:	d101      	bne.n	800256a <HAL_RCC_OscConfig+0x12>
  {
    return HAL_ERROR;
 8002566:	2301      	movs	r3, #1
 8002568:	e264      	b.n	8002a34 <HAL_RCC_OscConfig+0x4dc>
  }

  /* Check the parameters */
  assert_param(IS_RCC_OSCILLATORTYPE(RCC_OscInitStruct->OscillatorType));
  /*------------------------------- HSE Configuration ------------------------*/
  if(((RCC_OscInitStruct->OscillatorType) & RCC_OSCILLATORTYPE_HSE) == RCC_OSCILLATORTYPE_HSE)
 800256a:	687b      	ldr	r3, [r7, #4]
 800256c:	681b      	ldr	r3, [r3, #0]
 800256e:	f003 0301 	and.w	r3, r3, #1
 8002572:	2b00      	cmp	r3, #0
 8002574:	d075      	beq.n	8002662 <HAL_RCC_OscConfig+0x10a>
  {
    /* Check the parameters */
    assert_param(IS_RCC_HSE(RCC_OscInitStruct->HSEState));
    /* When the HSE is used as system clock or clock source for PLL in these cases HSE will not disabled */
    if((__HAL_RCC_GET_SYSCLK_SOURCE() == RCC_CFGR_SWS_HSE) ||\
 8002576:	4ba3      	ldr	r3, [pc, #652]	; (8002804 <HAL_RCC_OscConfig+0x2ac>)
 8002578:	689b      	ldr	r3, [r3, #8]
 800257a:	f003 030c 	and.w	r3, r3, #12
 800257e:	2b04      	cmp	r3, #4
 8002580:	d00c      	beq.n	800259c <HAL_RCC_OscConfig+0x44>
      ((__HAL_RCC_GET_SYSCLK_SOURCE() == RCC_CFGR_SWS_PLL) && ((RCC->PLLCFGR & RCC_PLLCFGR_PLLSRC) == RCC_PLLCFGR_PLLSRC_HSE)))
 8002582:	4ba0      	ldr	r3, [pc, #640]	; (8002804 <HAL_RCC_OscConfig+0x2ac>)
 8002584:	689b      	ldr	r3, [r3, #8]
 8002586:	f003 030c 	and.w	r3, r3, #12
    if((__HAL_RCC_GET_SYSCLK_SOURCE() == RCC_CFGR_SWS_HSE) ||\
 800258a:	2b08      	cmp	r3, #8
 800258c:	d112      	bne.n	80025b4 <HAL_RCC_OscConfig+0x5c>
      ((__HAL_RCC_GET_SYSCLK_SOURCE() == RCC_CFGR_SWS_PLL) && ((RCC->PLLCFGR & RCC_PLLCFGR_PLLSRC) == RCC_PLLCFGR_PLLSRC_HSE)))
 800258e:	4b9d      	ldr	r3, [pc, #628]	; (8002804 <HAL_RCC_OscConfig+0x2ac>)
 8002590:	685b      	ldr	r3, [r3, #4]
 8002592:	f403 0380 	and.w	r3, r3, #4194304	; 0x400000
 8002596:	f5b3 0f80 	cmp.w	r3, #4194304	; 0x400000
 800259a:	d10b      	bne.n	80025b4 <HAL_RCC_OscConfig+0x5c>
    {
      if((__HAL_RCC_GET_FLAG(RCC_FLAG_HSERDY) != RESET) && (RCC_OscInitStruct->HSEState == RCC_HSE_OFF))
 800259c:	4b99      	ldr	r3, [pc, #612]	; (8002804 <HAL_RCC_OscConfig+0x2ac>)
 800259e:	681b      	ldr	r3, [r3, #0]
 80025a0:	f403 3300 	and.w	r3, r3, #131072	; 0x20000
 80025a4:	2b00      	cmp	r3, #0
 80025a6:	d05b      	beq.n	8002660 <HAL_RCC_OscConfig+0x108>
 80025a8:	687b      	ldr	r3, [r7, #4]
 80025aa:	685b      	ldr	r3, [r3, #4]
 80025ac:	2b00      	cmp	r3, #0
 80025ae:	d157      	bne.n	8002660 <HAL_RCC_OscConfig+0x108>
      {
        return HAL_ERROR;
 80025b0:	2301      	movs	r3, #1
 80025b2:	e23f      	b.n	8002a34 <HAL_RCC_OscConfig+0x4dc>
      }
    }
    else
    {
      /* Set the new HSE configuration ---------------------------------------*/
      __HAL_RCC_HSE_CONFIG(RCC_OscInitStruct->HSEState);
 80025b4:	687b      	ldr	r3, [r7, #4]
 80025b6:	685b      	ldr	r3, [r3, #4]
 80025b8:	f5b3 3f80 	cmp.w	r3, #65536	; 0x10000
 80025bc:	d106      	bne.n	80025cc <HAL_RCC_OscConfig+0x74>
 80025be:	4b91      	ldr	r3, [pc, #580]	; (8002804 <HAL_RCC_OscConfig+0x2ac>)
 80025c0:	681b      	ldr	r3, [r3, #0]
 80025c2:	4a90      	ldr	r2, [pc, #576]	; (8002804 <HAL_RCC_OscConfig+0x2ac>)
 80025c4:	f443 3380 	orr.w	r3, r3, #65536	; 0x10000
 80025c8:	6013      	str	r3, [r2, #0]
 80025ca:	e01d      	b.n	8002608 <HAL_RCC_OscConfig+0xb0>
 80025cc:	687b      	ldr	r3, [r7, #4]
 80025ce:	685b      	ldr	r3, [r3, #4]
 80025d0:	f5b3 2fa0 	cmp.w	r3, #327680	; 0x50000
 80025d4:	d10c      	bne.n	80025f0 <HAL_RCC_OscConfig+0x98>
 80025d6:	4b8b      	ldr	r3, [pc, #556]	; (8002804 <HAL_RCC_OscConfig+0x2ac>)
 80025d8:	681b      	ldr	r3, [r3, #0]
 80025da:	4a8a      	ldr	r2, [pc, #552]	; (8002804 <HAL_RCC_OscConfig+0x2ac>)
 80025dc:	f443 2380 	orr.w	r3, r3, #262144	; 0x40000
 80025e0:	6013      	str	r3, [r2, #0]
 80025e2:	4b88      	ldr	r3, [pc, #544]	; (8002804 <HAL_RCC_OscConfig+0x2ac>)
 80025e4:	681b      	ldr	r3, [r3, #0]
 80025e6:	4a87      	ldr	r2, [pc, #540]	; (8002804 <HAL_RCC_OscConfig+0x2ac>)
 80025e8:	f443 3380 	orr.w	r3, r3, #65536	; 0x10000
 80025ec:	6013      	str	r3, [r2, #0]
 80025ee:	e00b      	b.n	8002608 <HAL_RCC_OscConfig+0xb0>
 80025f0:	4b84      	ldr	r3, [pc, #528]	; (8002804 <HAL_RCC_OscConfig+0x2ac>)
 80025f2:	681b      	ldr	r3, [r3, #0]
 80025f4:	4a83      	ldr	r2, [pc, #524]	; (8002804 <HAL_RCC_OscConfig+0x2ac>)
 80025f6:	f423 3380 	bic.w	r3, r3, #65536	; 0x10000
 80025fa:	6013      	str	r3, [r2, #0]
 80025fc:	4b81      	ldr	r3, [pc, #516]	; (8002804 <HAL_RCC_OscConfig+0x2ac>)
 80025fe:	681b      	ldr	r3, [r3, #0]
 8002600:	4a80      	ldr	r2, [pc, #512]	; (8002804 <HAL_RCC_OscConfig+0x2ac>)
 8002602:	f423 2380 	bic.w	r3, r3, #262144	; 0x40000
 8002606:	6013      	str	r3, [r2, #0]

      /* Check the HSE State */
      if((RCC_OscInitStruct->HSEState) != RCC_HSE_OFF)
 8002608:	687b      	ldr	r3, [r7, #4]
 800260a:	685b      	ldr	r3, [r3, #4]
 800260c:	2b00      	cmp	r3, #0
 800260e:	d013      	beq.n	8002638 <HAL_RCC_OscConfig+0xe0>
      {
        /* Get Start Tick */
        tickstart = HAL_GetTick();
 8002610:	f7ff fb90 	bl	8001d34 <HAL_GetTick>
 8002614:	6138      	str	r0, [r7, #16]

        /* Wait till HSE is ready */
        while(__HAL_RCC_GET_FLAG(RCC_FLAG_HSERDY) == RESET)
 8002616:	e008      	b.n	800262a <HAL_RCC_OscConfig+0xd2>
        {
          if((HAL_GetTick() - tickstart ) > HSE_TIMEOUT_VALUE)
 8002618:	f7ff fb8c 	bl	8001d34 <HAL_GetTick>
 800261c:	4602      	mov	r2, r0
 800261e:	693b      	ldr	r3, [r7, #16]
 8002620:	1ad3      	subs	r3, r2, r3
 8002622:	2b64      	cmp	r3, #100	; 0x64
 8002624:	d901      	bls.n	800262a <HAL_RCC_OscConfig+0xd2>
          {
            return HAL_TIMEOUT;
 8002626:	2303      	movs	r3, #3
 8002628:	e204      	b.n	8002a34 <HAL_RCC_OscConfig+0x4dc>
        while(__HAL_RCC_GET_FLAG(RCC_FLAG_HSERDY) == RESET)
 800262a:	4b76      	ldr	r3, [pc, #472]	; (8002804 <HAL_RCC_OscConfig+0x2ac>)
 800262c:	681b      	ldr	r3, [r3, #0]
 800262e:	f403 3300 	and.w	r3, r3, #131072	; 0x20000
 8002632:	2b00      	cmp	r3, #0
 8002634:	d0f0      	beq.n	8002618 <HAL_RCC_OscConfig+0xc0>
 8002636:	e014      	b.n	8002662 <HAL_RCC_OscConfig+0x10a>
        }
      }
      else
      {
        /* Get Start Tick */
        tickstart = HAL_GetTick();
 8002638:	f7ff fb7c 	bl	8001d34 <HAL_GetTick>
 800263c:	6138      	str	r0, [r7, #16]

        /* Wait till HSE is bypassed or disabled */
        while(__HAL_RCC_GET_FLAG(RCC_FLAG_HSERDY) != RESET)
 800263e:	e008      	b.n	8002652 <HAL_RCC_OscConfig+0xfa>
        {
          if((HAL_GetTick() - tickstart ) > HSE_TIMEOUT_VALUE)
 8002640:	f7ff fb78 	bl	8001d34 <HAL_GetTick>
 8002644:	4602      	mov	r2, r0
 8002646:	693b      	ldr	r3, [r7, #16]
 8002648:	1ad3      	subs	r3, r2, r3
 800264a:	2b64      	cmp	r3, #100	; 0x64
 800264c:	d901      	bls.n	8002652 <HAL_RCC_OscConfig+0xfa>
          {
            return HAL_TIMEOUT;
 800264e:	2303      	movs	r3, #3
 8002650:	e1f0      	b.n	8002a34 <HAL_RCC_OscConfig+0x4dc>
        while(__HAL_RCC_GET_FLAG(RCC_FLAG_HSERDY) != RESET)
 8002652:	4b6c      	ldr	r3, [pc, #432]	; (8002804 <HAL_RCC_OscConfig+0x2ac>)
 8002654:	681b      	ldr	r3, [r3, #0]
 8002656:	f403 3300 	and.w	r3, r3, #131072	; 0x20000
 800265a:	2b00      	cmp	r3, #0
 800265c:	d1f0      	bne.n	8002640 <HAL_RCC_OscConfig+0xe8>
 800265e:	e000      	b.n	8002662 <HAL_RCC_OscConfig+0x10a>
      if((__HAL_RCC_GET_FLAG(RCC_FLAG_HSERDY) != RESET) && (RCC_OscInitStruct->HSEState == RCC_HSE_OFF))
 8002660:	bf00      	nop
        }
      }
    }
  }
  /*----------------------------- HSI Configuration --------------------------*/
  if(((RCC_OscInitStruct->OscillatorType) & RCC_OSCILLATORTYPE_HSI) == RCC_OSCILLATORTYPE_HSI)
 8002662:	687b      	ldr	r3, [r7, #4]
 8002664:	681b      	ldr	r3, [r3, #0]
 8002666:	f003 0302 	and.w	r3, r3, #2
 800266a:	2b00      	cmp	r3, #0
 800266c:	d063      	beq.n	8002736 <HAL_RCC_OscConfig+0x1de>
    /* Check the parameters */
    assert_param(IS_RCC_HSI(RCC_OscInitStruct->HSIState));
    assert_param(IS_RCC_CALIBRATION_VALUE(RCC_OscInitStruct->HSICalibrationValue));

    /* Check if HSI is used as system clock or as PLL source when PLL is selected as system clock */
    if((__HAL_RCC_GET_SYSCLK_SOURCE() == RCC_CFGR_SWS_HSI) ||\
 800266e:	4b65      	ldr	r3, [pc, #404]	; (8002804 <HAL_RCC_OscConfig+0x2ac>)
 8002670:	689b      	ldr	r3, [r3, #8]
 8002672:	f003 030c 	and.w	r3, r3, #12
 8002676:	2b00      	cmp	r3, #0
 8002678:	d00b      	beq.n	8002692 <HAL_RCC_OscConfig+0x13a>
      ((__HAL_RCC_GET_SYSCLK_SOURCE() == RCC_CFGR_SWS_PLL) && ((RCC->PLLCFGR & RCC_PLLCFGR_PLLSRC) == RCC_PLLCFGR_PLLSRC_HSI)))
 800267a:	4b62      	ldr	r3, [pc, #392]	; (8002804 <HAL_RCC_OscConfig+0x2ac>)
 800267c:	689b      	ldr	r3, [r3, #8]
 800267e:	f003 030c 	and.w	r3, r3, #12
    if((__HAL_RCC_GET_SYSCLK_SOURCE() == RCC_CFGR_SWS_HSI) ||\
 8002682:	2b08      	cmp	r3, #8
 8002684:	d11c      	bne.n	80026c0 <HAL_RCC_OscConfig+0x168>
      ((__HAL_RCC_GET_SYSCLK_SOURCE() == RCC_CFGR_SWS_PLL) && ((RCC->PLLCFGR & RCC_PLLCFGR_PLLSRC) == RCC_PLLCFGR_PLLSRC_HSI)))
 8002686:	4b5f      	ldr	r3, [pc, #380]	; (8002804 <HAL_RCC_OscConfig+0x2ac>)
 8002688:	685b      	ldr	r3, [r3, #4]
 800268a:	f403 0380 	and.w	r3, r3, #4194304	; 0x400000
 800268e:	2b00      	cmp	r3, #0
 8002690:	d116      	bne.n	80026c0 <HAL_RCC_OscConfig+0x168>
    {
      /* When HSI is used as system clock it will not disabled */
      if((__HAL_RCC_GET_FLAG(RCC_FLAG_HSIRDY) != RESET) && (RCC_OscInitStruct->HSIState != RCC_HSI_ON))
 8002692:	4b5c      	ldr	r3, [pc, #368]	; (8002804 <HAL_RCC_OscConfig+0x2ac>)
 8002694:	681b      	ldr	r3, [r3, #0]
 8002696:	f003 0302 	and.w	r3, r3, #2
 800269a:	2b00      	cmp	r3, #0
 800269c:	d005      	beq.n	80026aa <HAL_RCC_OscConfig+0x152>
 800269e:	687b      	ldr	r3, [r7, #4]
 80026a0:	68db      	ldr	r3, [r3, #12]
 80026a2:	2b01      	cmp	r3, #1
 80026a4:	d001      	beq.n	80026aa <HAL_RCC_OscConfig+0x152>
      {
        return HAL_ERROR;
 80026a6:	2301      	movs	r3, #1
 80026a8:	e1c4      	b.n	8002a34 <HAL_RCC_OscConfig+0x4dc>
      }
      /* Otherwise, just the calibration is allowed */
      else
      {
        /* Adjusts the Internal High Speed oscillator (HSI) calibration value.*/
        __HAL_RCC_HSI_CALIBRATIONVALUE_ADJUST(RCC_OscInitStruct->HSICalibrationValue);
 80026aa:	4b56      	ldr	r3, [pc, #344]	; (8002804 <HAL_RCC_OscConfig+0x2ac>)
 80026ac:	681b      	ldr	r3, [r3, #0]
 80026ae:	f023 02f8 	bic.w	r2, r3, #248	; 0xf8
 80026b2:	687b      	ldr	r3, [r7, #4]
 80026b4:	691b      	ldr	r3, [r3, #16]
 80026b6:	00db      	lsls	r3, r3, #3
 80026b8:	4952      	ldr	r1, [pc, #328]	; (8002804 <HAL_RCC_OscConfig+0x2ac>)
 80026ba:	4313      	orrs	r3, r2
 80026bc:	600b      	str	r3, [r1, #0]
      if((__HAL_RCC_GET_FLAG(RCC_FLAG_HSIRDY) != RESET) && (RCC_OscInitStruct->HSIState != RCC_HSI_ON))
 80026be:	e03a      	b.n	8002736 <HAL_RCC_OscConfig+0x1de>
      }
    }
    else
    {
      /* Check the HSI State */
      if((RCC_OscInitStruct->HSIState)!= RCC_HSI_OFF)
 80026c0:	687b      	ldr	r3, [r7, #4]
 80026c2:	68db      	ldr	r3, [r3, #12]
 80026c4:	2b00      	cmp	r3, #0
 80026c6:	d020      	beq.n	800270a <HAL_RCC_OscConfig+0x1b2>
      {
        /* Enable the Internal High Speed oscillator (HSI). */
        __HAL_RCC_HSI_ENABLE();
 80026c8:	4b4f      	ldr	r3, [pc, #316]	; (8002808 <HAL_RCC_OscConfig+0x2b0>)
 80026ca:	2201      	movs	r2, #1
 80026cc:	601a      	str	r2, [r3, #0]

        /* Get Start Tick*/
        tickstart = HAL_GetTick();
 80026ce:	f7ff fb31 	bl	8001d34 <HAL_GetTick>
 80026d2:	6138      	str	r0, [r7, #16]

        /* Wait till HSI is ready */
        while(__HAL_RCC_GET_FLAG(RCC_FLAG_HSIRDY) == RESET)
 80026d4:	e008      	b.n	80026e8 <HAL_RCC_OscConfig+0x190>
        {
          if((HAL_GetTick() - tickstart ) > HSI_TIMEOUT_VALUE)
 80026d6:	f7ff fb2d 	bl	8001d34 <HAL_GetTick>
 80026da:	4602      	mov	r2, r0
 80026dc:	693b      	ldr	r3, [r7, #16]
 80026de:	1ad3      	subs	r3, r2, r3
 80026e0:	2b02      	cmp	r3, #2
 80026e2:	d901      	bls.n	80026e8 <HAL_RCC_OscConfig+0x190>
          {
            return HAL_TIMEOUT;
 80026e4:	2303      	movs	r3, #3
 80026e6:	e1a5      	b.n	8002a34 <HAL_RCC_OscConfig+0x4dc>
        while(__HAL_RCC_GET_FLAG(RCC_FLAG_HSIRDY) == RESET)
 80026e8:	4b46      	ldr	r3, [pc, #280]	; (8002804 <HAL_RCC_OscConfig+0x2ac>)
 80026ea:	681b      	ldr	r3, [r3, #0]
 80026ec:	f003 0302 	and.w	r3, r3, #2
 80026f0:	2b00      	cmp	r3, #0
 80026f2:	d0f0      	beq.n	80026d6 <HAL_RCC_OscConfig+0x17e>
          }
        }

        /* Adjusts the Internal High Speed oscillator (HSI) calibration value. */
        __HAL_RCC_HSI_CALIBRATIONVALUE_ADJUST(RCC_OscInitStruct->HSICalibrationValue);
 80026f4:	4b43      	ldr	r3, [pc, #268]	; (8002804 <HAL_RCC_OscConfig+0x2ac>)
 80026f6:	681b      	ldr	r3, [r3, #0]
 80026f8:	f023 02f8 	bic.w	r2, r3, #248	; 0xf8
 80026fc:	687b      	ldr	r3, [r7, #4]
 80026fe:	691b      	ldr	r3, [r3, #16]
 8002700:	00db      	lsls	r3, r3, #3
 8002702:	4940      	ldr	r1, [pc, #256]	; (8002804 <HAL_RCC_OscConfig+0x2ac>)
 8002704:	4313      	orrs	r3, r2
 8002706:	600b      	str	r3, [r1, #0]
 8002708:	e015      	b.n	8002736 <HAL_RCC_OscConfig+0x1de>
      }
      else
      {
        /* Disable the Internal High Speed oscillator (HSI). */
        __HAL_RCC_HSI_DISABLE();
 800270a:	4b3f      	ldr	r3, [pc, #252]	; (8002808 <HAL_RCC_OscConfig+0x2b0>)
 800270c:	2200      	movs	r2, #0
 800270e:	601a      	str	r2, [r3, #0]

        /* Get Start Tick*/
        tickstart = HAL_GetTick();
 8002710:	f7ff fb10 	bl	8001d34 <HAL_GetTick>
 8002714:	6138      	str	r0, [r7, #16]

        /* Wait till HSI is ready */
        while(__HAL_RCC_GET_FLAG(RCC_FLAG_HSIRDY) != RESET)
 8002716:	e008      	b.n	800272a <HAL_RCC_OscConfig+0x1d2>
        {
          if((HAL_GetTick() - tickstart ) > HSI_TIMEOUT_VALUE)
 8002718:	f7ff fb0c 	bl	8001d34 <HAL_GetTick>
 800271c:	4602      	mov	r2, r0
 800271e:	693b      	ldr	r3, [r7, #16]
 8002720:	1ad3      	subs	r3, r2, r3
 8002722:	2b02      	cmp	r3, #2
 8002724:	d901      	bls.n	800272a <HAL_RCC_OscConfig+0x1d2>
          {
            return HAL_TIMEOUT;
 8002726:	2303      	movs	r3, #3
 8002728:	e184      	b.n	8002a34 <HAL_RCC_OscConfig+0x4dc>
        while(__HAL_RCC_GET_FLAG(RCC_FLAG_HSIRDY) != RESET)
 800272a:	4b36      	ldr	r3, [pc, #216]	; (8002804 <HAL_RCC_OscConfig+0x2ac>)
 800272c:	681b      	ldr	r3, [r3, #0]
 800272e:	f003 0302 	and.w	r3, r3, #2
 8002732:	2b00      	cmp	r3, #0
 8002734:	d1f0      	bne.n	8002718 <HAL_RCC_OscConfig+0x1c0>
        }
      }
    }
  }
  /*------------------------------ LSI Configuration -------------------------*/
  if(((RCC_OscInitStruct->OscillatorType) & RCC_OSCILLATORTYPE_LSI) == RCC_OSCILLATORTYPE_LSI)
 8002736:	687b      	ldr	r3, [r7, #4]
 8002738:	681b      	ldr	r3, [r3, #0]
 800273a:	f003 0308 	and.w	r3, r3, #8
 800273e:	2b00      	cmp	r3, #0
 8002740:	d030      	beq.n	80027a4 <HAL_RCC_OscConfig+0x24c>
  {
    /* Check the parameters */
    assert_param(IS_RCC_LSI(RCC_OscInitStruct->LSIState));

    /* Check the LSI State */
    if((RCC_OscInitStruct->LSIState)!= RCC_LSI_OFF)
 8002742:	687b      	ldr	r3, [r7, #4]
 8002744:	695b      	ldr	r3, [r3, #20]
 8002746:	2b00      	cmp	r3, #0
 8002748:	d016      	beq.n	8002778 <HAL_RCC_OscConfig+0x220>
    {
      /* Enable the Internal Low Speed oscillator (LSI). */
      __HAL_RCC_LSI_ENABLE();
 800274a:	4b30      	ldr	r3, [pc, #192]	; (800280c <HAL_RCC_OscConfig+0x2b4>)
 800274c:	2201      	movs	r2, #1
 800274e:	601a      	str	r2, [r3, #0]

      /* Get Start Tick*/
      tickstart = HAL_GetTick();
 8002750:	f7ff faf0 	bl	8001d34 <HAL_GetTick>
 8002754:	6138      	str	r0, [r7, #16]

      /* Wait till LSI is ready */
      while(__HAL_RCC_GET_FLAG(RCC_FLAG_LSIRDY) == RESET)
 8002756:	e008      	b.n	800276a <HAL_RCC_OscConfig+0x212>
      {
        if((HAL_GetTick() - tickstart ) > LSI_TIMEOUT_VALUE)
 8002758:	f7ff faec 	bl	8001d34 <HAL_GetTick>
 800275c:	4602      	mov	r2, r0
 800275e:	693b      	ldr	r3, [r7, #16]
 8002760:	1ad3      	subs	r3, r2, r3
 8002762:	2b02      	cmp	r3, #2
 8002764:	d901      	bls.n	800276a <HAL_RCC_OscConfig+0x212>
        {
          return HAL_TIMEOUT;
 8002766:	2303      	movs	r3, #3
 8002768:	e164      	b.n	8002a34 <HAL_RCC_OscConfig+0x4dc>
      while(__HAL_RCC_GET_FLAG(RCC_FLAG_LSIRDY) == RESET)
 800276a:	4b26      	ldr	r3, [pc, #152]	; (8002804 <HAL_RCC_OscConfig+0x2ac>)
 800276c:	6f5b      	ldr	r3, [r3, #116]	; 0x74
 800276e:	f003 0302 	and.w	r3, r3, #2
 8002772:	2b00      	cmp	r3, #0
 8002774:	d0f0      	beq.n	8002758 <HAL_RCC_OscConfig+0x200>
 8002776:	e015      	b.n	80027a4 <HAL_RCC_OscConfig+0x24c>
      }
    }
    else
    {
      /* Disable the Internal Low Speed oscillator (LSI). */
      __HAL_RCC_LSI_DISABLE();
 8002778:	4b24      	ldr	r3, [pc, #144]	; (800280c <HAL_RCC_OscConfig+0x2b4>)
 800277a:	2200      	movs	r2, #0
 800277c:	601a      	str	r2, [r3, #0]

      /* Get Start Tick */
      tickstart = HAL_GetTick();
 800277e:	f7ff fad9 	bl	8001d34 <HAL_GetTick>
 8002782:	6138      	str	r0, [r7, #16]

      /* Wait till LSI is ready */
      while(__HAL_RCC_GET_FLAG(RCC_FLAG_LSIRDY) != RESET)
 8002784:	e008      	b.n	8002798 <HAL_RCC_OscConfig+0x240>
      {
        if((HAL_GetTick() - tickstart ) > LSI_TIMEOUT_VALUE)
 8002786:	f7ff fad5 	bl	8001d34 <HAL_GetTick>
 800278a:	4602      	mov	r2, r0
 800278c:	693b      	ldr	r3, [r7, #16]
 800278e:	1ad3      	subs	r3, r2, r3
 8002790:	2b02      	cmp	r3, #2
 8002792:	d901      	bls.n	8002798 <HAL_RCC_OscConfig+0x240>
        {
          return HAL_TIMEOUT;
 8002794:	2303      	movs	r3, #3
 8002796:	e14d      	b.n	8002a34 <HAL_RCC_OscConfig+0x4dc>
      while(__HAL_RCC_GET_FLAG(RCC_FLAG_LSIRDY) != RESET)
 8002798:	4b1a      	ldr	r3, [pc, #104]	; (8002804 <HAL_RCC_OscConfig+0x2ac>)
 800279a:	6f5b      	ldr	r3, [r3, #116]	; 0x74
 800279c:	f003 0302 	and.w	r3, r3, #2
 80027a0:	2b00      	cmp	r3, #0
 80027a2:	d1f0      	bne.n	8002786 <HAL_RCC_OscConfig+0x22e>
        }
      }
    }
  }
  /*------------------------------ LSE Configuration -------------------------*/
  if(((RCC_OscInitStruct->OscillatorType) & RCC_OSCILLATORTYPE_LSE) == RCC_OSCILLATORTYPE_LSE)
 80027a4:	687b      	ldr	r3, [r7, #4]
 80027a6:	681b      	ldr	r3, [r3, #0]
 80027a8:	f003 0304 	and.w	r3, r3, #4
 80027ac:	2b00      	cmp	r3, #0
 80027ae:	f000 80a0 	beq.w	80028f2 <HAL_RCC_OscConfig+0x39a>
  {
    FlagStatus       pwrclkchanged = RESET;
 80027b2:	2300      	movs	r3, #0
 80027b4:	75fb      	strb	r3, [r7, #23]
    /* Check the parameters */
    assert_param(IS_RCC_LSE(RCC_OscInitStruct->LSEState));

    /* Update LSE configuration in Backup Domain control register    */
    /* Requires to enable write access to Backup Domain of necessary */
    if(__HAL_RCC_PWR_IS_CLK_DISABLED())
 80027b6:	4b13      	ldr	r3, [pc, #76]	; (8002804 <HAL_RCC_OscConfig+0x2ac>)
 80027b8:	6c1b      	ldr	r3, [r3, #64]	; 0x40
 80027ba:	f003 5380 	and.w	r3, r3, #268435456	; 0x10000000
 80027be:	2b00      	cmp	r3, #0
 80027c0:	d10f      	bne.n	80027e2 <HAL_RCC_OscConfig+0x28a>
    {
      __HAL_RCC_PWR_CLK_ENABLE();
 80027c2:	2300      	movs	r3, #0
 80027c4:	60bb      	str	r3, [r7, #8]
 80027c6:	4b0f      	ldr	r3, [pc, #60]	; (8002804 <HAL_RCC_OscConfig+0x2ac>)
 80027c8:	6c1b      	ldr	r3, [r3, #64]	; 0x40
 80027ca:	4a0e      	ldr	r2, [pc, #56]	; (8002804 <HAL_RCC_OscConfig+0x2ac>)
 80027cc:	f043 5380 	orr.w	r3, r3, #268435456	; 0x10000000
 80027d0:	6413      	str	r3, [r2, #64]	; 0x40
 80027d2:	4b0c      	ldr	r3, [pc, #48]	; (8002804 <HAL_RCC_OscConfig+0x2ac>)
 80027d4:	6c1b      	ldr	r3, [r3, #64]	; 0x40
 80027d6:	f003 5380 	and.w	r3, r3, #268435456	; 0x10000000
 80027da:	60bb      	str	r3, [r7, #8]
 80027dc:	68bb      	ldr	r3, [r7, #8]
      pwrclkchanged = SET;
 80027de:	2301      	movs	r3, #1
 80027e0:	75fb      	strb	r3, [r7, #23]
    }

    if(HAL_IS_BIT_CLR(PWR->CR, PWR_CR_DBP))
 80027e2:	4b0b      	ldr	r3, [pc, #44]	; (8002810 <HAL_RCC_OscConfig+0x2b8>)
 80027e4:	681b      	ldr	r3, [r3, #0]
 80027e6:	f403 7380 	and.w	r3, r3, #256	; 0x100
 80027ea:	2b00      	cmp	r3, #0
 80027ec:	d121      	bne.n	8002832 <HAL_RCC_OscConfig+0x2da>
    {
      /* Enable write access to Backup domain */
      SET_BIT(PWR->CR, PWR_CR_DBP);
 80027ee:	4b08      	ldr	r3, [pc, #32]	; (8002810 <HAL_RCC_OscConfig+0x2b8>)
 80027f0:	681b      	ldr	r3, [r3, #0]
 80027f2:	4a07      	ldr	r2, [pc, #28]	; (8002810 <HAL_RCC_OscConfig+0x2b8>)
 80027f4:	f443 7380 	orr.w	r3, r3, #256	; 0x100
 80027f8:	6013      	str	r3, [r2, #0]

      /* Wait for Backup domain Write protection disable */
      tickstart = HAL_GetTick();
 80027fa:	f7ff fa9b 	bl	8001d34 <HAL_GetTick>
 80027fe:	6138      	str	r0, [r7, #16]

      while(HAL_IS_BIT_CLR(PWR->CR, PWR_CR_DBP))
 8002800:	e011      	b.n	8002826 <HAL_RCC_OscConfig+0x2ce>
 8002802:	bf00      	nop
 8002804:	40023800 	.word	0x40023800
 8002808:	42470000 	.word	0x42470000
 800280c:	42470e80 	.word	0x42470e80
 8002810:	40007000 	.word	0x40007000
      {
        if((HAL_GetTick() - tickstart) > RCC_DBP_TIMEOUT_VALUE)
 8002814:	f7ff fa8e 	bl	8001d34 <HAL_GetTick>
 8002818:	4602      	mov	r2, r0
 800281a:	693b      	ldr	r3, [r7, #16]
 800281c:	1ad3      	subs	r3, r2, r3
 800281e:	2b02      	cmp	r3, #2
 8002820:	d901      	bls.n	8002826 <HAL_RCC_OscConfig+0x2ce>
        {
          return HAL_TIMEOUT;
 8002822:	2303      	movs	r3, #3
 8002824:	e106      	b.n	8002a34 <HAL_RCC_OscConfig+0x4dc>
      while(HAL_IS_BIT_CLR(PWR->CR, PWR_CR_DBP))
 8002826:	4b85      	ldr	r3, [pc, #532]	; (8002a3c <HAL_RCC_OscConfig+0x4e4>)
 8002828:	681b      	ldr	r3, [r3, #0]
 800282a:	f403 7380 	and.w	r3, r3, #256	; 0x100
 800282e:	2b00      	cmp	r3, #0
 8002830:	d0f0      	beq.n	8002814 <HAL_RCC_OscConfig+0x2bc>
        }
      }
    }

    /* Set the new LSE configuration -----------------------------------------*/
    __HAL_RCC_LSE_CONFIG(RCC_OscInitStruct->LSEState);
 8002832:	687b      	ldr	r3, [r7, #4]
 8002834:	689b      	ldr	r3, [r3, #8]
 8002836:	2b01      	cmp	r3, #1
 8002838:	d106      	bne.n	8002848 <HAL_RCC_OscConfig+0x2f0>
 800283a:	4b81      	ldr	r3, [pc, #516]	; (8002a40 <HAL_RCC_OscConfig+0x4e8>)
 800283c:	6f1b      	ldr	r3, [r3, #112]	; 0x70
 800283e:	4a80      	ldr	r2, [pc, #512]	; (8002a40 <HAL_RCC_OscConfig+0x4e8>)
 8002840:	f043 0301 	orr.w	r3, r3, #1
 8002844:	6713      	str	r3, [r2, #112]	; 0x70
 8002846:	e01c      	b.n	8002882 <HAL_RCC_OscConfig+0x32a>
 8002848:	687b      	ldr	r3, [r7, #4]
 800284a:	689b      	ldr	r3, [r3, #8]
 800284c:	2b05      	cmp	r3, #5
 800284e:	d10c      	bne.n	800286a <HAL_RCC_OscConfig+0x312>
 8002850:	4b7b      	ldr	r3, [pc, #492]	; (8002a40 <HAL_RCC_OscConfig+0x4e8>)
 8002852:	6f1b      	ldr	r3, [r3, #112]	; 0x70
 8002854:	4a7a      	ldr	r2, [pc, #488]	; (8002a40 <HAL_RCC_OscConfig+0x4e8>)
 8002856:	f043 0304 	orr.w	r3, r3, #4
 800285a:	6713      	str	r3, [r2, #112]	; 0x70
 800285c:	4b78      	ldr	r3, [pc, #480]	; (8002a40 <HAL_RCC_OscConfig+0x4e8>)
 800285e:	6f1b      	ldr	r3, [r3, #112]	; 0x70
 8002860:	4a77      	ldr	r2, [pc, #476]	; (8002a40 <HAL_RCC_OscConfig+0x4e8>)
 8002862:	f043 0301 	orr.w	r3, r3, #1
 8002866:	6713      	str	r3, [r2, #112]	; 0x70
 8002868:	e00b      	b.n	8002882 <HAL_RCC_OscConfig+0x32a>
 800286a:	4b75      	ldr	r3, [pc, #468]	; (8002a40 <HAL_RCC_OscConfig+0x4e8>)
 800286c:	6f1b      	ldr	r3, [r3, #112]	; 0x70
 800286e:	4a74      	ldr	r2, [pc, #464]	; (8002a40 <HAL_RCC_OscConfig+0x4e8>)
 8002870:	f023 0301 	bic.w	r3, r3, #1
 8002874:	6713      	str	r3, [r2, #112]	; 0x70
 8002876:	4b72      	ldr	r3, [pc, #456]	; (8002a40 <HAL_RCC_OscConfig+0x4e8>)
 8002878:	6f1b      	ldr	r3, [r3, #112]	; 0x70
 800287a:	4a71      	ldr	r2, [pc, #452]	; (8002a40 <HAL_RCC_OscConfig+0x4e8>)
 800287c:	f023 0304 	bic.w	r3, r3, #4
 8002880:	6713      	str	r3, [r2, #112]	; 0x70
    /* Check the LSE State */
    if((RCC_OscInitStruct->LSEState) != RCC_LSE_OFF)
 8002882:	687b      	ldr	r3, [r7, #4]
 8002884:	689b      	ldr	r3, [r3, #8]
 8002886:	2b00      	cmp	r3, #0
 8002888:	d015      	beq.n	80028b6 <HAL_RCC_OscConfig+0x35e>
    {
      /* Get Start Tick*/
      tickstart = HAL_GetTick();
 800288a:	f7ff fa53 	bl	8001d34 <HAL_GetTick>
 800288e:	6138      	str	r0, [r7, #16]

      /* Wait till LSE is ready */
      while(__HAL_RCC_GET_FLAG(RCC_FLAG_LSERDY) == RESET)
 8002890:	e00a      	b.n	80028a8 <HAL_RCC_OscConfig+0x350>
      {
        if((HAL_GetTick() - tickstart ) > RCC_LSE_TIMEOUT_VALUE)
 8002892:	f7ff fa4f 	bl	8001d34 <HAL_GetTick>
 8002896:	4602      	mov	r2, r0
 8002898:	693b      	ldr	r3, [r7, #16]
 800289a:	1ad3      	subs	r3, r2, r3
 800289c:	f241 3288 	movw	r2, #5000	; 0x1388
 80028a0:	4293      	cmp	r3, r2
 80028a2:	d901      	bls.n	80028a8 <HAL_RCC_OscConfig+0x350>
        {
          return HAL_TIMEOUT;
 80028a4:	2303      	movs	r3, #3
 80028a6:	e0c5      	b.n	8002a34 <HAL_RCC_OscConfig+0x4dc>
      while(__HAL_RCC_GET_FLAG(RCC_FLAG_LSERDY) == RESET)
 80028a8:	4b65      	ldr	r3, [pc, #404]	; (8002a40 <HAL_RCC_OscConfig+0x4e8>)
 80028aa:	6f1b      	ldr	r3, [r3, #112]	; 0x70
 80028ac:	f003 0302 	and.w	r3, r3, #2
 80028b0:	2b00      	cmp	r3, #0
 80028b2:	d0ee      	beq.n	8002892 <HAL_RCC_OscConfig+0x33a>
 80028b4:	e014      	b.n	80028e0 <HAL_RCC_OscConfig+0x388>
      }
    }
    else
    {
      /* Get Start Tick */
      tickstart = HAL_GetTick();
 80028b6:	f7ff fa3d 	bl	8001d34 <HAL_GetTick>
 80028ba:	6138      	str	r0, [r7, #16]

      /* Wait till LSE is ready */
      while(__HAL_RCC_GET_FLAG(RCC_FLAG_LSERDY) != RESET)
 80028bc:	e00a      	b.n	80028d4 <HAL_RCC_OscConfig+0x37c>
      {
        if((HAL_GetTick() - tickstart ) > RCC_LSE_TIMEOUT_VALUE)
 80028be:	f7ff fa39 	bl	8001d34 <HAL_GetTick>
 80028c2:	4602      	mov	r2, r0
 80028c4:	693b      	ldr	r3, [r7, #16]
 80028c6:	1ad3      	subs	r3, r2, r3
 80028c8:	f241 3288 	movw	r2, #5000	; 0x1388
 80028cc:	4293      	cmp	r3, r2
 80028ce:	d901      	bls.n	80028d4 <HAL_RCC_OscConfig+0x37c>
        {
          return HAL_TIMEOUT;
 80028d0:	2303      	movs	r3, #3
 80028d2:	e0af      	b.n	8002a34 <HAL_RCC_OscConfig+0x4dc>
      while(__HAL_RCC_GET_FLAG(RCC_FLAG_LSERDY) != RESET)
 80028d4:	4b5a      	ldr	r3, [pc, #360]	; (8002a40 <HAL_RCC_OscConfig+0x4e8>)
 80028d6:	6f1b      	ldr	r3, [r3, #112]	; 0x70
 80028d8:	f003 0302 	and.w	r3, r3, #2
 80028dc:	2b00      	cmp	r3, #0
 80028de:	d1ee      	bne.n	80028be <HAL_RCC_OscConfig+0x366>
        }
      }
    }

    /* Restore clock configuration if changed */
    if(pwrclkchanged == SET)
 80028e0:	7dfb      	ldrb	r3, [r7, #23]
 80028e2:	2b01      	cmp	r3, #1
 80028e4:	d105      	bne.n	80028f2 <HAL_RCC_OscConfig+0x39a>
    {
      __HAL_RCC_PWR_CLK_DISABLE();
 80028e6:	4b56      	ldr	r3, [pc, #344]	; (8002a40 <HAL_RCC_OscConfig+0x4e8>)
 80028e8:	6c1b      	ldr	r3, [r3, #64]	; 0x40
 80028ea:	4a55      	ldr	r2, [pc, #340]	; (8002a40 <HAL_RCC_OscConfig+0x4e8>)
 80028ec:	f023 5380 	bic.w	r3, r3, #268435456	; 0x10000000
 80028f0:	6413      	str	r3, [r2, #64]	; 0x40
    }
  }
  /*-------------------------------- PLL Configuration -----------------------*/
  /* Check the parameters */
  assert_param(IS_RCC_PLL(RCC_OscInitStruct->PLL.PLLState));
  if ((RCC_OscInitStruct->PLL.PLLState) != RCC_PLL_NONE)
 80028f2:	687b      	ldr	r3, [r7, #4]
 80028f4:	699b      	ldr	r3, [r3, #24]
 80028f6:	2b00      	cmp	r3, #0
 80028f8:	f000 809b 	beq.w	8002a32 <HAL_RCC_OscConfig+0x4da>
  {
    /* Check if the PLL is used as system clock or not */
    if(__HAL_RCC_GET_SYSCLK_SOURCE() != RCC_CFGR_SWS_PLL)
 80028fc:	4b50      	ldr	r3, [pc, #320]	; (8002a40 <HAL_RCC_OscConfig+0x4e8>)
 80028fe:	689b      	ldr	r3, [r3, #8]
 8002900:	f003 030c 	and.w	r3, r3, #12
 8002904:	2b08      	cmp	r3, #8
 8002906:	d05c      	beq.n	80029c2 <HAL_RCC_OscConfig+0x46a>
    {
      if((RCC_OscInitStruct->PLL.PLLState) == RCC_PLL_ON)
 8002908:	687b      	ldr	r3, [r7, #4]
 800290a:	699b      	ldr	r3, [r3, #24]
 800290c:	2b02      	cmp	r3, #2
 800290e:	d141      	bne.n	8002994 <HAL_RCC_OscConfig+0x43c>
        assert_param(IS_RCC_PLLN_VALUE(RCC_OscInitStruct->PLL.PLLN));
        assert_param(IS_RCC_PLLP_VALUE(RCC_OscInitStruct->PLL.PLLP));
        assert_param(IS_RCC_PLLQ_VALUE(RCC_OscInitStruct->PLL.PLLQ));

        /* Disable the main PLL. */
        __HAL_RCC_PLL_DISABLE();
 8002910:	4b4c      	ldr	r3, [pc, #304]	; (8002a44 <HAL_RCC_OscConfig+0x4ec>)
 8002912:	2200      	movs	r2, #0
 8002914:	601a      	str	r2, [r3, #0]

        /* Get Start Tick */
        tickstart = HAL_GetTick();
 8002916:	f7ff fa0d 	bl	8001d34 <HAL_GetTick>
 800291a:	6138      	str	r0, [r7, #16]

        /* Wait till PLL is ready */
        while(__HAL_RCC_GET_FLAG(RCC_FLAG_PLLRDY) != RESET)
 800291c:	e008      	b.n	8002930 <HAL_RCC_OscConfig+0x3d8>
        {
          if((HAL_GetTick() - tickstart ) > PLL_TIMEOUT_VALUE)
 800291e:	f7ff fa09 	bl	8001d34 <HAL_GetTick>
 8002922:	4602      	mov	r2, r0
 8002924:	693b      	ldr	r3, [r7, #16]
 8002926:	1ad3      	subs	r3, r2, r3
 8002928:	2b02      	cmp	r3, #2
 800292a:	d901      	bls.n	8002930 <HAL_RCC_OscConfig+0x3d8>
          {
            return HAL_TIMEOUT;
 800292c:	2303      	movs	r3, #3
 800292e:	e081      	b.n	8002a34 <HAL_RCC_OscConfig+0x4dc>
        while(__HAL_RCC_GET_FLAG(RCC_FLAG_PLLRDY) != RESET)
 8002930:	4b43      	ldr	r3, [pc, #268]	; (8002a40 <HAL_RCC_OscConfig+0x4e8>)
 8002932:	681b      	ldr	r3, [r3, #0]
 8002934:	f003 7300 	and.w	r3, r3, #33554432	; 0x2000000
 8002938:	2b00      	cmp	r3, #0
 800293a:	d1f0      	bne.n	800291e <HAL_RCC_OscConfig+0x3c6>
          }
        }

        /* Configure the main PLL clock source, multiplication and division factors. */
        WRITE_REG(RCC->PLLCFGR, (RCC_OscInitStruct->PLL.PLLSource                                            | \
 800293c:	687b      	ldr	r3, [r7, #4]
 800293e:	69da      	ldr	r2, [r3, #28]
 8002940:	687b      	ldr	r3, [r7, #4]
 8002942:	6a1b      	ldr	r3, [r3, #32]
 8002944:	431a      	orrs	r2, r3
 8002946:	687b      	ldr	r3, [r7, #4]
 8002948:	6a5b      	ldr	r3, [r3, #36]	; 0x24
 800294a:	019b      	lsls	r3, r3, #6
 800294c:	431a      	orrs	r2, r3
 800294e:	687b      	ldr	r3, [r7, #4]
 8002950:	6a9b      	ldr	r3, [r3, #40]	; 0x28
 8002952:	085b      	lsrs	r3, r3, #1
 8002954:	3b01      	subs	r3, #1
 8002956:	041b      	lsls	r3, r3, #16
 8002958:	431a      	orrs	r2, r3
 800295a:	687b      	ldr	r3, [r7, #4]
 800295c:	6adb      	ldr	r3, [r3, #44]	; 0x2c
 800295e:	061b      	lsls	r3, r3, #24
 8002960:	4937      	ldr	r1, [pc, #220]	; (8002a40 <HAL_RCC_OscConfig+0x4e8>)
 8002962:	4313      	orrs	r3, r2
 8002964:	604b      	str	r3, [r1, #4]
                                 RCC_OscInitStruct->PLL.PLLM                                                 | \
                                 (RCC_OscInitStruct->PLL.PLLN << RCC_PLLCFGR_PLLN_Pos)             | \
                                 (((RCC_OscInitStruct->PLL.PLLP >> 1U) - 1U) << RCC_PLLCFGR_PLLP_Pos) | \
                                 (RCC_OscInitStruct->PLL.PLLQ << RCC_PLLCFGR_PLLQ_Pos)));
        /* Enable the main PLL. */
        __HAL_RCC_PLL_ENABLE();
 8002966:	4b37      	ldr	r3, [pc, #220]	; (8002a44 <HAL_RCC_OscConfig+0x4ec>)
 8002968:	2201      	movs	r2, #1
 800296a:	601a      	str	r2, [r3, #0]

        /* Get Start Tick */
        tickstart = HAL_GetTick();
 800296c:	f7ff f9e2 	bl	8001d34 <HAL_GetTick>
 8002970:	6138      	str	r0, [r7, #16]

        /* Wait till PLL is ready */
        while(__HAL_RCC_GET_FLAG(RCC_FLAG_PLLRDY) == RESET)
 8002972:	e008      	b.n	8002986 <HAL_RCC_OscConfig+0x42e>
        {
          if((HAL_GetTick() - tickstart ) > PLL_TIMEOUT_VALUE)
 8002974:	f7ff f9de 	bl	8001d34 <HAL_GetTick>
 8002978:	4602      	mov	r2, r0
 800297a:	693b      	ldr	r3, [r7, #16]
 800297c:	1ad3      	subs	r3, r2, r3
 800297e:	2b02      	cmp	r3, #2
 8002980:	d901      	bls.n	8002986 <HAL_RCC_OscConfig+0x42e>
          {
            return HAL_TIMEOUT;
 8002982:	2303      	movs	r3, #3
 8002984:	e056      	b.n	8002a34 <HAL_RCC_OscConfig+0x4dc>
        while(__HAL_RCC_GET_FLAG(RCC_FLAG_PLLRDY) == RESET)
 8002986:	4b2e      	ldr	r3, [pc, #184]	; (8002a40 <HAL_RCC_OscConfig+0x4e8>)
 8002988:	681b      	ldr	r3, [r3, #0]
 800298a:	f003 7300 	and.w	r3, r3, #33554432	; 0x2000000
 800298e:	2b00      	cmp	r3, #0
 8002990:	d0f0      	beq.n	8002974 <HAL_RCC_OscConfig+0x41c>
 8002992:	e04e      	b.n	8002a32 <HAL_RCC_OscConfig+0x4da>
        }
      }
      else
      {
        /* Disable the main PLL. */
        __HAL_RCC_PLL_DISABLE();
 8002994:	4b2b      	ldr	r3, [pc, #172]	; (8002a44 <HAL_RCC_OscConfig+0x4ec>)
 8002996:	2200      	movs	r2, #0
 8002998:	601a      	str	r2, [r3, #0]

        /* Get Start Tick */
        tickstart = HAL_GetTick();
 800299a:	f7ff f9cb 	bl	8001d34 <HAL_GetTick>
 800299e:	6138      	str	r0, [r7, #16]

        /* Wait till PLL is ready */
        while(__HAL_RCC_GET_FLAG(RCC_FLAG_PLLRDY) != RESET)
 80029a0:	e008      	b.n	80029b4 <HAL_RCC_OscConfig+0x45c>
        {
          if((HAL_GetTick() - tickstart ) > PLL_TIMEOUT_VALUE)
 80029a2:	f7ff f9c7 	bl	8001d34 <HAL_GetTick>
 80029a6:	4602      	mov	r2, r0
 80029a8:	693b      	ldr	r3, [r7, #16]
 80029aa:	1ad3      	subs	r3, r2, r3
 80029ac:	2b02      	cmp	r3, #2
 80029ae:	d901      	bls.n	80029b4 <HAL_RCC_OscConfig+0x45c>
          {
            return HAL_TIMEOUT;
 80029b0:	2303      	movs	r3, #3
 80029b2:	e03f      	b.n	8002a34 <HAL_RCC_OscConfig+0x4dc>
        while(__HAL_RCC_GET_FLAG(RCC_FLAG_PLLRDY) != RESET)
 80029b4:	4b22      	ldr	r3, [pc, #136]	; (8002a40 <HAL_RCC_OscConfig+0x4e8>)
 80029b6:	681b      	ldr	r3, [r3, #0]
 80029b8:	f003 7300 	and.w	r3, r3, #33554432	; 0x2000000
 80029bc:	2b00      	cmp	r3, #0
 80029be:	d1f0      	bne.n	80029a2 <HAL_RCC_OscConfig+0x44a>
 80029c0:	e037      	b.n	8002a32 <HAL_RCC_OscConfig+0x4da>
      }
    }
    else
    {
      /* Check if there is a request to disable the PLL used as System clock source */
      if((RCC_OscInitStruct->PLL.PLLState) == RCC_PLL_OFF)
 80029c2:	687b      	ldr	r3, [r7, #4]
 80029c4:	699b      	ldr	r3, [r3, #24]
 80029c6:	2b01      	cmp	r3, #1
 80029c8:	d101      	bne.n	80029ce <HAL_RCC_OscConfig+0x476>
      {
        return HAL_ERROR;
 80029ca:	2301      	movs	r3, #1
 80029cc:	e032      	b.n	8002a34 <HAL_RCC_OscConfig+0x4dc>
      }
      else
      {
        /* Do not return HAL_ERROR if request repeats the current configuration */
        pll_config = RCC->PLLCFGR;
 80029ce:	4b1c      	ldr	r3, [pc, #112]	; (8002a40 <HAL_RCC_OscConfig+0x4e8>)
 80029d0:	685b      	ldr	r3, [r3, #4]
 80029d2:	60fb      	str	r3, [r7, #12]
            (READ_BIT(pll_config, RCC_PLLCFGR_PLLN) != (RCC_OscInitStruct->PLL.PLLN) << RCC_PLLCFGR_PLLN_Pos) ||
            (READ_BIT(pll_config, RCC_PLLCFGR_PLLP) != (((RCC_OscInitStruct->PLL.PLLP >> 1U) - 1U)) << RCC_PLLCFGR_PLLP_Pos) ||
            (READ_BIT(pll_config, RCC_PLLCFGR_PLLQ) != (RCC_OscInitStruct->PLL.PLLQ << RCC_PLLCFGR_PLLQ_Pos)) ||
            (READ_BIT(pll_config, RCC_PLLCFGR_PLLR) != (RCC_OscInitStruct->PLL.PLLR << RCC_PLLCFGR_PLLR_Pos)))
#else
        if (((RCC_OscInitStruct->PLL.PLLState) == RCC_PLL_OFF) ||
 80029d4:	687b      	ldr	r3, [r7, #4]
 80029d6:	699b      	ldr	r3, [r3, #24]
 80029d8:	2b01      	cmp	r3, #1
 80029da:	d028      	beq.n	8002a2e <HAL_RCC_OscConfig+0x4d6>
            (READ_BIT(pll_config, RCC_PLLCFGR_PLLSRC) != RCC_OscInitStruct->PLL.PLLSource) ||
 80029dc:	68fb      	ldr	r3, [r7, #12]
 80029de:	f403 0280 	and.w	r2, r3, #4194304	; 0x400000
 80029e2:	687b      	ldr	r3, [r7, #4]
 80029e4:	69db      	ldr	r3, [r3, #28]
        if (((RCC_OscInitStruct->PLL.PLLState) == RCC_PLL_OFF) ||
 80029e6:	429a      	cmp	r2, r3
 80029e8:	d121      	bne.n	8002a2e <HAL_RCC_OscConfig+0x4d6>
            (READ_BIT(pll_config, RCC_PLLCFGR_PLLM) != (RCC_OscInitStruct->PLL.PLLM) << RCC_PLLCFGR_PLLM_Pos) ||
 80029ea:	68fb      	ldr	r3, [r7, #12]
 80029ec:	f003 023f 	and.w	r2, r3, #63	; 0x3f
 80029f0:	687b      	ldr	r3, [r7, #4]
 80029f2:	6a1b      	ldr	r3, [r3, #32]
            (READ_BIT(pll_config, RCC_PLLCFGR_PLLSRC) != RCC_OscInitStruct->PLL.PLLSource) ||
 80029f4:	429a      	cmp	r2, r3
 80029f6:	d11a      	bne.n	8002a2e <HAL_RCC_OscConfig+0x4d6>
            (READ_BIT(pll_config, RCC_PLLCFGR_PLLN) != (RCC_OscInitStruct->PLL.PLLN) << RCC_PLLCFGR_PLLN_Pos) ||
 80029f8:	68fa      	ldr	r2, [r7, #12]
 80029fa:	f647 73c0 	movw	r3, #32704	; 0x7fc0
 80029fe:	4013      	ands	r3, r2
 8002a00:	687a      	ldr	r2, [r7, #4]
 8002a02:	6a52      	ldr	r2, [r2, #36]	; 0x24
 8002a04:	0192      	lsls	r2, r2, #6
            (READ_BIT(pll_config, RCC_PLLCFGR_PLLM) != (RCC_OscInitStruct->PLL.PLLM) << RCC_PLLCFGR_PLLM_Pos) ||
 8002a06:	4293      	cmp	r3, r2
 8002a08:	d111      	bne.n	8002a2e <HAL_RCC_OscConfig+0x4d6>
            (READ_BIT(pll_config, RCC_PLLCFGR_PLLP) != (((RCC_OscInitStruct->PLL.PLLP >> 1U) - 1U)) << RCC_PLLCFGR_PLLP_Pos) ||
 8002a0a:	68fb      	ldr	r3, [r7, #12]
 8002a0c:	f403 3240 	and.w	r2, r3, #196608	; 0x30000
 8002a10:	687b      	ldr	r3, [r7, #4]
 8002a12:	6a9b      	ldr	r3, [r3, #40]	; 0x28
 8002a14:	085b      	lsrs	r3, r3, #1
 8002a16:	3b01      	subs	r3, #1
 8002a18:	041b      	lsls	r3, r3, #16
            (READ_BIT(pll_config, RCC_PLLCFGR_PLLN) != (RCC_OscInitStruct->PLL.PLLN) << RCC_PLLCFGR_PLLN_Pos) ||
 8002a1a:	429a      	cmp	r2, r3
 8002a1c:	d107      	bne.n	8002a2e <HAL_RCC_OscConfig+0x4d6>
            (READ_BIT(pll_config, RCC_PLLCFGR_PLLQ) != (RCC_OscInitStruct->PLL.PLLQ << RCC_PLLCFGR_PLLQ_Pos)))
 8002a1e:	68fb      	ldr	r3, [r7, #12]
 8002a20:	f003 6270 	and.w	r2, r3, #251658240	; 0xf000000
 8002a24:	687b      	ldr	r3, [r7, #4]
 8002a26:	6adb      	ldr	r3, [r3, #44]	; 0x2c
 8002a28:	061b      	lsls	r3, r3, #24
            (READ_BIT(pll_config, RCC_PLLCFGR_PLLP) != (((RCC_OscInitStruct->PLL.PLLP >> 1U) - 1U)) << RCC_PLLCFGR_PLLP_Pos) ||
 8002a2a:	429a      	cmp	r2, r3
 8002a2c:	d001      	beq.n	8002a32 <HAL_RCC_OscConfig+0x4da>
#endif
        {
          return HAL_ERROR;
 8002a2e:	2301      	movs	r3, #1
 8002a30:	e000      	b.n	8002a34 <HAL_RCC_OscConfig+0x4dc>
        }
      }
    }
  }
  return HAL_OK;
 8002a32:	2300      	movs	r3, #0
}
 8002a34:	4618      	mov	r0, r3
 8002a36:	3718      	adds	r7, #24
 8002a38:	46bd      	mov	sp, r7
 8002a3a:	bd80      	pop	{r7, pc}
 8002a3c:	40007000 	.word	0x40007000
 8002a40:	40023800 	.word	0x40023800
 8002a44:	42470060 	.word	0x42470060

08002a48 <HAL_RCC_ClockConfig>:
  *         HPRE[3:0] bits to ensure that HCLK not exceed the maximum allowed frequency
  *         (for more details refer to section above "Initialization/de-initialization functions")
  * @retval None
  */
HAL_StatusTypeDef HAL_RCC_ClockConfig(RCC_ClkInitTypeDef  *RCC_ClkInitStruct, uint32_t FLatency)
{
 8002a48:	b580      	push	{r7, lr}
 8002a4a:	b084      	sub	sp, #16
 8002a4c:	af00      	add	r7, sp, #0
 8002a4e:	6078      	str	r0, [r7, #4]
 8002a50:	6039      	str	r1, [r7, #0]
  uint32_t tickstart;

  /* Check Null pointer */
  if(RCC_ClkInitStruct == NULL)
 8002a52:	687b      	ldr	r3, [r7, #4]
 8002a54:	2b00      	cmp	r3, #0
 8002a56:	d101      	bne.n	8002a5c <HAL_RCC_ClockConfig+0x14>
  {
    return HAL_ERROR;
 8002a58:	2301      	movs	r3, #1
 8002a5a:	e0cc      	b.n	8002bf6 <HAL_RCC_ClockConfig+0x1ae>
  /* To correctly read data from FLASH memory, the number of wait states (LATENCY)
    must be correctly programmed according to the frequency of the CPU clock
    (HCLK) and the supply voltage of the device. */

  /* Increasing the number of wait states because of higher CPU frequency */
  if(FLatency > __HAL_FLASH_GET_LATENCY())
 8002a5c:	4b68      	ldr	r3, [pc, #416]	; (8002c00 <HAL_RCC_ClockConfig+0x1b8>)
 8002a5e:	681b      	ldr	r3, [r3, #0]
 8002a60:	f003 0307 	and.w	r3, r3, #7
 8002a64:	683a      	ldr	r2, [r7, #0]
 8002a66:	429a      	cmp	r2, r3
 8002a68:	d90c      	bls.n	8002a84 <HAL_RCC_ClockConfig+0x3c>
  {
    /* Program the new number of wait states to the LATENCY bits in the FLASH_ACR register */
    __HAL_FLASH_SET_LATENCY(FLatency);
 8002a6a:	4b65      	ldr	r3, [pc, #404]	; (8002c00 <HAL_RCC_ClockConfig+0x1b8>)
 8002a6c:	683a      	ldr	r2, [r7, #0]
 8002a6e:	b2d2      	uxtb	r2, r2
 8002a70:	701a      	strb	r2, [r3, #0]

    /* Check that the new number of wait states is taken into account to access the Flash
    memory by reading the FLASH_ACR register */
    if(__HAL_FLASH_GET_LATENCY() != FLatency)
 8002a72:	4b63      	ldr	r3, [pc, #396]	; (8002c00 <HAL_RCC_ClockConfig+0x1b8>)
 8002a74:	681b      	ldr	r3, [r3, #0]
 8002a76:	f003 0307 	and.w	r3, r3, #7
 8002a7a:	683a      	ldr	r2, [r7, #0]
 8002a7c:	429a      	cmp	r2, r3
 8002a7e:	d001      	beq.n	8002a84 <HAL_RCC_ClockConfig+0x3c>
    {
      return HAL_ERROR;
 8002a80:	2301      	movs	r3, #1
 8002a82:	e0b8      	b.n	8002bf6 <HAL_RCC_ClockConfig+0x1ae>
    }
  }

  /*-------------------------- HCLK Configuration --------------------------*/
  if(((RCC_ClkInitStruct->ClockType) & RCC_CLOCKTYPE_HCLK) == RCC_CLOCKTYPE_HCLK)
 8002a84:	687b      	ldr	r3, [r7, #4]
 8002a86:	681b      	ldr	r3, [r3, #0]
 8002a88:	f003 0302 	and.w	r3, r3, #2
 8002a8c:	2b00      	cmp	r3, #0
 8002a8e:	d020      	beq.n	8002ad2 <HAL_RCC_ClockConfig+0x8a>
  {
    /* Set the highest APBx dividers in order to ensure that we do not go through
       a non-spec phase whatever we decrease or increase HCLK. */
    if(((RCC_ClkInitStruct->ClockType) & RCC_CLOCKTYPE_PCLK1) == RCC_CLOCKTYPE_PCLK1)
 8002a90:	687b      	ldr	r3, [r7, #4]
 8002a92:	681b      	ldr	r3, [r3, #0]
 8002a94:	f003 0304 	and.w	r3, r3, #4
 8002a98:	2b00      	cmp	r3, #0
 8002a9a:	d005      	beq.n	8002aa8 <HAL_RCC_ClockConfig+0x60>
    {
      MODIFY_REG(RCC->CFGR, RCC_CFGR_PPRE1, RCC_HCLK_DIV16);
 8002a9c:	4b59      	ldr	r3, [pc, #356]	; (8002c04 <HAL_RCC_ClockConfig+0x1bc>)
 8002a9e:	689b      	ldr	r3, [r3, #8]
 8002aa0:	4a58      	ldr	r2, [pc, #352]	; (8002c04 <HAL_RCC_ClockConfig+0x1bc>)
 8002aa2:	f443 53e0 	orr.w	r3, r3, #7168	; 0x1c00
 8002aa6:	6093      	str	r3, [r2, #8]
    }

    if(((RCC_ClkInitStruct->ClockType) & RCC_CLOCKTYPE_PCLK2) == RCC_CLOCKTYPE_PCLK2)
 8002aa8:	687b      	ldr	r3, [r7, #4]
 8002aaa:	681b      	ldr	r3, [r3, #0]
 8002aac:	f003 0308 	and.w	r3, r3, #8
 8002ab0:	2b00      	cmp	r3, #0
 8002ab2:	d005      	beq.n	8002ac0 <HAL_RCC_ClockConfig+0x78>
    {
      MODIFY_REG(RCC->CFGR, RCC_CFGR_PPRE2, (RCC_HCLK_DIV16 << 3));
 8002ab4:	4b53      	ldr	r3, [pc, #332]	; (8002c04 <HAL_RCC_ClockConfig+0x1bc>)
 8002ab6:	689b      	ldr	r3, [r3, #8]
 8002ab8:	4a52      	ldr	r2, [pc, #328]	; (8002c04 <HAL_RCC_ClockConfig+0x1bc>)
 8002aba:	f443 4360 	orr.w	r3, r3, #57344	; 0xe000
 8002abe:	6093      	str	r3, [r2, #8]
    }

    assert_param(IS_RCC_HCLK(RCC_ClkInitStruct->AHBCLKDivider));
    MODIFY_REG(RCC->CFGR, RCC_CFGR_HPRE, RCC_ClkInitStruct->AHBCLKDivider);
 8002ac0:	4b50      	ldr	r3, [pc, #320]	; (8002c04 <HAL_RCC_ClockConfig+0x1bc>)
 8002ac2:	689b      	ldr	r3, [r3, #8]
 8002ac4:	f023 02f0 	bic.w	r2, r3, #240	; 0xf0
 8002ac8:	687b      	ldr	r3, [r7, #4]
 8002aca:	689b      	ldr	r3, [r3, #8]
 8002acc:	494d      	ldr	r1, [pc, #308]	; (8002c04 <HAL_RCC_ClockConfig+0x1bc>)
 8002ace:	4313      	orrs	r3, r2
 8002ad0:	608b      	str	r3, [r1, #8]
  }

  /*------------------------- SYSCLK Configuration ---------------------------*/
  if(((RCC_ClkInitStruct->ClockType) & RCC_CLOCKTYPE_SYSCLK) == RCC_CLOCKTYPE_SYSCLK)
 8002ad2:	687b      	ldr	r3, [r7, #4]
 8002ad4:	681b      	ldr	r3, [r3, #0]
 8002ad6:	f003 0301 	and.w	r3, r3, #1
 8002ada:	2b00      	cmp	r3, #0
 8002adc:	d044      	beq.n	8002b68 <HAL_RCC_ClockConfig+0x120>
  {
    assert_param(IS_RCC_SYSCLKSOURCE(RCC_ClkInitStruct->SYSCLKSource));

    /* HSE is selected as System Clock Source */
    if(RCC_ClkInitStruct->SYSCLKSource == RCC_SYSCLKSOURCE_HSE)
 8002ade:	687b      	ldr	r3, [r7, #4]
 8002ae0:	685b      	ldr	r3, [r3, #4]
 8002ae2:	2b01      	cmp	r3, #1
 8002ae4:	d107      	bne.n	8002af6 <HAL_RCC_ClockConfig+0xae>
    {
      /* Check the HSE ready flag */
      if(__HAL_RCC_GET_FLAG(RCC_FLAG_HSERDY) == RESET)
 8002ae6:	4b47      	ldr	r3, [pc, #284]	; (8002c04 <HAL_RCC_ClockConfig+0x1bc>)
 8002ae8:	681b      	ldr	r3, [r3, #0]
 8002aea:	f403 3300 	and.w	r3, r3, #131072	; 0x20000
 8002aee:	2b00      	cmp	r3, #0
 8002af0:	d119      	bne.n	8002b26 <HAL_RCC_ClockConfig+0xde>
      {
        return HAL_ERROR;
 8002af2:	2301      	movs	r3, #1
 8002af4:	e07f      	b.n	8002bf6 <HAL_RCC_ClockConfig+0x1ae>
      }
    }
    /* PLL is selected as System Clock Source */
    else if((RCC_ClkInitStruct->SYSCLKSource == RCC_SYSCLKSOURCE_PLLCLK)   ||
 8002af6:	687b      	ldr	r3, [r7, #4]
 8002af8:	685b      	ldr	r3, [r3, #4]
 8002afa:	2b02      	cmp	r3, #2
 8002afc:	d003      	beq.n	8002b06 <HAL_RCC_ClockConfig+0xbe>
            (RCC_ClkInitStruct->SYSCLKSource == RCC_SYSCLKSOURCE_PLLRCLK))
 8002afe:	687b      	ldr	r3, [r7, #4]
 8002b00:	685b      	ldr	r3, [r3, #4]
    else if((RCC_ClkInitStruct->SYSCLKSource == RCC_SYSCLKSOURCE_PLLCLK)   ||
 8002b02:	2b03      	cmp	r3, #3
 8002b04:	d107      	bne.n	8002b16 <HAL_RCC_ClockConfig+0xce>
    {
      /* Check the PLL ready flag */
      if(__HAL_RCC_GET_FLAG(RCC_FLAG_PLLRDY) == RESET)
 8002b06:	4b3f      	ldr	r3, [pc, #252]	; (8002c04 <HAL_RCC_ClockConfig+0x1bc>)
 8002b08:	681b      	ldr	r3, [r3, #0]
 8002b0a:	f003 7300 	and.w	r3, r3, #33554432	; 0x2000000
 8002b0e:	2b00      	cmp	r3, #0
 8002b10:	d109      	bne.n	8002b26 <HAL_RCC_ClockConfig+0xde>
      {
        return HAL_ERROR;
 8002b12:	2301      	movs	r3, #1
 8002b14:	e06f      	b.n	8002bf6 <HAL_RCC_ClockConfig+0x1ae>
    }
    /* HSI is selected as System Clock Source */
    else
    {
      /* Check the HSI ready flag */
      if(__HAL_RCC_GET_FLAG(RCC_FLAG_HSIRDY) == RESET)
 8002b16:	4b3b      	ldr	r3, [pc, #236]	; (8002c04 <HAL_RCC_ClockConfig+0x1bc>)
 8002b18:	681b      	ldr	r3, [r3, #0]
 8002b1a:	f003 0302 	and.w	r3, r3, #2
 8002b1e:	2b00      	cmp	r3, #0
 8002b20:	d101      	bne.n	8002b26 <HAL_RCC_ClockConfig+0xde>
      {
        return HAL_ERROR;
 8002b22:	2301      	movs	r3, #1
 8002b24:	e067      	b.n	8002bf6 <HAL_RCC_ClockConfig+0x1ae>
      }
    }

    __HAL_RCC_SYSCLK_CONFIG(RCC_ClkInitStruct->SYSCLKSource);
 8002b26:	4b37      	ldr	r3, [pc, #220]	; (8002c04 <HAL_RCC_ClockConfig+0x1bc>)
 8002b28:	689b      	ldr	r3, [r3, #8]
 8002b2a:	f023 0203 	bic.w	r2, r3, #3
 8002b2e:	687b      	ldr	r3, [r7, #4]
 8002b30:	685b      	ldr	r3, [r3, #4]
 8002b32:	4934      	ldr	r1, [pc, #208]	; (8002c04 <HAL_RCC_ClockConfig+0x1bc>)
 8002b34:	4313      	orrs	r3, r2
 8002b36:	608b      	str	r3, [r1, #8]

    /* Get Start Tick */
    tickstart = HAL_GetTick();
 8002b38:	f7ff f8fc 	bl	8001d34 <HAL_GetTick>
 8002b3c:	60f8      	str	r0, [r7, #12]

    while (__HAL_RCC_GET_SYSCLK_SOURCE() != (RCC_ClkInitStruct->SYSCLKSource << RCC_CFGR_SWS_Pos))
 8002b3e:	e00a      	b.n	8002b56 <HAL_RCC_ClockConfig+0x10e>
    {
      if ((HAL_GetTick() - tickstart) > CLOCKSWITCH_TIMEOUT_VALUE)
 8002b40:	f7ff f8f8 	bl	8001d34 <HAL_GetTick>
 8002b44:	4602      	mov	r2, r0
 8002b46:	68fb      	ldr	r3, [r7, #12]
 8002b48:	1ad3      	subs	r3, r2, r3
 8002b4a:	f241 3288 	movw	r2, #5000	; 0x1388
 8002b4e:	4293      	cmp	r3, r2
 8002b50:	d901      	bls.n	8002b56 <HAL_RCC_ClockConfig+0x10e>
      {
        return HAL_TIMEOUT;
 8002b52:	2303      	movs	r3, #3
 8002b54:	e04f      	b.n	8002bf6 <HAL_RCC_ClockConfig+0x1ae>
    while (__HAL_RCC_GET_SYSCLK_SOURCE() != (RCC_ClkInitStruct->SYSCLKSource << RCC_CFGR_SWS_Pos))
 8002b56:	4b2b      	ldr	r3, [pc, #172]	; (8002c04 <HAL_RCC_ClockConfig+0x1bc>)
 8002b58:	689b      	ldr	r3, [r3, #8]
 8002b5a:	f003 020c 	and.w	r2, r3, #12
 8002b5e:	687b      	ldr	r3, [r7, #4]
 8002b60:	685b      	ldr	r3, [r3, #4]
 8002b62:	009b      	lsls	r3, r3, #2
 8002b64:	429a      	cmp	r2, r3
 8002b66:	d1eb      	bne.n	8002b40 <HAL_RCC_ClockConfig+0xf8>
      }
    }
  }

  /* Decreasing the number of wait states because of lower CPU frequency */
  if(FLatency < __HAL_FLASH_GET_LATENCY())
 8002b68:	4b25      	ldr	r3, [pc, #148]	; (8002c00 <HAL_RCC_ClockConfig+0x1b8>)
 8002b6a:	681b      	ldr	r3, [r3, #0]
 8002b6c:	f003 0307 	and.w	r3, r3, #7
 8002b70:	683a      	ldr	r2, [r7, #0]
 8002b72:	429a      	cmp	r2, r3
 8002b74:	d20c      	bcs.n	8002b90 <HAL_RCC_ClockConfig+0x148>
  {
     /* Program the new number of wait states to the LATENCY bits in the FLASH_ACR register */
    __HAL_FLASH_SET_LATENCY(FLatency);
 8002b76:	4b22      	ldr	r3, [pc, #136]	; (8002c00 <HAL_RCC_ClockConfig+0x1b8>)
 8002b78:	683a      	ldr	r2, [r7, #0]
 8002b7a:	b2d2      	uxtb	r2, r2
 8002b7c:	701a      	strb	r2, [r3, #0]

    /* Check that the new number of wait states is taken into account to access the Flash
    memory by reading the FLASH_ACR register */
    if(__HAL_FLASH_GET_LATENCY() != FLatency)
 8002b7e:	4b20      	ldr	r3, [pc, #128]	; (8002c00 <HAL_RCC_ClockConfig+0x1b8>)
 8002b80:	681b      	ldr	r3, [r3, #0]
 8002b82:	f003 0307 	and.w	r3, r3, #7
 8002b86:	683a      	ldr	r2, [r7, #0]
 8002b88:	429a      	cmp	r2, r3
 8002b8a:	d001      	beq.n	8002b90 <HAL_RCC_ClockConfig+0x148>
    {
      return HAL_ERROR;
 8002b8c:	2301      	movs	r3, #1
 8002b8e:	e032      	b.n	8002bf6 <HAL_RCC_ClockConfig+0x1ae>
    }
  }

  /*-------------------------- PCLK1 Configuration ---------------------------*/
  if(((RCC_ClkInitStruct->ClockType) & RCC_CLOCKTYPE_PCLK1) == RCC_CLOCKTYPE_PCLK1)
 8002b90:	687b      	ldr	r3, [r7, #4]
 8002b92:	681b      	ldr	r3, [r3, #0]
 8002b94:	f003 0304 	and.w	r3, r3, #4
 8002b98:	2b00      	cmp	r3, #0
 8002b9a:	d008      	beq.n	8002bae <HAL_RCC_ClockConfig+0x166>
  {
    assert_param(IS_RCC_PCLK(RCC_ClkInitStruct->APB1CLKDivider));
    MODIFY_REG(RCC->CFGR, RCC_CFGR_PPRE1, RCC_ClkInitStruct->APB1CLKDivider);
 8002b9c:	4b19      	ldr	r3, [pc, #100]	; (8002c04 <HAL_RCC_ClockConfig+0x1bc>)
 8002b9e:	689b      	ldr	r3, [r3, #8]
 8002ba0:	f423 52e0 	bic.w	r2, r3, #7168	; 0x1c00
 8002ba4:	687b      	ldr	r3, [r7, #4]
 8002ba6:	68db      	ldr	r3, [r3, #12]
 8002ba8:	4916      	ldr	r1, [pc, #88]	; (8002c04 <HAL_RCC_ClockConfig+0x1bc>)
 8002baa:	4313      	orrs	r3, r2
 8002bac:	608b      	str	r3, [r1, #8]
  }

  /*-------------------------- PCLK2 Configuration ---------------------------*/
  if(((RCC_ClkInitStruct->ClockType) & RCC_CLOCKTYPE_PCLK2) == RCC_CLOCKTYPE_PCLK2)
 8002bae:	687b      	ldr	r3, [r7, #4]
 8002bb0:	681b      	ldr	r3, [r3, #0]
 8002bb2:	f003 0308 	and.w	r3, r3, #8
 8002bb6:	2b00      	cmp	r3, #0
 8002bb8:	d009      	beq.n	8002bce <HAL_RCC_ClockConfig+0x186>
  {
    assert_param(IS_RCC_PCLK(RCC_ClkInitStruct->APB2CLKDivider));
    MODIFY_REG(RCC->CFGR, RCC_CFGR_PPRE2, ((RCC_ClkInitStruct->APB2CLKDivider) << 3U));
 8002bba:	4b12      	ldr	r3, [pc, #72]	; (8002c04 <HAL_RCC_ClockConfig+0x1bc>)
 8002bbc:	689b      	ldr	r3, [r3, #8]
 8002bbe:	f423 4260 	bic.w	r2, r3, #57344	; 0xe000
 8002bc2:	687b      	ldr	r3, [r7, #4]
 8002bc4:	691b      	ldr	r3, [r3, #16]
 8002bc6:	00db      	lsls	r3, r3, #3
 8002bc8:	490e      	ldr	r1, [pc, #56]	; (8002c04 <HAL_RCC_ClockConfig+0x1bc>)
 8002bca:	4313      	orrs	r3, r2
 8002bcc:	608b      	str	r3, [r1, #8]
  }

  /* Update the SystemCoreClock global variable */
  SystemCoreClock = HAL_RCC_GetSysClockFreq() >> AHBPrescTable[(RCC->CFGR & RCC_CFGR_HPRE)>> RCC_CFGR_HPRE_Pos];
 8002bce:	f000 f821 	bl	8002c14 <HAL_RCC_GetSysClockFreq>
 8002bd2:	4602      	mov	r2, r0
 8002bd4:	4b0b      	ldr	r3, [pc, #44]	; (8002c04 <HAL_RCC_ClockConfig+0x1bc>)
 8002bd6:	689b      	ldr	r3, [r3, #8]
 8002bd8:	091b      	lsrs	r3, r3, #4
 8002bda:	f003 030f 	and.w	r3, r3, #15
 8002bde:	490a      	ldr	r1, [pc, #40]	; (8002c08 <HAL_RCC_ClockConfig+0x1c0>)
 8002be0:	5ccb      	ldrb	r3, [r1, r3]
 8002be2:	fa22 f303 	lsr.w	r3, r2, r3
 8002be6:	4a09      	ldr	r2, [pc, #36]	; (8002c0c <HAL_RCC_ClockConfig+0x1c4>)
 8002be8:	6013      	str	r3, [r2, #0]

  /* Configure the source of time base considering new system clocks settings */
  HAL_InitTick (uwTickPrio);
 8002bea:	4b09      	ldr	r3, [pc, #36]	; (8002c10 <HAL_RCC_ClockConfig+0x1c8>)
 8002bec:	681b      	ldr	r3, [r3, #0]
 8002bee:	4618      	mov	r0, r3
 8002bf0:	f7ff f85c 	bl	8001cac <HAL_InitTick>

  return HAL_OK;
 8002bf4:	2300      	movs	r3, #0
}
 8002bf6:	4618      	mov	r0, r3
 8002bf8:	3710      	adds	r7, #16
 8002bfa:	46bd      	mov	sp, r7
 8002bfc:	bd80      	pop	{r7, pc}
 8002bfe:	bf00      	nop
 8002c00:	40023c00 	.word	0x40023c00
 8002c04:	40023800 	.word	0x40023800
 8002c08:	08005420 	.word	0x08005420
 8002c0c:	20000064 	.word	0x20000064
 8002c10:	20000068 	.word	0x20000068

08002c14 <HAL_RCC_GetSysClockFreq>:
  *
  *
  * @retval SYSCLK frequency
  */
__weak uint32_t HAL_RCC_GetSysClockFreq(void)
{
 8002c14:	e92d 43b0 	stmdb	sp!, {r4, r5, r7, r8, r9, lr}
 8002c18:	b084      	sub	sp, #16
 8002c1a:	af00      	add	r7, sp, #0
  uint32_t pllm = 0U, pllvco = 0U, pllp = 0U;
 8002c1c:	2300      	movs	r3, #0
 8002c1e:	607b      	str	r3, [r7, #4]
 8002c20:	2300      	movs	r3, #0
 8002c22:	60fb      	str	r3, [r7, #12]
 8002c24:	2300      	movs	r3, #0
 8002c26:	603b      	str	r3, [r7, #0]
  uint32_t sysclockfreq = 0U;
 8002c28:	2300      	movs	r3, #0
 8002c2a:	60bb      	str	r3, [r7, #8]

  /* Get SYSCLK source -------------------------------------------------------*/
  switch (RCC->CFGR & RCC_CFGR_SWS)
 8002c2c:	4b67      	ldr	r3, [pc, #412]	; (8002dcc <HAL_RCC_GetSysClockFreq+0x1b8>)
 8002c2e:	689b      	ldr	r3, [r3, #8]
 8002c30:	f003 030c 	and.w	r3, r3, #12
 8002c34:	2b08      	cmp	r3, #8
 8002c36:	d00d      	beq.n	8002c54 <HAL_RCC_GetSysClockFreq+0x40>
 8002c38:	2b08      	cmp	r3, #8
 8002c3a:	f200 80bd 	bhi.w	8002db8 <HAL_RCC_GetSysClockFreq+0x1a4>
 8002c3e:	2b00      	cmp	r3, #0
 8002c40:	d002      	beq.n	8002c48 <HAL_RCC_GetSysClockFreq+0x34>
 8002c42:	2b04      	cmp	r3, #4
 8002c44:	d003      	beq.n	8002c4e <HAL_RCC_GetSysClockFreq+0x3a>
 8002c46:	e0b7      	b.n	8002db8 <HAL_RCC_GetSysClockFreq+0x1a4>
  {
    case RCC_CFGR_SWS_HSI:  /* HSI used as system clock source */
    {
      sysclockfreq = HSI_VALUE;
 8002c48:	4b61      	ldr	r3, [pc, #388]	; (8002dd0 <HAL_RCC_GetSysClockFreq+0x1bc>)
 8002c4a:	60bb      	str	r3, [r7, #8]
       break;
 8002c4c:	e0b7      	b.n	8002dbe <HAL_RCC_GetSysClockFreq+0x1aa>
    }
    case RCC_CFGR_SWS_HSE:  /* HSE used as system clock  source */
    {
      sysclockfreq = HSE_VALUE;
 8002c4e:	4b61      	ldr	r3, [pc, #388]	; (8002dd4 <HAL_RCC_GetSysClockFreq+0x1c0>)
 8002c50:	60bb      	str	r3, [r7, #8]
      break;
 8002c52:	e0b4      	b.n	8002dbe <HAL_RCC_GetSysClockFreq+0x1aa>
    }
    case RCC_CFGR_SWS_PLL:  /* PLL used as system clock  source */
    {
      /* PLL_VCO = (HSE_VALUE or HSI_VALUE / PLLM) * PLLN
      SYSCLK = PLL_VCO / PLLP */
      pllm = RCC->PLLCFGR & RCC_PLLCFGR_PLLM;
 8002c54:	4b5d      	ldr	r3, [pc, #372]	; (8002dcc <HAL_RCC_GetSysClockFreq+0x1b8>)
 8002c56:	685b      	ldr	r3, [r3, #4]
 8002c58:	f003 033f 	and.w	r3, r3, #63	; 0x3f
 8002c5c:	607b      	str	r3, [r7, #4]
      if(__HAL_RCC_GET_PLL_OSCSOURCE() != RCC_PLLSOURCE_HSI)
 8002c5e:	4b5b      	ldr	r3, [pc, #364]	; (8002dcc <HAL_RCC_GetSysClockFreq+0x1b8>)
 8002c60:	685b      	ldr	r3, [r3, #4]
 8002c62:	f403 0380 	and.w	r3, r3, #4194304	; 0x400000
 8002c66:	2b00      	cmp	r3, #0
 8002c68:	d04d      	beq.n	8002d06 <HAL_RCC_GetSysClockFreq+0xf2>
      {
        /* HSE used as PLL clock source */
        pllvco = (uint32_t) ((((uint64_t) HSE_VALUE * ((uint64_t) ((RCC->PLLCFGR & RCC_PLLCFGR_PLLN) >> RCC_PLLCFGR_PLLN_Pos)))) / (uint64_t)pllm);
 8002c6a:	4b58      	ldr	r3, [pc, #352]	; (8002dcc <HAL_RCC_GetSysClockFreq+0x1b8>)
 8002c6c:	685b      	ldr	r3, [r3, #4]
 8002c6e:	099b      	lsrs	r3, r3, #6
 8002c70:	461a      	mov	r2, r3
 8002c72:	f04f 0300 	mov.w	r3, #0
 8002c76:	f240 10ff 	movw	r0, #511	; 0x1ff
 8002c7a:	f04f 0100 	mov.w	r1, #0
 8002c7e:	ea02 0800 	and.w	r8, r2, r0
 8002c82:	ea03 0901 	and.w	r9, r3, r1
 8002c86:	4640      	mov	r0, r8
 8002c88:	4649      	mov	r1, r9
 8002c8a:	f04f 0200 	mov.w	r2, #0
 8002c8e:	f04f 0300 	mov.w	r3, #0
 8002c92:	014b      	lsls	r3, r1, #5
 8002c94:	ea43 63d0 	orr.w	r3, r3, r0, lsr #27
 8002c98:	0142      	lsls	r2, r0, #5
 8002c9a:	4610      	mov	r0, r2
 8002c9c:	4619      	mov	r1, r3
 8002c9e:	ebb0 0008 	subs.w	r0, r0, r8
 8002ca2:	eb61 0109 	sbc.w	r1, r1, r9
 8002ca6:	f04f 0200 	mov.w	r2, #0
 8002caa:	f04f 0300 	mov.w	r3, #0
 8002cae:	018b      	lsls	r3, r1, #6
 8002cb0:	ea43 6390 	orr.w	r3, r3, r0, lsr #26
 8002cb4:	0182      	lsls	r2, r0, #6
 8002cb6:	1a12      	subs	r2, r2, r0
 8002cb8:	eb63 0301 	sbc.w	r3, r3, r1
 8002cbc:	f04f 0000 	mov.w	r0, #0
 8002cc0:	f04f 0100 	mov.w	r1, #0
 8002cc4:	00d9      	lsls	r1, r3, #3
 8002cc6:	ea41 7152 	orr.w	r1, r1, r2, lsr #29
 8002cca:	00d0      	lsls	r0, r2, #3
 8002ccc:	4602      	mov	r2, r0
 8002cce:	460b      	mov	r3, r1
 8002cd0:	eb12 0208 	adds.w	r2, r2, r8
 8002cd4:	eb43 0309 	adc.w	r3, r3, r9
 8002cd8:	f04f 0000 	mov.w	r0, #0
 8002cdc:	f04f 0100 	mov.w	r1, #0
 8002ce0:	0259      	lsls	r1, r3, #9
 8002ce2:	ea41 51d2 	orr.w	r1, r1, r2, lsr #23
 8002ce6:	0250      	lsls	r0, r2, #9
 8002ce8:	4602      	mov	r2, r0
 8002cea:	460b      	mov	r3, r1
 8002cec:	4610      	mov	r0, r2
 8002cee:	4619      	mov	r1, r3
 8002cf0:	687b      	ldr	r3, [r7, #4]
 8002cf2:	461a      	mov	r2, r3
 8002cf4:	f04f 0300 	mov.w	r3, #0
 8002cf8:	f7fd fc9e 	bl	8000638 <__aeabi_uldivmod>
 8002cfc:	4602      	mov	r2, r0
 8002cfe:	460b      	mov	r3, r1
 8002d00:	4613      	mov	r3, r2
 8002d02:	60fb      	str	r3, [r7, #12]
 8002d04:	e04a      	b.n	8002d9c <HAL_RCC_GetSysClockFreq+0x188>
      }
      else
      {
        /* HSI used as PLL clock source */
        pllvco = (uint32_t) ((((uint64_t) HSI_VALUE * ((uint64_t) ((RCC->PLLCFGR & RCC_PLLCFGR_PLLN) >> RCC_PLLCFGR_PLLN_Pos)))) / (uint64_t)pllm);
 8002d06:	4b31      	ldr	r3, [pc, #196]	; (8002dcc <HAL_RCC_GetSysClockFreq+0x1b8>)
 8002d08:	685b      	ldr	r3, [r3, #4]
 8002d0a:	099b      	lsrs	r3, r3, #6
 8002d0c:	461a      	mov	r2, r3
 8002d0e:	f04f 0300 	mov.w	r3, #0
 8002d12:	f240 10ff 	movw	r0, #511	; 0x1ff
 8002d16:	f04f 0100 	mov.w	r1, #0
 8002d1a:	ea02 0400 	and.w	r4, r2, r0
 8002d1e:	ea03 0501 	and.w	r5, r3, r1
 8002d22:	4620      	mov	r0, r4
 8002d24:	4629      	mov	r1, r5
 8002d26:	f04f 0200 	mov.w	r2, #0
 8002d2a:	f04f 0300 	mov.w	r3, #0
 8002d2e:	014b      	lsls	r3, r1, #5
 8002d30:	ea43 63d0 	orr.w	r3, r3, r0, lsr #27
 8002d34:	0142      	lsls	r2, r0, #5
 8002d36:	4610      	mov	r0, r2
 8002d38:	4619      	mov	r1, r3
 8002d3a:	1b00      	subs	r0, r0, r4
 8002d3c:	eb61 0105 	sbc.w	r1, r1, r5
 8002d40:	f04f 0200 	mov.w	r2, #0
 8002d44:	f04f 0300 	mov.w	r3, #0
 8002d48:	018b      	lsls	r3, r1, #6
 8002d4a:	ea43 6390 	orr.w	r3, r3, r0, lsr #26
 8002d4e:	0182      	lsls	r2, r0, #6
 8002d50:	1a12      	subs	r2, r2, r0
 8002d52:	eb63 0301 	sbc.w	r3, r3, r1
 8002d56:	f04f 0000 	mov.w	r0, #0
 8002d5a:	f04f 0100 	mov.w	r1, #0
 8002d5e:	00d9      	lsls	r1, r3, #3
 8002d60:	ea41 7152 	orr.w	r1, r1, r2, lsr #29
 8002d64:	00d0      	lsls	r0, r2, #3
 8002d66:	4602      	mov	r2, r0
 8002d68:	460b      	mov	r3, r1
 8002d6a:	1912      	adds	r2, r2, r4
 8002d6c:	eb45 0303 	adc.w	r3, r5, r3
 8002d70:	f04f 0000 	mov.w	r0, #0
 8002d74:	f04f 0100 	mov.w	r1, #0
 8002d78:	0299      	lsls	r1, r3, #10
 8002d7a:	ea41 5192 	orr.w	r1, r1, r2, lsr #22
 8002d7e:	0290      	lsls	r0, r2, #10
 8002d80:	4602      	mov	r2, r0
 8002d82:	460b      	mov	r3, r1
 8002d84:	4610      	mov	r0, r2
 8002d86:	4619      	mov	r1, r3
 8002d88:	687b      	ldr	r3, [r7, #4]
 8002d8a:	461a      	mov	r2, r3
 8002d8c:	f04f 0300 	mov.w	r3, #0
 8002d90:	f7fd fc52 	bl	8000638 <__aeabi_uldivmod>
 8002d94:	4602      	mov	r2, r0
 8002d96:	460b      	mov	r3, r1
 8002d98:	4613      	mov	r3, r2
 8002d9a:	60fb      	str	r3, [r7, #12]
      }
      pllp = ((((RCC->PLLCFGR & RCC_PLLCFGR_PLLP) >> RCC_PLLCFGR_PLLP_Pos) + 1U) *2U);
 8002d9c:	4b0b      	ldr	r3, [pc, #44]	; (8002dcc <HAL_RCC_GetSysClockFreq+0x1b8>)
 8002d9e:	685b      	ldr	r3, [r3, #4]
 8002da0:	0c1b      	lsrs	r3, r3, #16
 8002da2:	f003 0303 	and.w	r3, r3, #3
 8002da6:	3301      	adds	r3, #1
 8002da8:	005b      	lsls	r3, r3, #1
 8002daa:	603b      	str	r3, [r7, #0]

      sysclockfreq = pllvco/pllp;
 8002dac:	68fa      	ldr	r2, [r7, #12]
 8002dae:	683b      	ldr	r3, [r7, #0]
 8002db0:	fbb2 f3f3 	udiv	r3, r2, r3
 8002db4:	60bb      	str	r3, [r7, #8]
      break;
 8002db6:	e002      	b.n	8002dbe <HAL_RCC_GetSysClockFreq+0x1aa>
    }
    default:
    {
      sysclockfreq = HSI_VALUE;
 8002db8:	4b05      	ldr	r3, [pc, #20]	; (8002dd0 <HAL_RCC_GetSysClockFreq+0x1bc>)
 8002dba:	60bb      	str	r3, [r7, #8]
      break;
 8002dbc:	bf00      	nop
    }
  }
  return sysclockfreq;
 8002dbe:	68bb      	ldr	r3, [r7, #8]
}
 8002dc0:	4618      	mov	r0, r3
 8002dc2:	3710      	adds	r7, #16
 8002dc4:	46bd      	mov	sp, r7
 8002dc6:	e8bd 83b0 	ldmia.w	sp!, {r4, r5, r7, r8, r9, pc}
 8002dca:	bf00      	nop
 8002dcc:	40023800 	.word	0x40023800
 8002dd0:	00f42400 	.word	0x00f42400
 8002dd4:	007a1200 	.word	0x007a1200

08002dd8 <HAL_RCC_GetHCLKFreq>:
  * @note   The SystemCoreClock CMSIS variable is used to store System Clock Frequency
  *         and updated within this function
  * @retval HCLK frequency
  */
uint32_t HAL_RCC_GetHCLKFreq(void)
{
 8002dd8:	b480      	push	{r7}
 8002dda:	af00      	add	r7, sp, #0
  return SystemCoreClock;
 8002ddc:	4b03      	ldr	r3, [pc, #12]	; (8002dec <HAL_RCC_GetHCLKFreq+0x14>)
 8002dde:	681b      	ldr	r3, [r3, #0]
}
 8002de0:	4618      	mov	r0, r3
 8002de2:	46bd      	mov	sp, r7
 8002de4:	f85d 7b04 	ldr.w	r7, [sp], #4
 8002de8:	4770      	bx	lr
 8002dea:	bf00      	nop
 8002dec:	20000064 	.word	0x20000064

08002df0 <HAL_RCC_GetPCLK1Freq>:
  * @note   Each time PCLK1 changes, this function must be called to update the
  *         right PCLK1 value. Otherwise, any configuration based on this function will be incorrect.
  * @retval PCLK1 frequency
  */
uint32_t HAL_RCC_GetPCLK1Freq(void)
{
 8002df0:	b580      	push	{r7, lr}
 8002df2:	af00      	add	r7, sp, #0
  /* Get HCLK source and Compute PCLK1 frequency ---------------------------*/
  return (HAL_RCC_GetHCLKFreq() >> APBPrescTable[(RCC->CFGR & RCC_CFGR_PPRE1)>> RCC_CFGR_PPRE1_Pos]);
 8002df4:	f7ff fff0 	bl	8002dd8 <HAL_RCC_GetHCLKFreq>
 8002df8:	4602      	mov	r2, r0
 8002dfa:	4b05      	ldr	r3, [pc, #20]	; (8002e10 <HAL_RCC_GetPCLK1Freq+0x20>)
 8002dfc:	689b      	ldr	r3, [r3, #8]
 8002dfe:	0a9b      	lsrs	r3, r3, #10
 8002e00:	f003 0307 	and.w	r3, r3, #7
 8002e04:	4903      	ldr	r1, [pc, #12]	; (8002e14 <HAL_RCC_GetPCLK1Freq+0x24>)
 8002e06:	5ccb      	ldrb	r3, [r1, r3]
 8002e08:	fa22 f303 	lsr.w	r3, r2, r3
}
 8002e0c:	4618      	mov	r0, r3
 8002e0e:	bd80      	pop	{r7, pc}
 8002e10:	40023800 	.word	0x40023800
 8002e14:	08005430 	.word	0x08005430

08002e18 <HAL_RCC_GetPCLK2Freq>:
  * @note   Each time PCLK2 changes, this function must be called to update the
  *         right PCLK2 value. Otherwise, any configuration based on this function will be incorrect.
  * @retval PCLK2 frequency
  */
uint32_t HAL_RCC_GetPCLK2Freq(void)
{
 8002e18:	b580      	push	{r7, lr}
 8002e1a:	af00      	add	r7, sp, #0
  /* Get HCLK source and Compute PCLK2 frequency ---------------------------*/
  return (HAL_RCC_GetHCLKFreq()>> APBPrescTable[(RCC->CFGR & RCC_CFGR_PPRE2)>> RCC_CFGR_PPRE2_Pos]);
 8002e1c:	f7ff ffdc 	bl	8002dd8 <HAL_RCC_GetHCLKFreq>
 8002e20:	4602      	mov	r2, r0
 8002e22:	4b05      	ldr	r3, [pc, #20]	; (8002e38 <HAL_RCC_GetPCLK2Freq+0x20>)
 8002e24:	689b      	ldr	r3, [r3, #8]
 8002e26:	0b5b      	lsrs	r3, r3, #13
 8002e28:	f003 0307 	and.w	r3, r3, #7
 8002e2c:	4903      	ldr	r1, [pc, #12]	; (8002e3c <HAL_RCC_GetPCLK2Freq+0x24>)
 8002e2e:	5ccb      	ldrb	r3, [r1, r3]
 8002e30:	fa22 f303 	lsr.w	r3, r2, r3
}
 8002e34:	4618      	mov	r0, r3
 8002e36:	bd80      	pop	{r7, pc}
 8002e38:	40023800 	.word	0x40023800
 8002e3c:	08005430 	.word	0x08005430

08002e40 <HAL_RCCEx_PeriphCLKConfig>:
  *        domain (RTC and RCC_BDCR register expect BKPSRAM) will be reset
  *
  * @retval HAL status
  */
HAL_StatusTypeDef HAL_RCCEx_PeriphCLKConfig(RCC_PeriphCLKInitTypeDef  *PeriphClkInit)
{
 8002e40:	b580      	push	{r7, lr}
 8002e42:	b086      	sub	sp, #24
 8002e44:	af00      	add	r7, sp, #0
 8002e46:	6078      	str	r0, [r7, #4]
  uint32_t tickstart = 0U;
 8002e48:	2300      	movs	r3, #0
 8002e4a:	617b      	str	r3, [r7, #20]
  uint32_t tmpreg1 = 0U;
 8002e4c:	2300      	movs	r3, #0
 8002e4e:	613b      	str	r3, [r7, #16]

  /* Check the parameters */
  assert_param(IS_RCC_PERIPHCLOCK(PeriphClkInit->PeriphClockSelection));

  /*---------------------------- I2S configuration ---------------------------*/
  if((((PeriphClkInit->PeriphClockSelection) & RCC_PERIPHCLK_I2S) == RCC_PERIPHCLK_I2S) ||
 8002e50:	687b      	ldr	r3, [r7, #4]
 8002e52:	681b      	ldr	r3, [r3, #0]
 8002e54:	f003 0301 	and.w	r3, r3, #1
 8002e58:	2b00      	cmp	r3, #0
 8002e5a:	d105      	bne.n	8002e68 <HAL_RCCEx_PeriphCLKConfig+0x28>
     (((PeriphClkInit->PeriphClockSelection) & RCC_PERIPHCLK_PLLI2S) == RCC_PERIPHCLK_PLLI2S))
 8002e5c:	687b      	ldr	r3, [r7, #4]
 8002e5e:	681b      	ldr	r3, [r3, #0]
 8002e60:	f003 0304 	and.w	r3, r3, #4
  if((((PeriphClkInit->PeriphClockSelection) & RCC_PERIPHCLK_I2S) == RCC_PERIPHCLK_I2S) ||
 8002e64:	2b00      	cmp	r3, #0
 8002e66:	d035      	beq.n	8002ed4 <HAL_RCCEx_PeriphCLKConfig+0x94>
    assert_param(IS_RCC_PLLI2SN_VALUE(PeriphClkInit->PLLI2S.PLLI2SN));
#if defined(STM32F411xE)
    assert_param(IS_RCC_PLLI2SM_VALUE(PeriphClkInit->PLLI2S.PLLI2SM));
#endif /* STM32F411xE */
    /* Disable the PLLI2S */
    __HAL_RCC_PLLI2S_DISABLE();
 8002e68:	4b62      	ldr	r3, [pc, #392]	; (8002ff4 <HAL_RCCEx_PeriphCLKConfig+0x1b4>)
 8002e6a:	2200      	movs	r2, #0
 8002e6c:	601a      	str	r2, [r3, #0]
    /* Get tick */
    tickstart = HAL_GetTick();
 8002e6e:	f7fe ff61 	bl	8001d34 <HAL_GetTick>
 8002e72:	6178      	str	r0, [r7, #20]
    /* Wait till PLLI2S is disabled */
    while(__HAL_RCC_GET_FLAG(RCC_FLAG_PLLI2SRDY)  != RESET)
 8002e74:	e008      	b.n	8002e88 <HAL_RCCEx_PeriphCLKConfig+0x48>
    {
      if((HAL_GetTick() - tickstart ) > PLLI2S_TIMEOUT_VALUE)
 8002e76:	f7fe ff5d 	bl	8001d34 <HAL_GetTick>
 8002e7a:	4602      	mov	r2, r0
 8002e7c:	697b      	ldr	r3, [r7, #20]
 8002e7e:	1ad3      	subs	r3, r2, r3
 8002e80:	2b02      	cmp	r3, #2
 8002e82:	d901      	bls.n	8002e88 <HAL_RCCEx_PeriphCLKConfig+0x48>
      {
        /* return in case of Timeout detected */
        return HAL_TIMEOUT;
 8002e84:	2303      	movs	r3, #3
 8002e86:	e0b0      	b.n	8002fea <HAL_RCCEx_PeriphCLKConfig+0x1aa>
    while(__HAL_RCC_GET_FLAG(RCC_FLAG_PLLI2SRDY)  != RESET)
 8002e88:	4b5b      	ldr	r3, [pc, #364]	; (8002ff8 <HAL_RCCEx_PeriphCLKConfig+0x1b8>)
 8002e8a:	681b      	ldr	r3, [r3, #0]
 8002e8c:	f003 6300 	and.w	r3, r3, #134217728	; 0x8000000
 8002e90:	2b00      	cmp	r3, #0
 8002e92:	d1f0      	bne.n	8002e76 <HAL_RCCEx_PeriphCLKConfig+0x36>
    __HAL_RCC_PLLI2S_I2SCLK_CONFIG(PeriphClkInit->PLLI2S.PLLI2SM, PeriphClkInit->PLLI2S.PLLI2SN, PeriphClkInit->PLLI2S.PLLI2SR);
#else
    /* Configure the PLLI2S division factors */
    /* PLLI2S_VCO = f(VCO clock) = f(PLLI2S clock input) * (PLLI2SN/PLLM) */
    /* I2SCLK = f(PLLI2S clock output) = f(VCO clock) / PLLI2SR */
    __HAL_RCC_PLLI2S_CONFIG(PeriphClkInit->PLLI2S.PLLI2SN , PeriphClkInit->PLLI2S.PLLI2SR);
 8002e94:	687b      	ldr	r3, [r7, #4]
 8002e96:	685b      	ldr	r3, [r3, #4]
 8002e98:	019a      	lsls	r2, r3, #6
 8002e9a:	687b      	ldr	r3, [r7, #4]
 8002e9c:	689b      	ldr	r3, [r3, #8]
 8002e9e:	071b      	lsls	r3, r3, #28
 8002ea0:	4955      	ldr	r1, [pc, #340]	; (8002ff8 <HAL_RCCEx_PeriphCLKConfig+0x1b8>)
 8002ea2:	4313      	orrs	r3, r2
 8002ea4:	f8c1 3084 	str.w	r3, [r1, #132]	; 0x84
#endif /* STM32F411xE */

    /* Enable the PLLI2S */
    __HAL_RCC_PLLI2S_ENABLE();
 8002ea8:	4b52      	ldr	r3, [pc, #328]	; (8002ff4 <HAL_RCCEx_PeriphCLKConfig+0x1b4>)
 8002eaa:	2201      	movs	r2, #1
 8002eac:	601a      	str	r2, [r3, #0]
    /* Get tick */
    tickstart = HAL_GetTick();
 8002eae:	f7fe ff41 	bl	8001d34 <HAL_GetTick>
 8002eb2:	6178      	str	r0, [r7, #20]
    /* Wait till PLLI2S is ready */
    while(__HAL_RCC_GET_FLAG(RCC_FLAG_PLLI2SRDY)  == RESET)
 8002eb4:	e008      	b.n	8002ec8 <HAL_RCCEx_PeriphCLKConfig+0x88>
    {
      if((HAL_GetTick() - tickstart ) > PLLI2S_TIMEOUT_VALUE)
 8002eb6:	f7fe ff3d 	bl	8001d34 <HAL_GetTick>
 8002eba:	4602      	mov	r2, r0
 8002ebc:	697b      	ldr	r3, [r7, #20]
 8002ebe:	1ad3      	subs	r3, r2, r3
 8002ec0:	2b02      	cmp	r3, #2
 8002ec2:	d901      	bls.n	8002ec8 <HAL_RCCEx_PeriphCLKConfig+0x88>
      {
        /* return in case of Timeout detected */
        return HAL_TIMEOUT;
 8002ec4:	2303      	movs	r3, #3
 8002ec6:	e090      	b.n	8002fea <HAL_RCCEx_PeriphCLKConfig+0x1aa>
    while(__HAL_RCC_GET_FLAG(RCC_FLAG_PLLI2SRDY)  == RESET)
 8002ec8:	4b4b      	ldr	r3, [pc, #300]	; (8002ff8 <HAL_RCCEx_PeriphCLKConfig+0x1b8>)
 8002eca:	681b      	ldr	r3, [r3, #0]
 8002ecc:	f003 6300 	and.w	r3, r3, #134217728	; 0x8000000
 8002ed0:	2b00      	cmp	r3, #0
 8002ed2:	d0f0      	beq.n	8002eb6 <HAL_RCCEx_PeriphCLKConfig+0x76>
      }
    }
  }

  /*---------------------------- RTC configuration ---------------------------*/
  if(((PeriphClkInit->PeriphClockSelection) & RCC_PERIPHCLK_RTC) == (RCC_PERIPHCLK_RTC))
 8002ed4:	687b      	ldr	r3, [r7, #4]
 8002ed6:	681b      	ldr	r3, [r3, #0]
 8002ed8:	f003 0302 	and.w	r3, r3, #2
 8002edc:	2b00      	cmp	r3, #0
 8002ede:	f000 8083 	beq.w	8002fe8 <HAL_RCCEx_PeriphCLKConfig+0x1a8>
  {
    /* Check for RTC Parameters used to output RTCCLK */
    assert_param(IS_RCC_RTCCLKSOURCE(PeriphClkInit->RTCClockSelection));

    /* Enable Power Clock*/
    __HAL_RCC_PWR_CLK_ENABLE();
 8002ee2:	2300      	movs	r3, #0
 8002ee4:	60fb      	str	r3, [r7, #12]
 8002ee6:	4b44      	ldr	r3, [pc, #272]	; (8002ff8 <HAL_RCCEx_PeriphCLKConfig+0x1b8>)
 8002ee8:	6c1b      	ldr	r3, [r3, #64]	; 0x40
 8002eea:	4a43      	ldr	r2, [pc, #268]	; (8002ff8 <HAL_RCCEx_PeriphCLKConfig+0x1b8>)
 8002eec:	f043 5380 	orr.w	r3, r3, #268435456	; 0x10000000
 8002ef0:	6413      	str	r3, [r2, #64]	; 0x40
 8002ef2:	4b41      	ldr	r3, [pc, #260]	; (8002ff8 <HAL_RCCEx_PeriphCLKConfig+0x1b8>)
 8002ef4:	6c1b      	ldr	r3, [r3, #64]	; 0x40
 8002ef6:	f003 5380 	and.w	r3, r3, #268435456	; 0x10000000
 8002efa:	60fb      	str	r3, [r7, #12]
 8002efc:	68fb      	ldr	r3, [r7, #12]

    /* Enable write access to Backup domain */
    PWR->CR |= PWR_CR_DBP;
 8002efe:	4b3f      	ldr	r3, [pc, #252]	; (8002ffc <HAL_RCCEx_PeriphCLKConfig+0x1bc>)
 8002f00:	681b      	ldr	r3, [r3, #0]
 8002f02:	4a3e      	ldr	r2, [pc, #248]	; (8002ffc <HAL_RCCEx_PeriphCLKConfig+0x1bc>)
 8002f04:	f443 7380 	orr.w	r3, r3, #256	; 0x100
 8002f08:	6013      	str	r3, [r2, #0]

    /* Get tick */
    tickstart = HAL_GetTick();
 8002f0a:	f7fe ff13 	bl	8001d34 <HAL_GetTick>
 8002f0e:	6178      	str	r0, [r7, #20]

    while((PWR->CR & PWR_CR_DBP) == RESET)
 8002f10:	e008      	b.n	8002f24 <HAL_RCCEx_PeriphCLKConfig+0xe4>
    {
      if((HAL_GetTick() - tickstart ) > RCC_DBP_TIMEOUT_VALUE)
 8002f12:	f7fe ff0f 	bl	8001d34 <HAL_GetTick>
 8002f16:	4602      	mov	r2, r0
 8002f18:	697b      	ldr	r3, [r7, #20]
 8002f1a:	1ad3      	subs	r3, r2, r3
 8002f1c:	2b02      	cmp	r3, #2
 8002f1e:	d901      	bls.n	8002f24 <HAL_RCCEx_PeriphCLKConfig+0xe4>
      {
        return HAL_TIMEOUT;
 8002f20:	2303      	movs	r3, #3
 8002f22:	e062      	b.n	8002fea <HAL_RCCEx_PeriphCLKConfig+0x1aa>
    while((PWR->CR & PWR_CR_DBP) == RESET)
 8002f24:	4b35      	ldr	r3, [pc, #212]	; (8002ffc <HAL_RCCEx_PeriphCLKConfig+0x1bc>)
 8002f26:	681b      	ldr	r3, [r3, #0]
 8002f28:	f403 7380 	and.w	r3, r3, #256	; 0x100
 8002f2c:	2b00      	cmp	r3, #0
 8002f2e:	d0f0      	beq.n	8002f12 <HAL_RCCEx_PeriphCLKConfig+0xd2>
      }
    }
    /* Reset the Backup domain only if the RTC Clock source selection is modified from reset value */
    tmpreg1 = (RCC->BDCR & RCC_BDCR_RTCSEL);
 8002f30:	4b31      	ldr	r3, [pc, #196]	; (8002ff8 <HAL_RCCEx_PeriphCLKConfig+0x1b8>)
 8002f32:	6f1b      	ldr	r3, [r3, #112]	; 0x70
 8002f34:	f403 7340 	and.w	r3, r3, #768	; 0x300
 8002f38:	613b      	str	r3, [r7, #16]
    if((tmpreg1 != 0x00000000U) && ((tmpreg1) != (PeriphClkInit->RTCClockSelection & RCC_BDCR_RTCSEL)))
 8002f3a:	693b      	ldr	r3, [r7, #16]
 8002f3c:	2b00      	cmp	r3, #0
 8002f3e:	d02f      	beq.n	8002fa0 <HAL_RCCEx_PeriphCLKConfig+0x160>
 8002f40:	687b      	ldr	r3, [r7, #4]
 8002f42:	68db      	ldr	r3, [r3, #12]
 8002f44:	f403 7340 	and.w	r3, r3, #768	; 0x300
 8002f48:	693a      	ldr	r2, [r7, #16]
 8002f4a:	429a      	cmp	r2, r3
 8002f4c:	d028      	beq.n	8002fa0 <HAL_RCCEx_PeriphCLKConfig+0x160>
    {
      /* Store the content of BDCR register before the reset of Backup Domain */
      tmpreg1 = (RCC->BDCR & ~(RCC_BDCR_RTCSEL));
 8002f4e:	4b2a      	ldr	r3, [pc, #168]	; (8002ff8 <HAL_RCCEx_PeriphCLKConfig+0x1b8>)
 8002f50:	6f1b      	ldr	r3, [r3, #112]	; 0x70
 8002f52:	f423 7340 	bic.w	r3, r3, #768	; 0x300
 8002f56:	613b      	str	r3, [r7, #16]
      /* RTC Clock selection can be changed only if the Backup Domain is reset */
      __HAL_RCC_BACKUPRESET_FORCE();
 8002f58:	4b29      	ldr	r3, [pc, #164]	; (8003000 <HAL_RCCEx_PeriphCLKConfig+0x1c0>)
 8002f5a:	2201      	movs	r2, #1
 8002f5c:	601a      	str	r2, [r3, #0]
      __HAL_RCC_BACKUPRESET_RELEASE();
 8002f5e:	4b28      	ldr	r3, [pc, #160]	; (8003000 <HAL_RCCEx_PeriphCLKConfig+0x1c0>)
 8002f60:	2200      	movs	r2, #0
 8002f62:	601a      	str	r2, [r3, #0]
      /* Restore the Content of BDCR register */
      RCC->BDCR = tmpreg1;
 8002f64:	4a24      	ldr	r2, [pc, #144]	; (8002ff8 <HAL_RCCEx_PeriphCLKConfig+0x1b8>)
 8002f66:	693b      	ldr	r3, [r7, #16]
 8002f68:	6713      	str	r3, [r2, #112]	; 0x70

      /* Wait for LSE reactivation if LSE was enable prior to Backup Domain reset */
      if(HAL_IS_BIT_SET(RCC->BDCR, RCC_BDCR_LSEON))
 8002f6a:	4b23      	ldr	r3, [pc, #140]	; (8002ff8 <HAL_RCCEx_PeriphCLKConfig+0x1b8>)
 8002f6c:	6f1b      	ldr	r3, [r3, #112]	; 0x70
 8002f6e:	f003 0301 	and.w	r3, r3, #1
 8002f72:	2b01      	cmp	r3, #1
 8002f74:	d114      	bne.n	8002fa0 <HAL_RCCEx_PeriphCLKConfig+0x160>
      {
        /* Get tick */
        tickstart = HAL_GetTick();
 8002f76:	f7fe fedd 	bl	8001d34 <HAL_GetTick>
 8002f7a:	6178      	str	r0, [r7, #20]

        /* Wait till LSE is ready */
        while(__HAL_RCC_GET_FLAG(RCC_FLAG_LSERDY) == RESET)
 8002f7c:	e00a      	b.n	8002f94 <HAL_RCCEx_PeriphCLKConfig+0x154>
        {
          if((HAL_GetTick() - tickstart ) > RCC_LSE_TIMEOUT_VALUE)
 8002f7e:	f7fe fed9 	bl	8001d34 <HAL_GetTick>
 8002f82:	4602      	mov	r2, r0
 8002f84:	697b      	ldr	r3, [r7, #20]
 8002f86:	1ad3      	subs	r3, r2, r3
 8002f88:	f241 3288 	movw	r2, #5000	; 0x1388
 8002f8c:	4293      	cmp	r3, r2
 8002f8e:	d901      	bls.n	8002f94 <HAL_RCCEx_PeriphCLKConfig+0x154>
          {
            return HAL_TIMEOUT;
 8002f90:	2303      	movs	r3, #3
 8002f92:	e02a      	b.n	8002fea <HAL_RCCEx_PeriphCLKConfig+0x1aa>
        while(__HAL_RCC_GET_FLAG(RCC_FLAG_LSERDY) == RESET)
 8002f94:	4b18      	ldr	r3, [pc, #96]	; (8002ff8 <HAL_RCCEx_PeriphCLKConfig+0x1b8>)
 8002f96:	6f1b      	ldr	r3, [r3, #112]	; 0x70
 8002f98:	f003 0302 	and.w	r3, r3, #2
 8002f9c:	2b00      	cmp	r3, #0
 8002f9e:	d0ee      	beq.n	8002f7e <HAL_RCCEx_PeriphCLKConfig+0x13e>
          }
        }
      }
    }
    __HAL_RCC_RTC_CONFIG(PeriphClkInit->RTCClockSelection);
 8002fa0:	687b      	ldr	r3, [r7, #4]
 8002fa2:	68db      	ldr	r3, [r3, #12]
 8002fa4:	f403 7340 	and.w	r3, r3, #768	; 0x300
 8002fa8:	f5b3 7f40 	cmp.w	r3, #768	; 0x300
 8002fac:	d10d      	bne.n	8002fca <HAL_RCCEx_PeriphCLKConfig+0x18a>
 8002fae:	4b12      	ldr	r3, [pc, #72]	; (8002ff8 <HAL_RCCEx_PeriphCLKConfig+0x1b8>)
 8002fb0:	689b      	ldr	r3, [r3, #8]
 8002fb2:	f423 12f8 	bic.w	r2, r3, #2031616	; 0x1f0000
 8002fb6:	687b      	ldr	r3, [r7, #4]
 8002fb8:	68db      	ldr	r3, [r3, #12]
 8002fba:	f023 4370 	bic.w	r3, r3, #4026531840	; 0xf0000000
 8002fbe:	f423 7340 	bic.w	r3, r3, #768	; 0x300
 8002fc2:	490d      	ldr	r1, [pc, #52]	; (8002ff8 <HAL_RCCEx_PeriphCLKConfig+0x1b8>)
 8002fc4:	4313      	orrs	r3, r2
 8002fc6:	608b      	str	r3, [r1, #8]
 8002fc8:	e005      	b.n	8002fd6 <HAL_RCCEx_PeriphCLKConfig+0x196>
 8002fca:	4b0b      	ldr	r3, [pc, #44]	; (8002ff8 <HAL_RCCEx_PeriphCLKConfig+0x1b8>)
 8002fcc:	689b      	ldr	r3, [r3, #8]
 8002fce:	4a0a      	ldr	r2, [pc, #40]	; (8002ff8 <HAL_RCCEx_PeriphCLKConfig+0x1b8>)
 8002fd0:	f423 13f8 	bic.w	r3, r3, #2031616	; 0x1f0000
 8002fd4:	6093      	str	r3, [r2, #8]
 8002fd6:	4b08      	ldr	r3, [pc, #32]	; (8002ff8 <HAL_RCCEx_PeriphCLKConfig+0x1b8>)
 8002fd8:	6f1a      	ldr	r2, [r3, #112]	; 0x70
 8002fda:	687b      	ldr	r3, [r7, #4]
 8002fdc:	68db      	ldr	r3, [r3, #12]
 8002fde:	f3c3 030b 	ubfx	r3, r3, #0, #12
 8002fe2:	4905      	ldr	r1, [pc, #20]	; (8002ff8 <HAL_RCCEx_PeriphCLKConfig+0x1b8>)
 8002fe4:	4313      	orrs	r3, r2
 8002fe6:	670b      	str	r3, [r1, #112]	; 0x70
  if(((PeriphClkInit->PeriphClockSelection) & RCC_PERIPHCLK_TIM) == (RCC_PERIPHCLK_TIM))
  {
    __HAL_RCC_TIMCLKPRESCALER(PeriphClkInit->TIMPresSelection);
  }
#endif /* STM32F401xC || STM32F401xE || STM32F411xE */
  return HAL_OK;
 8002fe8:	2300      	movs	r3, #0
}
 8002fea:	4618      	mov	r0, r3
 8002fec:	3718      	adds	r7, #24
 8002fee:	46bd      	mov	sp, r7
 8002ff0:	bd80      	pop	{r7, pc}
 8002ff2:	bf00      	nop
 8002ff4:	42470068 	.word	0x42470068
 8002ff8:	40023800 	.word	0x40023800
 8002ffc:	40007000 	.word	0x40007000
 8003000:	42470e40 	.word	0x42470e40

08003004 <HAL_RTC_Init>:
  * @param  hrtc pointer to a RTC_HandleTypeDef structure that contains
  *                the configuration information for RTC.
  * @retval HAL status
  */
HAL_StatusTypeDef HAL_RTC_Init(RTC_HandleTypeDef *hrtc)
{
 8003004:	b580      	push	{r7, lr}
 8003006:	b082      	sub	sp, #8
 8003008:	af00      	add	r7, sp, #0
 800300a:	6078      	str	r0, [r7, #4]
  /* Check the RTC peripheral state */
  if(hrtc == NULL)
 800300c:	687b      	ldr	r3, [r7, #4]
 800300e:	2b00      	cmp	r3, #0
 8003010:	d101      	bne.n	8003016 <HAL_RTC_Init+0x12>
  {
     return HAL_ERROR;
 8003012:	2301      	movs	r3, #1
 8003014:	e0a4      	b.n	8003160 <HAL_RTC_Init+0x15c>
  assert_param (IS_RTC_OUTPUT(hrtc->Init.OutPut));
  assert_param (IS_RTC_OUTPUT_POL(hrtc->Init.OutPutPolarity));
  assert_param(IS_RTC_OUTPUT_TYPE(hrtc->Init.OutPutType));

#if (USE_HAL_RTC_REGISTER_CALLBACKS == 1)
  if(hrtc->State == HAL_RTC_STATE_RESET)
 8003016:	687b      	ldr	r3, [r7, #4]
 8003018:	7f5b      	ldrb	r3, [r3, #29]
 800301a:	b2db      	uxtb	r3, r3
 800301c:	2b00      	cmp	r3, #0
 800301e:	d126      	bne.n	800306e <HAL_RTC_Init+0x6a>
  {
    /* Allocate lock resource and initialize it */
    hrtc->Lock = HAL_UNLOCKED;
 8003020:	687b      	ldr	r3, [r7, #4]
 8003022:	2200      	movs	r2, #0
 8003024:	771a      	strb	r2, [r3, #28]

    hrtc->AlarmAEventCallback          =  HAL_RTC_AlarmAEventCallback;        /* Legacy weak AlarmAEventCallback      */
 8003026:	687b      	ldr	r3, [r7, #4]
 8003028:	4a4f      	ldr	r2, [pc, #316]	; (8003168 <HAL_RTC_Init+0x164>)
 800302a:	621a      	str	r2, [r3, #32]
    hrtc->AlarmBEventCallback          =  HAL_RTCEx_AlarmBEventCallback;      /* Legacy weak AlarmBEventCallback      */
 800302c:	687b      	ldr	r3, [r7, #4]
 800302e:	4a4f      	ldr	r2, [pc, #316]	; (800316c <HAL_RTC_Init+0x168>)
 8003030:	625a      	str	r2, [r3, #36]	; 0x24
    hrtc->TimeStampEventCallback       =  HAL_RTCEx_TimeStampEventCallback;   /* Legacy weak TimeStampEventCallback   */
 8003032:	687b      	ldr	r3, [r7, #4]
 8003034:	4a4e      	ldr	r2, [pc, #312]	; (8003170 <HAL_RTC_Init+0x16c>)
 8003036:	629a      	str	r2, [r3, #40]	; 0x28
    hrtc->WakeUpTimerEventCallback     =  HAL_RTCEx_WakeUpTimerEventCallback; /* Legacy weak WakeUpTimerEventCallback */
 8003038:	687b      	ldr	r3, [r7, #4]
 800303a:	4a4e      	ldr	r2, [pc, #312]	; (8003174 <HAL_RTC_Init+0x170>)
 800303c:	62da      	str	r2, [r3, #44]	; 0x2c
    hrtc->Tamper1EventCallback         =  HAL_RTCEx_Tamper1EventCallback;     /* Legacy weak Tamper1EventCallback     */
 800303e:	687b      	ldr	r3, [r7, #4]
 8003040:	4a4d      	ldr	r2, [pc, #308]	; (8003178 <HAL_RTC_Init+0x174>)
 8003042:	631a      	str	r2, [r3, #48]	; 0x30
    hrtc->Tamper2EventCallback         =  HAL_RTCEx_Tamper2EventCallback;     /* Legacy weak Tamper2EventCallback     */
 8003044:	687b      	ldr	r3, [r7, #4]
 8003046:	4a4d      	ldr	r2, [pc, #308]	; (800317c <HAL_RTC_Init+0x178>)
 8003048:	635a      	str	r2, [r3, #52]	; 0x34

    if(hrtc->MspInitCallback == NULL)
 800304a:	687b      	ldr	r3, [r7, #4]
 800304c:	6b9b      	ldr	r3, [r3, #56]	; 0x38
 800304e:	2b00      	cmp	r3, #0
 8003050:	d102      	bne.n	8003058 <HAL_RTC_Init+0x54>
    {
      hrtc->MspInitCallback = HAL_RTC_MspInit;
 8003052:	687b      	ldr	r3, [r7, #4]
 8003054:	4a4a      	ldr	r2, [pc, #296]	; (8003180 <HAL_RTC_Init+0x17c>)
 8003056:	639a      	str	r2, [r3, #56]	; 0x38
    }
    /* Init the low level hardware */
    hrtc->MspInitCallback(hrtc);
 8003058:	687b      	ldr	r3, [r7, #4]
 800305a:	6b9b      	ldr	r3, [r3, #56]	; 0x38
 800305c:	6878      	ldr	r0, [r7, #4]
 800305e:	4798      	blx	r3

    if(hrtc->MspDeInitCallback == NULL)
 8003060:	687b      	ldr	r3, [r7, #4]
 8003062:	6bdb      	ldr	r3, [r3, #60]	; 0x3c
 8003064:	2b00      	cmp	r3, #0
 8003066:	d102      	bne.n	800306e <HAL_RTC_Init+0x6a>
    {
      hrtc->MspDeInitCallback = HAL_RTC_MspDeInit;
 8003068:	687b      	ldr	r3, [r7, #4]
 800306a:	4a46      	ldr	r2, [pc, #280]	; (8003184 <HAL_RTC_Init+0x180>)
 800306c:	63da      	str	r2, [r3, #60]	; 0x3c
    HAL_RTC_MspInit(hrtc);
  }
#endif /* (USE_HAL_RTC_REGISTER_CALLBACKS) */

  /* Set RTC state */
  hrtc->State = HAL_RTC_STATE_BUSY;
 800306e:	687b      	ldr	r3, [r7, #4]
 8003070:	2202      	movs	r2, #2
 8003072:	775a      	strb	r2, [r3, #29]

  /* Disable the write protection for RTC registers */
  __HAL_RTC_WRITEPROTECTION_DISABLE(hrtc);
 8003074:	687b      	ldr	r3, [r7, #4]
 8003076:	681b      	ldr	r3, [r3, #0]
 8003078:	22ca      	movs	r2, #202	; 0xca
 800307a:	625a      	str	r2, [r3, #36]	; 0x24
 800307c:	687b      	ldr	r3, [r7, #4]
 800307e:	681b      	ldr	r3, [r3, #0]
 8003080:	2253      	movs	r2, #83	; 0x53
 8003082:	625a      	str	r2, [r3, #36]	; 0x24

  /* Set Initialization mode */
  if(RTC_EnterInitMode(hrtc) != HAL_OK)
 8003084:	6878      	ldr	r0, [r7, #4]
 8003086:	f000 fcc9 	bl	8003a1c <RTC_EnterInitMode>
 800308a:	4603      	mov	r3, r0
 800308c:	2b00      	cmp	r3, #0
 800308e:	d008      	beq.n	80030a2 <HAL_RTC_Init+0x9e>
  {
    /* Enable the write protection for RTC registers */
    __HAL_RTC_WRITEPROTECTION_ENABLE(hrtc);
 8003090:	687b      	ldr	r3, [r7, #4]
 8003092:	681b      	ldr	r3, [r3, #0]
 8003094:	22ff      	movs	r2, #255	; 0xff
 8003096:	625a      	str	r2, [r3, #36]	; 0x24

    /* Set RTC state */
    hrtc->State = HAL_RTC_STATE_ERROR;
 8003098:	687b      	ldr	r3, [r7, #4]
 800309a:	2204      	movs	r2, #4
 800309c:	775a      	strb	r2, [r3, #29]

    return HAL_ERROR;
 800309e:	2301      	movs	r3, #1
 80030a0:	e05e      	b.n	8003160 <HAL_RTC_Init+0x15c>
  }
  else
  {
    /* Clear RTC_CR FMT, OSEL and POL Bits */
    hrtc->Instance->CR &= ((uint32_t)~(RTC_CR_FMT | RTC_CR_OSEL | RTC_CR_POL));
 80030a2:	687b      	ldr	r3, [r7, #4]
 80030a4:	681b      	ldr	r3, [r3, #0]
 80030a6:	689b      	ldr	r3, [r3, #8]
 80030a8:	687a      	ldr	r2, [r7, #4]
 80030aa:	6812      	ldr	r2, [r2, #0]
 80030ac:	f423 03e0 	bic.w	r3, r3, #7340032	; 0x700000
 80030b0:	f023 0340 	bic.w	r3, r3, #64	; 0x40
 80030b4:	6093      	str	r3, [r2, #8]
    /* Set RTC_CR register */
    hrtc->Instance->CR |= (uint32_t)(hrtc->Init.HourFormat | hrtc->Init.OutPut | hrtc->Init.OutPutPolarity);
 80030b6:	687b      	ldr	r3, [r7, #4]
 80030b8:	681b      	ldr	r3, [r3, #0]
 80030ba:	6899      	ldr	r1, [r3, #8]
 80030bc:	687b      	ldr	r3, [r7, #4]
 80030be:	685a      	ldr	r2, [r3, #4]
 80030c0:	687b      	ldr	r3, [r7, #4]
 80030c2:	691b      	ldr	r3, [r3, #16]
 80030c4:	431a      	orrs	r2, r3
 80030c6:	687b      	ldr	r3, [r7, #4]
 80030c8:	695b      	ldr	r3, [r3, #20]
 80030ca:	431a      	orrs	r2, r3
 80030cc:	687b      	ldr	r3, [r7, #4]
 80030ce:	681b      	ldr	r3, [r3, #0]
 80030d0:	430a      	orrs	r2, r1
 80030d2:	609a      	str	r2, [r3, #8]

    /* Configure the RTC PRER */
    hrtc->Instance->PRER = (uint32_t)(hrtc->Init.SynchPrediv);
 80030d4:	687b      	ldr	r3, [r7, #4]
 80030d6:	681b      	ldr	r3, [r3, #0]
 80030d8:	687a      	ldr	r2, [r7, #4]
 80030da:	68d2      	ldr	r2, [r2, #12]
 80030dc:	611a      	str	r2, [r3, #16]
    hrtc->Instance->PRER |= (uint32_t)(hrtc->Init.AsynchPrediv << 16U);
 80030de:	687b      	ldr	r3, [r7, #4]
 80030e0:	681b      	ldr	r3, [r3, #0]
 80030e2:	6919      	ldr	r1, [r3, #16]
 80030e4:	687b      	ldr	r3, [r7, #4]
 80030e6:	689b      	ldr	r3, [r3, #8]
 80030e8:	041a      	lsls	r2, r3, #16
 80030ea:	687b      	ldr	r3, [r7, #4]
 80030ec:	681b      	ldr	r3, [r3, #0]
 80030ee:	430a      	orrs	r2, r1
 80030f0:	611a      	str	r2, [r3, #16]

    /* Exit Initialization mode */
    hrtc->Instance->ISR &= (uint32_t)~RTC_ISR_INIT;
 80030f2:	687b      	ldr	r3, [r7, #4]
 80030f4:	681b      	ldr	r3, [r3, #0]
 80030f6:	68da      	ldr	r2, [r3, #12]
 80030f8:	687b      	ldr	r3, [r7, #4]
 80030fa:	681b      	ldr	r3, [r3, #0]
 80030fc:	f022 0280 	bic.w	r2, r2, #128	; 0x80
 8003100:	60da      	str	r2, [r3, #12]

    /* If  CR_BYPSHAD bit = 0, wait for synchro else this check is not needed */
    if((hrtc->Instance->CR & RTC_CR_BYPSHAD) == RESET)
 8003102:	687b      	ldr	r3, [r7, #4]
 8003104:	681b      	ldr	r3, [r3, #0]
 8003106:	689b      	ldr	r3, [r3, #8]
 8003108:	f003 0320 	and.w	r3, r3, #32
 800310c:	2b00      	cmp	r3, #0
 800310e:	d10e      	bne.n	800312e <HAL_RTC_Init+0x12a>
    {
      if(HAL_RTC_WaitForSynchro(hrtc) != HAL_OK)
 8003110:	6878      	ldr	r0, [r7, #4]
 8003112:	f000 fc5b 	bl	80039cc <HAL_RTC_WaitForSynchro>
 8003116:	4603      	mov	r3, r0
 8003118:	2b00      	cmp	r3, #0
 800311a:	d008      	beq.n	800312e <HAL_RTC_Init+0x12a>
      {
        /* Enable the write protection for RTC registers */
        __HAL_RTC_WRITEPROTECTION_ENABLE(hrtc);
 800311c:	687b      	ldr	r3, [r7, #4]
 800311e:	681b      	ldr	r3, [r3, #0]
 8003120:	22ff      	movs	r2, #255	; 0xff
 8003122:	625a      	str	r2, [r3, #36]	; 0x24

        hrtc->State = HAL_RTC_STATE_ERROR;
 8003124:	687b      	ldr	r3, [r7, #4]
 8003126:	2204      	movs	r2, #4
 8003128:	775a      	strb	r2, [r3, #29]

        return HAL_ERROR;
 800312a:	2301      	movs	r3, #1
 800312c:	e018      	b.n	8003160 <HAL_RTC_Init+0x15c>
      }
    }

    hrtc->Instance->TAFCR &= (uint32_t)~RTC_TAFCR_ALARMOUTTYPE;
 800312e:	687b      	ldr	r3, [r7, #4]
 8003130:	681b      	ldr	r3, [r3, #0]
 8003132:	6c1a      	ldr	r2, [r3, #64]	; 0x40
 8003134:	687b      	ldr	r3, [r7, #4]
 8003136:	681b      	ldr	r3, [r3, #0]
 8003138:	f422 2280 	bic.w	r2, r2, #262144	; 0x40000
 800313c:	641a      	str	r2, [r3, #64]	; 0x40
    hrtc->Instance->TAFCR |= (uint32_t)(hrtc->Init.OutPutType);
 800313e:	687b      	ldr	r3, [r7, #4]
 8003140:	681b      	ldr	r3, [r3, #0]
 8003142:	6c19      	ldr	r1, [r3, #64]	; 0x40
 8003144:	687b      	ldr	r3, [r7, #4]
 8003146:	699a      	ldr	r2, [r3, #24]
 8003148:	687b      	ldr	r3, [r7, #4]
 800314a:	681b      	ldr	r3, [r3, #0]
 800314c:	430a      	orrs	r2, r1
 800314e:	641a      	str	r2, [r3, #64]	; 0x40

    /* Enable the write protection for RTC registers */
    __HAL_RTC_WRITEPROTECTION_ENABLE(hrtc);
 8003150:	687b      	ldr	r3, [r7, #4]
 8003152:	681b      	ldr	r3, [r3, #0]
 8003154:	22ff      	movs	r2, #255	; 0xff
 8003156:	625a      	str	r2, [r3, #36]	; 0x24

    /* Set RTC state */
    hrtc->State = HAL_RTC_STATE_READY;
 8003158:	687b      	ldr	r3, [r7, #4]
 800315a:	2201      	movs	r2, #1
 800315c:	775a      	strb	r2, [r3, #29]

    return HAL_OK;
 800315e:	2300      	movs	r3, #0
  }
}
 8003160:	4618      	mov	r0, r3
 8003162:	3708      	adds	r7, #8
 8003164:	46bd      	mov	sp, r7
 8003166:	bd80      	pop	{r7, pc}
 8003168:	08000b79 	.word	0x08000b79
 800316c:	08003ba1 	.word	0x08003ba1
 8003170:	08003aed 	.word	0x08003aed
 8003174:	08003b29 	.word	0x08003b29
 8003178:	08003b01 	.word	0x08003b01
 800317c:	08003b15 	.word	0x08003b15
 8003180:	080016e5 	.word	0x080016e5
 8003184:	0800171d 	.word	0x0800171d

08003188 <HAL_RTC_SetTime>:
  *            @arg RTC_FORMAT_BIN: Binary data format
  *            @arg RTC_FORMAT_BCD: BCD data format
  * @retval HAL status
  */
HAL_StatusTypeDef HAL_RTC_SetTime(RTC_HandleTypeDef *hrtc, RTC_TimeTypeDef *sTime, uint32_t Format)
{
 8003188:	b590      	push	{r4, r7, lr}
 800318a:	b087      	sub	sp, #28
 800318c:	af00      	add	r7, sp, #0
 800318e:	60f8      	str	r0, [r7, #12]
 8003190:	60b9      	str	r1, [r7, #8]
 8003192:	607a      	str	r2, [r7, #4]
  uint32_t tmpreg = 0U;
 8003194:	2300      	movs	r3, #0
 8003196:	617b      	str	r3, [r7, #20]
  assert_param(IS_RTC_FORMAT(Format));
  assert_param(IS_RTC_DAYLIGHT_SAVING(sTime->DayLightSaving));
  assert_param(IS_RTC_STORE_OPERATION(sTime->StoreOperation));

  /* Process Locked */
  __HAL_LOCK(hrtc);
 8003198:	68fb      	ldr	r3, [r7, #12]
 800319a:	7f1b      	ldrb	r3, [r3, #28]
 800319c:	2b01      	cmp	r3, #1
 800319e:	d101      	bne.n	80031a4 <HAL_RTC_SetTime+0x1c>
 80031a0:	2302      	movs	r3, #2
 80031a2:	e0aa      	b.n	80032fa <HAL_RTC_SetTime+0x172>
 80031a4:	68fb      	ldr	r3, [r7, #12]
 80031a6:	2201      	movs	r2, #1
 80031a8:	771a      	strb	r2, [r3, #28]

  hrtc->State = HAL_RTC_STATE_BUSY;
 80031aa:	68fb      	ldr	r3, [r7, #12]
 80031ac:	2202      	movs	r2, #2
 80031ae:	775a      	strb	r2, [r3, #29]

  if(Format == RTC_FORMAT_BIN)
 80031b0:	687b      	ldr	r3, [r7, #4]
 80031b2:	2b00      	cmp	r3, #0
 80031b4:	d126      	bne.n	8003204 <HAL_RTC_SetTime+0x7c>
  {
    if((hrtc->Instance->CR & RTC_CR_FMT) != (uint32_t)RESET)
 80031b6:	68fb      	ldr	r3, [r7, #12]
 80031b8:	681b      	ldr	r3, [r3, #0]
 80031ba:	689b      	ldr	r3, [r3, #8]
 80031bc:	f003 0340 	and.w	r3, r3, #64	; 0x40
 80031c0:	2b00      	cmp	r3, #0
 80031c2:	d102      	bne.n	80031ca <HAL_RTC_SetTime+0x42>
      assert_param(IS_RTC_HOUR12(sTime->Hours));
      assert_param(IS_RTC_HOURFORMAT12(sTime->TimeFormat));
    }
    else
    {
      sTime->TimeFormat = 0x00U;
 80031c4:	68bb      	ldr	r3, [r7, #8]
 80031c6:	2200      	movs	r2, #0
 80031c8:	70da      	strb	r2, [r3, #3]
      assert_param(IS_RTC_HOUR24(sTime->Hours));
    }
    assert_param(IS_RTC_MINUTES(sTime->Minutes));
    assert_param(IS_RTC_SECONDS(sTime->Seconds));

    tmpreg = (uint32_t)(((uint32_t)RTC_ByteToBcd2(sTime->Hours) << 16U) | \
 80031ca:	68bb      	ldr	r3, [r7, #8]
 80031cc:	781b      	ldrb	r3, [r3, #0]
 80031ce:	4618      	mov	r0, r3
 80031d0:	f000 fc50 	bl	8003a74 <RTC_ByteToBcd2>
 80031d4:	4603      	mov	r3, r0
 80031d6:	041c      	lsls	r4, r3, #16
                        ((uint32_t)RTC_ByteToBcd2(sTime->Minutes) << 8U) | \
 80031d8:	68bb      	ldr	r3, [r7, #8]
 80031da:	785b      	ldrb	r3, [r3, #1]
 80031dc:	4618      	mov	r0, r3
 80031de:	f000 fc49 	bl	8003a74 <RTC_ByteToBcd2>
 80031e2:	4603      	mov	r3, r0
 80031e4:	021b      	lsls	r3, r3, #8
    tmpreg = (uint32_t)(((uint32_t)RTC_ByteToBcd2(sTime->Hours) << 16U) | \
 80031e6:	431c      	orrs	r4, r3
                        ((uint32_t)RTC_ByteToBcd2(sTime->Seconds)) | \
 80031e8:	68bb      	ldr	r3, [r7, #8]
 80031ea:	789b      	ldrb	r3, [r3, #2]
 80031ec:	4618      	mov	r0, r3
 80031ee:	f000 fc41 	bl	8003a74 <RTC_ByteToBcd2>
 80031f2:	4603      	mov	r3, r0
                        ((uint32_t)RTC_ByteToBcd2(sTime->Minutes) << 8U) | \
 80031f4:	ea44 0203 	orr.w	r2, r4, r3
                        (((uint32_t)sTime->TimeFormat) << 16U));
 80031f8:	68bb      	ldr	r3, [r7, #8]
 80031fa:	78db      	ldrb	r3, [r3, #3]
 80031fc:	041b      	lsls	r3, r3, #16
    tmpreg = (uint32_t)(((uint32_t)RTC_ByteToBcd2(sTime->Hours) << 16U) | \
 80031fe:	4313      	orrs	r3, r2
 8003200:	617b      	str	r3, [r7, #20]
 8003202:	e018      	b.n	8003236 <HAL_RTC_SetTime+0xae>
  }
  else
  {
    if((hrtc->Instance->CR & RTC_CR_FMT) != (uint32_t)RESET)
 8003204:	68fb      	ldr	r3, [r7, #12]
 8003206:	681b      	ldr	r3, [r3, #0]
 8003208:	689b      	ldr	r3, [r3, #8]
 800320a:	f003 0340 	and.w	r3, r3, #64	; 0x40
 800320e:	2b00      	cmp	r3, #0
 8003210:	d102      	bne.n	8003218 <HAL_RTC_SetTime+0x90>
      assert_param(IS_RTC_HOUR12(RTC_Bcd2ToByte(sTime->Hours)));
      assert_param(IS_RTC_HOURFORMAT12(sTime->TimeFormat));
    }
    else
    {
      sTime->TimeFormat = 0x00U;
 8003212:	68bb      	ldr	r3, [r7, #8]
 8003214:	2200      	movs	r2, #0
 8003216:	70da      	strb	r2, [r3, #3]
      assert_param(IS_RTC_HOUR24(RTC_Bcd2ToByte(sTime->Hours)));
    }
    assert_param(IS_RTC_MINUTES(RTC_Bcd2ToByte(sTime->Minutes)));
    assert_param(IS_RTC_SECONDS(RTC_Bcd2ToByte(sTime->Seconds)));
    tmpreg = (((uint32_t)(sTime->Hours) << 16U) | \
 8003218:	68bb      	ldr	r3, [r7, #8]
 800321a:	781b      	ldrb	r3, [r3, #0]
 800321c:	041a      	lsls	r2, r3, #16
              ((uint32_t)(sTime->Minutes) << 8U) | \
 800321e:	68bb      	ldr	r3, [r7, #8]
 8003220:	785b      	ldrb	r3, [r3, #1]
 8003222:	021b      	lsls	r3, r3, #8
    tmpreg = (((uint32_t)(sTime->Hours) << 16U) | \
 8003224:	4313      	orrs	r3, r2
              ((uint32_t)sTime->Seconds) | \
 8003226:	68ba      	ldr	r2, [r7, #8]
 8003228:	7892      	ldrb	r2, [r2, #2]
              ((uint32_t)(sTime->Minutes) << 8U) | \
 800322a:	431a      	orrs	r2, r3
              ((uint32_t)(sTime->TimeFormat) << 16U));
 800322c:	68bb      	ldr	r3, [r7, #8]
 800322e:	78db      	ldrb	r3, [r3, #3]
 8003230:	041b      	lsls	r3, r3, #16
    tmpreg = (((uint32_t)(sTime->Hours) << 16U) | \
 8003232:	4313      	orrs	r3, r2
 8003234:	617b      	str	r3, [r7, #20]
  }

  /* Disable the write protection for RTC registers */
  __HAL_RTC_WRITEPROTECTION_DISABLE(hrtc);
 8003236:	68fb      	ldr	r3, [r7, #12]
 8003238:	681b      	ldr	r3, [r3, #0]
 800323a:	22ca      	movs	r2, #202	; 0xca
 800323c:	625a      	str	r2, [r3, #36]	; 0x24
 800323e:	68fb      	ldr	r3, [r7, #12]
 8003240:	681b      	ldr	r3, [r3, #0]
 8003242:	2253      	movs	r2, #83	; 0x53
 8003244:	625a      	str	r2, [r3, #36]	; 0x24

  /* Set Initialization mode */
  if(RTC_EnterInitMode(hrtc) != HAL_OK)
 8003246:	68f8      	ldr	r0, [r7, #12]
 8003248:	f000 fbe8 	bl	8003a1c <RTC_EnterInitMode>
 800324c:	4603      	mov	r3, r0
 800324e:	2b00      	cmp	r3, #0
 8003250:	d00b      	beq.n	800326a <HAL_RTC_SetTime+0xe2>
  {
    /* Enable the write protection for RTC registers */
    __HAL_RTC_WRITEPROTECTION_ENABLE(hrtc);
 8003252:	68fb      	ldr	r3, [r7, #12]
 8003254:	681b      	ldr	r3, [r3, #0]
 8003256:	22ff      	movs	r2, #255	; 0xff
 8003258:	625a      	str	r2, [r3, #36]	; 0x24

    /* Set RTC state */
    hrtc->State = HAL_RTC_STATE_ERROR;
 800325a:	68fb      	ldr	r3, [r7, #12]
 800325c:	2204      	movs	r2, #4
 800325e:	775a      	strb	r2, [r3, #29]

    /* Process Unlocked */
    __HAL_UNLOCK(hrtc);
 8003260:	68fb      	ldr	r3, [r7, #12]
 8003262:	2200      	movs	r2, #0
 8003264:	771a      	strb	r2, [r3, #28]

    return HAL_ERROR;
 8003266:	2301      	movs	r3, #1
 8003268:	e047      	b.n	80032fa <HAL_RTC_SetTime+0x172>
  }
  else
  {
    /* Set the RTC_TR register */
    hrtc->Instance->TR = (uint32_t)(tmpreg & RTC_TR_RESERVED_MASK);
 800326a:	68fb      	ldr	r3, [r7, #12]
 800326c:	681a      	ldr	r2, [r3, #0]
 800326e:	697b      	ldr	r3, [r7, #20]
 8003270:	f003 337f 	and.w	r3, r3, #2139062143	; 0x7f7f7f7f
 8003274:	f023 43fe 	bic.w	r3, r3, #2130706432	; 0x7f000000
 8003278:	6013      	str	r3, [r2, #0]

    /* This interface is deprecated. To manage Daylight Saving Time, please use HAL_RTC_DST_xxx functions */
    hrtc->Instance->CR &= (uint32_t)~RTC_CR_BCK;
 800327a:	68fb      	ldr	r3, [r7, #12]
 800327c:	681b      	ldr	r3, [r3, #0]
 800327e:	689a      	ldr	r2, [r3, #8]
 8003280:	68fb      	ldr	r3, [r7, #12]
 8003282:	681b      	ldr	r3, [r3, #0]
 8003284:	f422 2280 	bic.w	r2, r2, #262144	; 0x40000
 8003288:	609a      	str	r2, [r3, #8]

    /* This interface is deprecated. To manage Daylight Saving Time, please use HAL_RTC_DST_xxx functions */
    hrtc->Instance->CR |= (uint32_t)(sTime->DayLightSaving | sTime->StoreOperation);
 800328a:	68fb      	ldr	r3, [r7, #12]
 800328c:	681b      	ldr	r3, [r3, #0]
 800328e:	6899      	ldr	r1, [r3, #8]
 8003290:	68bb      	ldr	r3, [r7, #8]
 8003292:	68da      	ldr	r2, [r3, #12]
 8003294:	68bb      	ldr	r3, [r7, #8]
 8003296:	691b      	ldr	r3, [r3, #16]
 8003298:	431a      	orrs	r2, r3
 800329a:	68fb      	ldr	r3, [r7, #12]
 800329c:	681b      	ldr	r3, [r3, #0]
 800329e:	430a      	orrs	r2, r1
 80032a0:	609a      	str	r2, [r3, #8]

    /* Exit Initialization mode */
    hrtc->Instance->ISR &= (uint32_t)~RTC_ISR_INIT;
 80032a2:	68fb      	ldr	r3, [r7, #12]
 80032a4:	681b      	ldr	r3, [r3, #0]
 80032a6:	68da      	ldr	r2, [r3, #12]
 80032a8:	68fb      	ldr	r3, [r7, #12]
 80032aa:	681b      	ldr	r3, [r3, #0]
 80032ac:	f022 0280 	bic.w	r2, r2, #128	; 0x80
 80032b0:	60da      	str	r2, [r3, #12]

    /* If  CR_BYPSHAD bit = 0, wait for synchro else this check is not needed */
    if((hrtc->Instance->CR & RTC_CR_BYPSHAD) == RESET)
 80032b2:	68fb      	ldr	r3, [r7, #12]
 80032b4:	681b      	ldr	r3, [r3, #0]
 80032b6:	689b      	ldr	r3, [r3, #8]
 80032b8:	f003 0320 	and.w	r3, r3, #32
 80032bc:	2b00      	cmp	r3, #0
 80032be:	d111      	bne.n	80032e4 <HAL_RTC_SetTime+0x15c>
    {
      if(HAL_RTC_WaitForSynchro(hrtc) != HAL_OK)
 80032c0:	68f8      	ldr	r0, [r7, #12]
 80032c2:	f000 fb83 	bl	80039cc <HAL_RTC_WaitForSynchro>
 80032c6:	4603      	mov	r3, r0
 80032c8:	2b00      	cmp	r3, #0
 80032ca:	d00b      	beq.n	80032e4 <HAL_RTC_SetTime+0x15c>
      {
        /* Enable the write protection for RTC registers */
        __HAL_RTC_WRITEPROTECTION_ENABLE(hrtc);
 80032cc:	68fb      	ldr	r3, [r7, #12]
 80032ce:	681b      	ldr	r3, [r3, #0]
 80032d0:	22ff      	movs	r2, #255	; 0xff
 80032d2:	625a      	str	r2, [r3, #36]	; 0x24

        hrtc->State = HAL_RTC_STATE_ERROR;
 80032d4:	68fb      	ldr	r3, [r7, #12]
 80032d6:	2204      	movs	r2, #4
 80032d8:	775a      	strb	r2, [r3, #29]

        /* Process Unlocked */
        __HAL_UNLOCK(hrtc);
 80032da:	68fb      	ldr	r3, [r7, #12]
 80032dc:	2200      	movs	r2, #0
 80032de:	771a      	strb	r2, [r3, #28]

        return HAL_ERROR;
 80032e0:	2301      	movs	r3, #1
 80032e2:	e00a      	b.n	80032fa <HAL_RTC_SetTime+0x172>
      }
    }

    /* Enable the write protection for RTC registers */
    __HAL_RTC_WRITEPROTECTION_ENABLE(hrtc);
 80032e4:	68fb      	ldr	r3, [r7, #12]
 80032e6:	681b      	ldr	r3, [r3, #0]
 80032e8:	22ff      	movs	r2, #255	; 0xff
 80032ea:	625a      	str	r2, [r3, #36]	; 0x24

   hrtc->State = HAL_RTC_STATE_READY;
 80032ec:	68fb      	ldr	r3, [r7, #12]
 80032ee:	2201      	movs	r2, #1
 80032f0:	775a      	strb	r2, [r3, #29]

   __HAL_UNLOCK(hrtc);
 80032f2:	68fb      	ldr	r3, [r7, #12]
 80032f4:	2200      	movs	r2, #0
 80032f6:	771a      	strb	r2, [r3, #28]

   return HAL_OK;
 80032f8:	2300      	movs	r3, #0
  }
}
 80032fa:	4618      	mov	r0, r3
 80032fc:	371c      	adds	r7, #28
 80032fe:	46bd      	mov	sp, r7
 8003300:	bd90      	pop	{r4, r7, pc}

08003302 <HAL_RTC_GetTime>:
  *        in the higher-order calendar shadow registers to ensure consistency between the time and date values.
  *        Reading RTC current time locks the values in calendar shadow registers until current date is read.
  * @retval HAL status
  */
HAL_StatusTypeDef HAL_RTC_GetTime(RTC_HandleTypeDef *hrtc, RTC_TimeTypeDef *sTime, uint32_t Format)
{
 8003302:	b580      	push	{r7, lr}
 8003304:	b086      	sub	sp, #24
 8003306:	af00      	add	r7, sp, #0
 8003308:	60f8      	str	r0, [r7, #12]
 800330a:	60b9      	str	r1, [r7, #8]
 800330c:	607a      	str	r2, [r7, #4]
  uint32_t tmpreg = 0U;
 800330e:	2300      	movs	r3, #0
 8003310:	617b      	str	r3, [r7, #20]

  /* Check the parameters */
  assert_param(IS_RTC_FORMAT(Format));

  /* Get subseconds structure field from the corresponding register */
  sTime->SubSeconds = (uint32_t)(hrtc->Instance->SSR);
 8003312:	68fb      	ldr	r3, [r7, #12]
 8003314:	681b      	ldr	r3, [r3, #0]
 8003316:	6a9a      	ldr	r2, [r3, #40]	; 0x28
 8003318:	68bb      	ldr	r3, [r7, #8]
 800331a:	605a      	str	r2, [r3, #4]

  /* Get SecondFraction structure field from the corresponding register field*/
  sTime->SecondFraction = (uint32_t)(hrtc->Instance->PRER & RTC_PRER_PREDIV_S);
 800331c:	68fb      	ldr	r3, [r7, #12]
 800331e:	681b      	ldr	r3, [r3, #0]
 8003320:	691b      	ldr	r3, [r3, #16]
 8003322:	f3c3 020e 	ubfx	r2, r3, #0, #15
 8003326:	68bb      	ldr	r3, [r7, #8]
 8003328:	609a      	str	r2, [r3, #8]

  /* Get the TR register */
  tmpreg = (uint32_t)(hrtc->Instance->TR & RTC_TR_RESERVED_MASK);
 800332a:	68fb      	ldr	r3, [r7, #12]
 800332c:	681b      	ldr	r3, [r3, #0]
 800332e:	681b      	ldr	r3, [r3, #0]
 8003330:	f003 337f 	and.w	r3, r3, #2139062143	; 0x7f7f7f7f
 8003334:	f023 43fe 	bic.w	r3, r3, #2130706432	; 0x7f000000
 8003338:	617b      	str	r3, [r7, #20]

  /* Fill the structure fields with the read parameters */
  sTime->Hours = (uint8_t)((tmpreg & (RTC_TR_HT | RTC_TR_HU)) >> 16U);
 800333a:	697b      	ldr	r3, [r7, #20]
 800333c:	0c1b      	lsrs	r3, r3, #16
 800333e:	b2db      	uxtb	r3, r3
 8003340:	f003 033f 	and.w	r3, r3, #63	; 0x3f
 8003344:	b2da      	uxtb	r2, r3
 8003346:	68bb      	ldr	r3, [r7, #8]
 8003348:	701a      	strb	r2, [r3, #0]
  sTime->Minutes = (uint8_t)((tmpreg & (RTC_TR_MNT | RTC_TR_MNU)) >> 8U);
 800334a:	697b      	ldr	r3, [r7, #20]
 800334c:	0a1b      	lsrs	r3, r3, #8
 800334e:	b2db      	uxtb	r3, r3
 8003350:	f003 037f 	and.w	r3, r3, #127	; 0x7f
 8003354:	b2da      	uxtb	r2, r3
 8003356:	68bb      	ldr	r3, [r7, #8]
 8003358:	705a      	strb	r2, [r3, #1]
  sTime->Seconds = (uint8_t)(tmpreg & (RTC_TR_ST | RTC_TR_SU));
 800335a:	697b      	ldr	r3, [r7, #20]
 800335c:	b2db      	uxtb	r3, r3
 800335e:	f003 037f 	and.w	r3, r3, #127	; 0x7f
 8003362:	b2da      	uxtb	r2, r3
 8003364:	68bb      	ldr	r3, [r7, #8]
 8003366:	709a      	strb	r2, [r3, #2]
  sTime->TimeFormat = (uint8_t)((tmpreg & (RTC_TR_PM)) >> 16U);
 8003368:	697b      	ldr	r3, [r7, #20]
 800336a:	0c1b      	lsrs	r3, r3, #16
 800336c:	b2db      	uxtb	r3, r3
 800336e:	f003 0340 	and.w	r3, r3, #64	; 0x40
 8003372:	b2da      	uxtb	r2, r3
 8003374:	68bb      	ldr	r3, [r7, #8]
 8003376:	70da      	strb	r2, [r3, #3]

  /* Check the input parameters format */
  if(Format == RTC_FORMAT_BIN)
 8003378:	687b      	ldr	r3, [r7, #4]
 800337a:	2b00      	cmp	r3, #0
 800337c:	d11a      	bne.n	80033b4 <HAL_RTC_GetTime+0xb2>
  {
    /* Convert the time structure parameters to Binary format */
    sTime->Hours = (uint8_t)RTC_Bcd2ToByte(sTime->Hours);
 800337e:	68bb      	ldr	r3, [r7, #8]
 8003380:	781b      	ldrb	r3, [r3, #0]
 8003382:	4618      	mov	r0, r3
 8003384:	f000 fb94 	bl	8003ab0 <RTC_Bcd2ToByte>
 8003388:	4603      	mov	r3, r0
 800338a:	461a      	mov	r2, r3
 800338c:	68bb      	ldr	r3, [r7, #8]
 800338e:	701a      	strb	r2, [r3, #0]
    sTime->Minutes = (uint8_t)RTC_Bcd2ToByte(sTime->Minutes);
 8003390:	68bb      	ldr	r3, [r7, #8]
 8003392:	785b      	ldrb	r3, [r3, #1]
 8003394:	4618      	mov	r0, r3
 8003396:	f000 fb8b 	bl	8003ab0 <RTC_Bcd2ToByte>
 800339a:	4603      	mov	r3, r0
 800339c:	461a      	mov	r2, r3
 800339e:	68bb      	ldr	r3, [r7, #8]
 80033a0:	705a      	strb	r2, [r3, #1]
    sTime->Seconds = (uint8_t)RTC_Bcd2ToByte(sTime->Seconds);
 80033a2:	68bb      	ldr	r3, [r7, #8]
 80033a4:	789b      	ldrb	r3, [r3, #2]
 80033a6:	4618      	mov	r0, r3
 80033a8:	f000 fb82 	bl	8003ab0 <RTC_Bcd2ToByte>
 80033ac:	4603      	mov	r3, r0
 80033ae:	461a      	mov	r2, r3
 80033b0:	68bb      	ldr	r3, [r7, #8]
 80033b2:	709a      	strb	r2, [r3, #2]
  }

  return HAL_OK;
 80033b4:	2300      	movs	r3, #0
}
 80033b6:	4618      	mov	r0, r3
 80033b8:	3718      	adds	r7, #24
 80033ba:	46bd      	mov	sp, r7
 80033bc:	bd80      	pop	{r7, pc}

080033be <HAL_RTC_SetDate>:
  *            @arg RTC_FORMAT_BIN: Binary data format
  *            @arg RTC_FORMAT_BCD: BCD data format
  * @retval HAL status
  */
HAL_StatusTypeDef HAL_RTC_SetDate(RTC_HandleTypeDef *hrtc, RTC_DateTypeDef *sDate, uint32_t Format)
{
 80033be:	b590      	push	{r4, r7, lr}
 80033c0:	b087      	sub	sp, #28
 80033c2:	af00      	add	r7, sp, #0
 80033c4:	60f8      	str	r0, [r7, #12]
 80033c6:	60b9      	str	r1, [r7, #8]
 80033c8:	607a      	str	r2, [r7, #4]
  uint32_t datetmpreg = 0U;
 80033ca:	2300      	movs	r3, #0
 80033cc:	617b      	str	r3, [r7, #20]

 /* Check the parameters */
  assert_param(IS_RTC_FORMAT(Format));

 /* Process Locked */
 __HAL_LOCK(hrtc);
 80033ce:	68fb      	ldr	r3, [r7, #12]
 80033d0:	7f1b      	ldrb	r3, [r3, #28]
 80033d2:	2b01      	cmp	r3, #1
 80033d4:	d101      	bne.n	80033da <HAL_RTC_SetDate+0x1c>
 80033d6:	2302      	movs	r3, #2
 80033d8:	e094      	b.n	8003504 <HAL_RTC_SetDate+0x146>
 80033da:	68fb      	ldr	r3, [r7, #12]
 80033dc:	2201      	movs	r2, #1
 80033de:	771a      	strb	r2, [r3, #28]

  hrtc->State = HAL_RTC_STATE_BUSY;
 80033e0:	68fb      	ldr	r3, [r7, #12]
 80033e2:	2202      	movs	r2, #2
 80033e4:	775a      	strb	r2, [r3, #29]

  if((Format == RTC_FORMAT_BIN) && ((sDate->Month & 0x10U) == 0x10U))
 80033e6:	687b      	ldr	r3, [r7, #4]
 80033e8:	2b00      	cmp	r3, #0
 80033ea:	d10e      	bne.n	800340a <HAL_RTC_SetDate+0x4c>
 80033ec:	68bb      	ldr	r3, [r7, #8]
 80033ee:	785b      	ldrb	r3, [r3, #1]
 80033f0:	f003 0310 	and.w	r3, r3, #16
 80033f4:	2b00      	cmp	r3, #0
 80033f6:	d008      	beq.n	800340a <HAL_RTC_SetDate+0x4c>
  {
    sDate->Month = (uint8_t)((sDate->Month & (uint8_t)~(0x10U)) + (uint8_t)0x0AU);
 80033f8:	68bb      	ldr	r3, [r7, #8]
 80033fa:	785b      	ldrb	r3, [r3, #1]
 80033fc:	f023 0310 	bic.w	r3, r3, #16
 8003400:	b2db      	uxtb	r3, r3
 8003402:	330a      	adds	r3, #10
 8003404:	b2da      	uxtb	r2, r3
 8003406:	68bb      	ldr	r3, [r7, #8]
 8003408:	705a      	strb	r2, [r3, #1]
  }

  assert_param(IS_RTC_WEEKDAY(sDate->WeekDay));

  if(Format == RTC_FORMAT_BIN)
 800340a:	687b      	ldr	r3, [r7, #4]
 800340c:	2b00      	cmp	r3, #0
 800340e:	d11c      	bne.n	800344a <HAL_RTC_SetDate+0x8c>
  {
    assert_param(IS_RTC_YEAR(sDate->Year));
    assert_param(IS_RTC_MONTH(sDate->Month));
    assert_param(IS_RTC_DATE(sDate->Date));

   datetmpreg = (((uint32_t)RTC_ByteToBcd2(sDate->Year) << 16U) | \
 8003410:	68bb      	ldr	r3, [r7, #8]
 8003412:	78db      	ldrb	r3, [r3, #3]
 8003414:	4618      	mov	r0, r3
 8003416:	f000 fb2d 	bl	8003a74 <RTC_ByteToBcd2>
 800341a:	4603      	mov	r3, r0
 800341c:	041c      	lsls	r4, r3, #16
                 ((uint32_t)RTC_ByteToBcd2(sDate->Month) << 8U) | \
 800341e:	68bb      	ldr	r3, [r7, #8]
 8003420:	785b      	ldrb	r3, [r3, #1]
 8003422:	4618      	mov	r0, r3
 8003424:	f000 fb26 	bl	8003a74 <RTC_ByteToBcd2>
 8003428:	4603      	mov	r3, r0
 800342a:	021b      	lsls	r3, r3, #8
   datetmpreg = (((uint32_t)RTC_ByteToBcd2(sDate->Year) << 16U) | \
 800342c:	431c      	orrs	r4, r3
                 ((uint32_t)RTC_ByteToBcd2(sDate->Date)) | \
 800342e:	68bb      	ldr	r3, [r7, #8]
 8003430:	789b      	ldrb	r3, [r3, #2]
 8003432:	4618      	mov	r0, r3
 8003434:	f000 fb1e 	bl	8003a74 <RTC_ByteToBcd2>
 8003438:	4603      	mov	r3, r0
                 ((uint32_t)RTC_ByteToBcd2(sDate->Month) << 8U) | \
 800343a:	ea44 0203 	orr.w	r2, r4, r3
                 ((uint32_t)sDate->WeekDay << 13U));
 800343e:	68bb      	ldr	r3, [r7, #8]
 8003440:	781b      	ldrb	r3, [r3, #0]
 8003442:	035b      	lsls	r3, r3, #13
   datetmpreg = (((uint32_t)RTC_ByteToBcd2(sDate->Year) << 16U) | \
 8003444:	4313      	orrs	r3, r2
 8003446:	617b      	str	r3, [r7, #20]
 8003448:	e00e      	b.n	8003468 <HAL_RTC_SetDate+0xaa>
  {
    assert_param(IS_RTC_YEAR(RTC_Bcd2ToByte(sDate->Year)));
    assert_param(IS_RTC_MONTH(RTC_Bcd2ToByte(sDate->Month)));
    assert_param(IS_RTC_DATE(RTC_Bcd2ToByte(sDate->Date)));

    datetmpreg = ((((uint32_t)sDate->Year) << 16U) | \
 800344a:	68bb      	ldr	r3, [r7, #8]
 800344c:	78db      	ldrb	r3, [r3, #3]
 800344e:	041a      	lsls	r2, r3, #16
                  (((uint32_t)sDate->Month) << 8U) | \
 8003450:	68bb      	ldr	r3, [r7, #8]
 8003452:	785b      	ldrb	r3, [r3, #1]
 8003454:	021b      	lsls	r3, r3, #8
    datetmpreg = ((((uint32_t)sDate->Year) << 16U) | \
 8003456:	4313      	orrs	r3, r2
                  ((uint32_t)sDate->Date) | \
 8003458:	68ba      	ldr	r2, [r7, #8]
 800345a:	7892      	ldrb	r2, [r2, #2]
                  (((uint32_t)sDate->Month) << 8U) | \
 800345c:	431a      	orrs	r2, r3
                  (((uint32_t)sDate->WeekDay) << 13U));
 800345e:	68bb      	ldr	r3, [r7, #8]
 8003460:	781b      	ldrb	r3, [r3, #0]
 8003462:	035b      	lsls	r3, r3, #13
    datetmpreg = ((((uint32_t)sDate->Year) << 16U) | \
 8003464:	4313      	orrs	r3, r2
 8003466:	617b      	str	r3, [r7, #20]
  }

  /* Disable the write protection for RTC registers */
  __HAL_RTC_WRITEPROTECTION_DISABLE(hrtc);
 8003468:	68fb      	ldr	r3, [r7, #12]
 800346a:	681b      	ldr	r3, [r3, #0]
 800346c:	22ca      	movs	r2, #202	; 0xca
 800346e:	625a      	str	r2, [r3, #36]	; 0x24
 8003470:	68fb      	ldr	r3, [r7, #12]
 8003472:	681b      	ldr	r3, [r3, #0]
 8003474:	2253      	movs	r2, #83	; 0x53
 8003476:	625a      	str	r2, [r3, #36]	; 0x24

  /* Set Initialization mode */
  if(RTC_EnterInitMode(hrtc) != HAL_OK)
 8003478:	68f8      	ldr	r0, [r7, #12]
 800347a:	f000 facf 	bl	8003a1c <RTC_EnterInitMode>
 800347e:	4603      	mov	r3, r0
 8003480:	2b00      	cmp	r3, #0
 8003482:	d00b      	beq.n	800349c <HAL_RTC_SetDate+0xde>
  {
    /* Enable the write protection for RTC registers */
    __HAL_RTC_WRITEPROTECTION_ENABLE(hrtc);
 8003484:	68fb      	ldr	r3, [r7, #12]
 8003486:	681b      	ldr	r3, [r3, #0]
 8003488:	22ff      	movs	r2, #255	; 0xff
 800348a:	625a      	str	r2, [r3, #36]	; 0x24

    /* Set RTC state*/
    hrtc->State = HAL_RTC_STATE_ERROR;
 800348c:	68fb      	ldr	r3, [r7, #12]
 800348e:	2204      	movs	r2, #4
 8003490:	775a      	strb	r2, [r3, #29]

    /* Process Unlocked */
    __HAL_UNLOCK(hrtc);
 8003492:	68fb      	ldr	r3, [r7, #12]
 8003494:	2200      	movs	r2, #0
 8003496:	771a      	strb	r2, [r3, #28]

    return HAL_ERROR;
 8003498:	2301      	movs	r3, #1
 800349a:	e033      	b.n	8003504 <HAL_RTC_SetDate+0x146>
  }
  else
  {
    /* Set the RTC_DR register */
    hrtc->Instance->DR = (uint32_t)(datetmpreg & RTC_DR_RESERVED_MASK);
 800349c:	68fb      	ldr	r3, [r7, #12]
 800349e:	681a      	ldr	r2, [r3, #0]
 80034a0:	697b      	ldr	r3, [r7, #20]
 80034a2:	f023 437f 	bic.w	r3, r3, #4278190080	; 0xff000000
 80034a6:	f023 03c0 	bic.w	r3, r3, #192	; 0xc0
 80034aa:	6053      	str	r3, [r2, #4]

    /* Exit Initialization mode */
    hrtc->Instance->ISR &= (uint32_t)~RTC_ISR_INIT;
 80034ac:	68fb      	ldr	r3, [r7, #12]
 80034ae:	681b      	ldr	r3, [r3, #0]
 80034b0:	68da      	ldr	r2, [r3, #12]
 80034b2:	68fb      	ldr	r3, [r7, #12]
 80034b4:	681b      	ldr	r3, [r3, #0]
 80034b6:	f022 0280 	bic.w	r2, r2, #128	; 0x80
 80034ba:	60da      	str	r2, [r3, #12]

    /* If  CR_BYPSHAD bit = 0, wait for synchro else this check is not needed */
    if((hrtc->Instance->CR & RTC_CR_BYPSHAD) == RESET)
 80034bc:	68fb      	ldr	r3, [r7, #12]
 80034be:	681b      	ldr	r3, [r3, #0]
 80034c0:	689b      	ldr	r3, [r3, #8]
 80034c2:	f003 0320 	and.w	r3, r3, #32
 80034c6:	2b00      	cmp	r3, #0
 80034c8:	d111      	bne.n	80034ee <HAL_RTC_SetDate+0x130>
    {
      if(HAL_RTC_WaitForSynchro(hrtc) != HAL_OK)
 80034ca:	68f8      	ldr	r0, [r7, #12]
 80034cc:	f000 fa7e 	bl	80039cc <HAL_RTC_WaitForSynchro>
 80034d0:	4603      	mov	r3, r0
 80034d2:	2b00      	cmp	r3, #0
 80034d4:	d00b      	beq.n	80034ee <HAL_RTC_SetDate+0x130>
      {
        /* Enable the write protection for RTC registers */
        __HAL_RTC_WRITEPROTECTION_ENABLE(hrtc);
 80034d6:	68fb      	ldr	r3, [r7, #12]
 80034d8:	681b      	ldr	r3, [r3, #0]
 80034da:	22ff      	movs	r2, #255	; 0xff
 80034dc:	625a      	str	r2, [r3, #36]	; 0x24

        hrtc->State = HAL_RTC_STATE_ERROR;
 80034de:	68fb      	ldr	r3, [r7, #12]
 80034e0:	2204      	movs	r2, #4
 80034e2:	775a      	strb	r2, [r3, #29]

        /* Process Unlocked */
        __HAL_UNLOCK(hrtc);
 80034e4:	68fb      	ldr	r3, [r7, #12]
 80034e6:	2200      	movs	r2, #0
 80034e8:	771a      	strb	r2, [r3, #28]

        return HAL_ERROR;
 80034ea:	2301      	movs	r3, #1
 80034ec:	e00a      	b.n	8003504 <HAL_RTC_SetDate+0x146>
      }
    }

    /* Enable the write protection for RTC registers */
    __HAL_RTC_WRITEPROTECTION_ENABLE(hrtc);
 80034ee:	68fb      	ldr	r3, [r7, #12]
 80034f0:	681b      	ldr	r3, [r3, #0]
 80034f2:	22ff      	movs	r2, #255	; 0xff
 80034f4:	625a      	str	r2, [r3, #36]	; 0x24

    hrtc->State = HAL_RTC_STATE_READY ;
 80034f6:	68fb      	ldr	r3, [r7, #12]
 80034f8:	2201      	movs	r2, #1
 80034fa:	775a      	strb	r2, [r3, #29]

    /* Process Unlocked */
    __HAL_UNLOCK(hrtc);
 80034fc:	68fb      	ldr	r3, [r7, #12]
 80034fe:	2200      	movs	r2, #0
 8003500:	771a      	strb	r2, [r3, #28]

    return HAL_OK;
 8003502:	2300      	movs	r3, #0
  }
}
 8003504:	4618      	mov	r0, r3
 8003506:	371c      	adds	r7, #28
 8003508:	46bd      	mov	sp, r7
 800350a:	bd90      	pop	{r4, r7, pc}

0800350c <HAL_RTC_GetDate>:
  * in the higher-order calendar shadow registers to ensure consistency between the time and date values.
  * Reading RTC current time locks the values in calendar shadow registers until Current date is read.
  * @retval HAL status
  */
HAL_StatusTypeDef HAL_RTC_GetDate(RTC_HandleTypeDef *hrtc, RTC_DateTypeDef *sDate, uint32_t Format)
{
 800350c:	b580      	push	{r7, lr}
 800350e:	b086      	sub	sp, #24
 8003510:	af00      	add	r7, sp, #0
 8003512:	60f8      	str	r0, [r7, #12]
 8003514:	60b9      	str	r1, [r7, #8]
 8003516:	607a      	str	r2, [r7, #4]
  uint32_t datetmpreg = 0U;
 8003518:	2300      	movs	r3, #0
 800351a:	617b      	str	r3, [r7, #20]

  /* Check the parameters */
  assert_param(IS_RTC_FORMAT(Format));

  /* Get the DR register */
  datetmpreg = (uint32_t)(hrtc->Instance->DR & RTC_DR_RESERVED_MASK);
 800351c:	68fb      	ldr	r3, [r7, #12]
 800351e:	681b      	ldr	r3, [r3, #0]
 8003520:	685b      	ldr	r3, [r3, #4]
 8003522:	f023 437f 	bic.w	r3, r3, #4278190080	; 0xff000000
 8003526:	f023 03c0 	bic.w	r3, r3, #192	; 0xc0
 800352a:	617b      	str	r3, [r7, #20]

  /* Fill the structure fields with the read parameters */
  sDate->Year = (uint8_t)((datetmpreg & (RTC_DR_YT | RTC_DR_YU)) >> 16U);
 800352c:	697b      	ldr	r3, [r7, #20]
 800352e:	0c1b      	lsrs	r3, r3, #16
 8003530:	b2da      	uxtb	r2, r3
 8003532:	68bb      	ldr	r3, [r7, #8]
 8003534:	70da      	strb	r2, [r3, #3]
  sDate->Month = (uint8_t)((datetmpreg & (RTC_DR_MT | RTC_DR_MU)) >> 8U);
 8003536:	697b      	ldr	r3, [r7, #20]
 8003538:	0a1b      	lsrs	r3, r3, #8
 800353a:	b2db      	uxtb	r3, r3
 800353c:	f003 031f 	and.w	r3, r3, #31
 8003540:	b2da      	uxtb	r2, r3
 8003542:	68bb      	ldr	r3, [r7, #8]
 8003544:	705a      	strb	r2, [r3, #1]
  sDate->Date = (uint8_t)(datetmpreg & (RTC_DR_DT | RTC_DR_DU));
 8003546:	697b      	ldr	r3, [r7, #20]
 8003548:	b2db      	uxtb	r3, r3
 800354a:	f003 033f 	and.w	r3, r3, #63	; 0x3f
 800354e:	b2da      	uxtb	r2, r3
 8003550:	68bb      	ldr	r3, [r7, #8]
 8003552:	709a      	strb	r2, [r3, #2]
  sDate->WeekDay = (uint8_t)((datetmpreg & (RTC_DR_WDU)) >> 13U);
 8003554:	697b      	ldr	r3, [r7, #20]
 8003556:	0b5b      	lsrs	r3, r3, #13
 8003558:	b2db      	uxtb	r3, r3
 800355a:	f003 0307 	and.w	r3, r3, #7
 800355e:	b2da      	uxtb	r2, r3
 8003560:	68bb      	ldr	r3, [r7, #8]
 8003562:	701a      	strb	r2, [r3, #0]

  /* Check the input parameters format */
  if(Format == RTC_FORMAT_BIN)
 8003564:	687b      	ldr	r3, [r7, #4]
 8003566:	2b00      	cmp	r3, #0
 8003568:	d11a      	bne.n	80035a0 <HAL_RTC_GetDate+0x94>
  {
    /* Convert the date structure parameters to Binary format */
    sDate->Year = (uint8_t)RTC_Bcd2ToByte(sDate->Year);
 800356a:	68bb      	ldr	r3, [r7, #8]
 800356c:	78db      	ldrb	r3, [r3, #3]
 800356e:	4618      	mov	r0, r3
 8003570:	f000 fa9e 	bl	8003ab0 <RTC_Bcd2ToByte>
 8003574:	4603      	mov	r3, r0
 8003576:	461a      	mov	r2, r3
 8003578:	68bb      	ldr	r3, [r7, #8]
 800357a:	70da      	strb	r2, [r3, #3]
    sDate->Month = (uint8_t)RTC_Bcd2ToByte(sDate->Month);
 800357c:	68bb      	ldr	r3, [r7, #8]
 800357e:	785b      	ldrb	r3, [r3, #1]
 8003580:	4618      	mov	r0, r3
 8003582:	f000 fa95 	bl	8003ab0 <RTC_Bcd2ToByte>
 8003586:	4603      	mov	r3, r0
 8003588:	461a      	mov	r2, r3
 800358a:	68bb      	ldr	r3, [r7, #8]
 800358c:	705a      	strb	r2, [r3, #1]
    sDate->Date = (uint8_t)RTC_Bcd2ToByte(sDate->Date);
 800358e:	68bb      	ldr	r3, [r7, #8]
 8003590:	789b      	ldrb	r3, [r3, #2]
 8003592:	4618      	mov	r0, r3
 8003594:	f000 fa8c 	bl	8003ab0 <RTC_Bcd2ToByte>
 8003598:	4603      	mov	r3, r0
 800359a:	461a      	mov	r2, r3
 800359c:	68bb      	ldr	r3, [r7, #8]
 800359e:	709a      	strb	r2, [r3, #2]
  }
  return HAL_OK;
 80035a0:	2300      	movs	r3, #0
}
 80035a2:	4618      	mov	r0, r3
 80035a4:	3718      	adds	r7, #24
 80035a6:	46bd      	mov	sp, r7
 80035a8:	bd80      	pop	{r7, pc}
	...

080035ac <HAL_RTC_SetAlarm_IT>:
  *             @arg RTC_FORMAT_BIN: Binary data format
  *             @arg RTC_FORMAT_BCD: BCD data format
  * @retval HAL status
  */
HAL_StatusTypeDef HAL_RTC_SetAlarm_IT(RTC_HandleTypeDef *hrtc, RTC_AlarmTypeDef *sAlarm, uint32_t Format)
{
 80035ac:	b590      	push	{r4, r7, lr}
 80035ae:	b089      	sub	sp, #36	; 0x24
 80035b0:	af00      	add	r7, sp, #0
 80035b2:	60f8      	str	r0, [r7, #12]
 80035b4:	60b9      	str	r1, [r7, #8]
 80035b6:	607a      	str	r2, [r7, #4]
  uint32_t tmpreg = 0U, subsecondtmpreg = 0U;
 80035b8:	2300      	movs	r3, #0
 80035ba:	61fb      	str	r3, [r7, #28]
 80035bc:	2300      	movs	r3, #0
 80035be:	61bb      	str	r3, [r7, #24]
  __IO uint32_t count = RTC_TIMEOUT_VALUE  * (SystemCoreClock / 32U / 1000U) ;
 80035c0:	4b93      	ldr	r3, [pc, #588]	; (8003810 <HAL_RTC_SetAlarm_IT+0x264>)
 80035c2:	681b      	ldr	r3, [r3, #0]
 80035c4:	4a93      	ldr	r2, [pc, #588]	; (8003814 <HAL_RTC_SetAlarm_IT+0x268>)
 80035c6:	fba2 2303 	umull	r2, r3, r2, r3
 80035ca:	0adb      	lsrs	r3, r3, #11
 80035cc:	f44f 727a 	mov.w	r2, #1000	; 0x3e8
 80035d0:	fb02 f303 	mul.w	r3, r2, r3
 80035d4:	617b      	str	r3, [r7, #20]
  assert_param(IS_RTC_ALARM_DATE_WEEKDAY_SEL(sAlarm->AlarmDateWeekDaySel));
  assert_param(IS_RTC_ALARM_SUB_SECOND_VALUE(sAlarm->AlarmTime.SubSeconds));
  assert_param(IS_RTC_ALARM_SUB_SECOND_MASK(sAlarm->AlarmSubSecondMask));

  /* Process Locked */
  __HAL_LOCK(hrtc);
 80035d6:	68fb      	ldr	r3, [r7, #12]
 80035d8:	7f1b      	ldrb	r3, [r3, #28]
 80035da:	2b01      	cmp	r3, #1
 80035dc:	d101      	bne.n	80035e2 <HAL_RTC_SetAlarm_IT+0x36>
 80035de:	2302      	movs	r3, #2
 80035e0:	e111      	b.n	8003806 <HAL_RTC_SetAlarm_IT+0x25a>
 80035e2:	68fb      	ldr	r3, [r7, #12]
 80035e4:	2201      	movs	r2, #1
 80035e6:	771a      	strb	r2, [r3, #28]

  hrtc->State = HAL_RTC_STATE_BUSY;
 80035e8:	68fb      	ldr	r3, [r7, #12]
 80035ea:	2202      	movs	r2, #2
 80035ec:	775a      	strb	r2, [r3, #29]

  if(Format == RTC_FORMAT_BIN)
 80035ee:	687b      	ldr	r3, [r7, #4]
 80035f0:	2b00      	cmp	r3, #0
 80035f2:	d137      	bne.n	8003664 <HAL_RTC_SetAlarm_IT+0xb8>
  {
    if((hrtc->Instance->CR & RTC_CR_FMT) != (uint32_t)RESET)
 80035f4:	68fb      	ldr	r3, [r7, #12]
 80035f6:	681b      	ldr	r3, [r3, #0]
 80035f8:	689b      	ldr	r3, [r3, #8]
 80035fa:	f003 0340 	and.w	r3, r3, #64	; 0x40
 80035fe:	2b00      	cmp	r3, #0
 8003600:	d102      	bne.n	8003608 <HAL_RTC_SetAlarm_IT+0x5c>
      assert_param(IS_RTC_HOUR12(sAlarm->AlarmTime.Hours));
      assert_param(IS_RTC_HOURFORMAT12(sAlarm->AlarmTime.TimeFormat));
    }
    else
    {
      sAlarm->AlarmTime.TimeFormat = 0x00U;
 8003602:	68bb      	ldr	r3, [r7, #8]
 8003604:	2200      	movs	r2, #0
 8003606:	70da      	strb	r2, [r3, #3]
    }
    else
    {
      assert_param(IS_RTC_ALARM_DATE_WEEKDAY_WEEKDAY(sAlarm->AlarmDateWeekDay));
    }
    tmpreg = (((uint32_t)RTC_ByteToBcd2(sAlarm->AlarmTime.Hours) << 16U) | \
 8003608:	68bb      	ldr	r3, [r7, #8]
 800360a:	781b      	ldrb	r3, [r3, #0]
 800360c:	4618      	mov	r0, r3
 800360e:	f000 fa31 	bl	8003a74 <RTC_ByteToBcd2>
 8003612:	4603      	mov	r3, r0
 8003614:	041c      	lsls	r4, r3, #16
              ((uint32_t)RTC_ByteToBcd2(sAlarm->AlarmTime.Minutes) << 8U) | \
 8003616:	68bb      	ldr	r3, [r7, #8]
 8003618:	785b      	ldrb	r3, [r3, #1]
 800361a:	4618      	mov	r0, r3
 800361c:	f000 fa2a 	bl	8003a74 <RTC_ByteToBcd2>
 8003620:	4603      	mov	r3, r0
 8003622:	021b      	lsls	r3, r3, #8
    tmpreg = (((uint32_t)RTC_ByteToBcd2(sAlarm->AlarmTime.Hours) << 16U) | \
 8003624:	431c      	orrs	r4, r3
              ((uint32_t)RTC_ByteToBcd2(sAlarm->AlarmTime.Seconds)) | \
 8003626:	68bb      	ldr	r3, [r7, #8]
 8003628:	789b      	ldrb	r3, [r3, #2]
 800362a:	4618      	mov	r0, r3
 800362c:	f000 fa22 	bl	8003a74 <RTC_ByteToBcd2>
 8003630:	4603      	mov	r3, r0
              ((uint32_t)RTC_ByteToBcd2(sAlarm->AlarmTime.Minutes) << 8U) | \
 8003632:	ea44 0203 	orr.w	r2, r4, r3
              ((uint32_t)(sAlarm->AlarmTime.TimeFormat) << 16U) | \
 8003636:	68bb      	ldr	r3, [r7, #8]
 8003638:	78db      	ldrb	r3, [r3, #3]
 800363a:	041b      	lsls	r3, r3, #16
              ((uint32_t)RTC_ByteToBcd2(sAlarm->AlarmTime.Seconds)) | \
 800363c:	ea42 0403 	orr.w	r4, r2, r3
              ((uint32_t)RTC_ByteToBcd2(sAlarm->AlarmDateWeekDay) << 24U) | \
 8003640:	68bb      	ldr	r3, [r7, #8]
 8003642:	f893 3020 	ldrb.w	r3, [r3, #32]
 8003646:	4618      	mov	r0, r3
 8003648:	f000 fa14 	bl	8003a74 <RTC_ByteToBcd2>
 800364c:	4603      	mov	r3, r0
 800364e:	061b      	lsls	r3, r3, #24
              ((uint32_t)(sAlarm->AlarmTime.TimeFormat) << 16U) | \
 8003650:	ea44 0203 	orr.w	r2, r4, r3
              ((uint32_t)sAlarm->AlarmDateWeekDaySel) | \
 8003654:	68bb      	ldr	r3, [r7, #8]
 8003656:	69db      	ldr	r3, [r3, #28]
              ((uint32_t)RTC_ByteToBcd2(sAlarm->AlarmDateWeekDay) << 24U) | \
 8003658:	431a      	orrs	r2, r3
              ((uint32_t)sAlarm->AlarmMask));
 800365a:	68bb      	ldr	r3, [r7, #8]
 800365c:	695b      	ldr	r3, [r3, #20]
    tmpreg = (((uint32_t)RTC_ByteToBcd2(sAlarm->AlarmTime.Hours) << 16U) | \
 800365e:	4313      	orrs	r3, r2
 8003660:	61fb      	str	r3, [r7, #28]
 8003662:	e023      	b.n	80036ac <HAL_RTC_SetAlarm_IT+0x100>
  }
  else
  {
    if((hrtc->Instance->CR & RTC_CR_FMT) != (uint32_t)RESET)
 8003664:	68fb      	ldr	r3, [r7, #12]
 8003666:	681b      	ldr	r3, [r3, #0]
 8003668:	689b      	ldr	r3, [r3, #8]
 800366a:	f003 0340 	and.w	r3, r3, #64	; 0x40
 800366e:	2b00      	cmp	r3, #0
 8003670:	d102      	bne.n	8003678 <HAL_RTC_SetAlarm_IT+0xcc>
      assert_param(IS_RTC_HOUR12(RTC_Bcd2ToByte(sAlarm->AlarmTime.Hours)));
      assert_param(IS_RTC_HOURFORMAT12(sAlarm->AlarmTime.TimeFormat));
    }
    else
    {
      sAlarm->AlarmTime.TimeFormat = 0x00U;
 8003672:	68bb      	ldr	r3, [r7, #8]
 8003674:	2200      	movs	r2, #0
 8003676:	70da      	strb	r2, [r3, #3]
    }
    else
    {
      assert_param(IS_RTC_ALARM_DATE_WEEKDAY_WEEKDAY(RTC_Bcd2ToByte(sAlarm->AlarmDateWeekDay)));
    }
    tmpreg = (((uint32_t)(sAlarm->AlarmTime.Hours) << 16U) | \
 8003678:	68bb      	ldr	r3, [r7, #8]
 800367a:	781b      	ldrb	r3, [r3, #0]
 800367c:	041a      	lsls	r2, r3, #16
              ((uint32_t)(sAlarm->AlarmTime.Minutes) << 8U) | \
 800367e:	68bb      	ldr	r3, [r7, #8]
 8003680:	785b      	ldrb	r3, [r3, #1]
 8003682:	021b      	lsls	r3, r3, #8
    tmpreg = (((uint32_t)(sAlarm->AlarmTime.Hours) << 16U) | \
 8003684:	4313      	orrs	r3, r2
              ((uint32_t) sAlarm->AlarmTime.Seconds) | \
 8003686:	68ba      	ldr	r2, [r7, #8]
 8003688:	7892      	ldrb	r2, [r2, #2]
              ((uint32_t)(sAlarm->AlarmTime.Minutes) << 8U) | \
 800368a:	431a      	orrs	r2, r3
              ((uint32_t)(sAlarm->AlarmTime.TimeFormat) << 16U) | \
 800368c:	68bb      	ldr	r3, [r7, #8]
 800368e:	78db      	ldrb	r3, [r3, #3]
 8003690:	041b      	lsls	r3, r3, #16
              ((uint32_t) sAlarm->AlarmTime.Seconds) | \
 8003692:	431a      	orrs	r2, r3
              ((uint32_t)(sAlarm->AlarmDateWeekDay) << 24U) | \
 8003694:	68bb      	ldr	r3, [r7, #8]
 8003696:	f893 3020 	ldrb.w	r3, [r3, #32]
 800369a:	061b      	lsls	r3, r3, #24
              ((uint32_t)(sAlarm->AlarmTime.TimeFormat) << 16U) | \
 800369c:	431a      	orrs	r2, r3
              ((uint32_t)sAlarm->AlarmDateWeekDaySel) | \
 800369e:	68bb      	ldr	r3, [r7, #8]
 80036a0:	69db      	ldr	r3, [r3, #28]
              ((uint32_t)(sAlarm->AlarmDateWeekDay) << 24U) | \
 80036a2:	431a      	orrs	r2, r3
              ((uint32_t)sAlarm->AlarmMask));
 80036a4:	68bb      	ldr	r3, [r7, #8]
 80036a6:	695b      	ldr	r3, [r3, #20]
    tmpreg = (((uint32_t)(sAlarm->AlarmTime.Hours) << 16U) | \
 80036a8:	4313      	orrs	r3, r2
 80036aa:	61fb      	str	r3, [r7, #28]
  }
  /* Configure the Alarm A or Alarm B Sub Second registers */
  subsecondtmpreg = (uint32_t)((uint32_t)(sAlarm->AlarmTime.SubSeconds) | (uint32_t)(sAlarm->AlarmSubSecondMask));
 80036ac:	68bb      	ldr	r3, [r7, #8]
 80036ae:	685a      	ldr	r2, [r3, #4]
 80036b0:	68bb      	ldr	r3, [r7, #8]
 80036b2:	699b      	ldr	r3, [r3, #24]
 80036b4:	4313      	orrs	r3, r2
 80036b6:	61bb      	str	r3, [r7, #24]

  /* Disable the write protection for RTC registers */
  __HAL_RTC_WRITEPROTECTION_DISABLE(hrtc);
 80036b8:	68fb      	ldr	r3, [r7, #12]
 80036ba:	681b      	ldr	r3, [r3, #0]
 80036bc:	22ca      	movs	r2, #202	; 0xca
 80036be:	625a      	str	r2, [r3, #36]	; 0x24
 80036c0:	68fb      	ldr	r3, [r7, #12]
 80036c2:	681b      	ldr	r3, [r3, #0]
 80036c4:	2253      	movs	r2, #83	; 0x53
 80036c6:	625a      	str	r2, [r3, #36]	; 0x24

  /* Configure the Alarm register */
  if(sAlarm->Alarm == RTC_ALARM_A)
 80036c8:	68bb      	ldr	r3, [r7, #8]
 80036ca:	6a5b      	ldr	r3, [r3, #36]	; 0x24
 80036cc:	f5b3 7f80 	cmp.w	r3, #256	; 0x100
 80036d0:	d141      	bne.n	8003756 <HAL_RTC_SetAlarm_IT+0x1aa>
  {
    /* Disable the Alarm A interrupt */
    __HAL_RTC_ALARMA_DISABLE(hrtc);
 80036d2:	68fb      	ldr	r3, [r7, #12]
 80036d4:	681b      	ldr	r3, [r3, #0]
 80036d6:	689a      	ldr	r2, [r3, #8]
 80036d8:	68fb      	ldr	r3, [r7, #12]
 80036da:	681b      	ldr	r3, [r3, #0]
 80036dc:	f422 7280 	bic.w	r2, r2, #256	; 0x100
 80036e0:	609a      	str	r2, [r3, #8]

    /* Clear flag alarm A */
    __HAL_RTC_ALARM_CLEAR_FLAG(hrtc, RTC_FLAG_ALRAF);
 80036e2:	68fb      	ldr	r3, [r7, #12]
 80036e4:	681b      	ldr	r3, [r3, #0]
 80036e6:	68db      	ldr	r3, [r3, #12]
 80036e8:	b2da      	uxtb	r2, r3
 80036ea:	68fb      	ldr	r3, [r7, #12]
 80036ec:	681b      	ldr	r3, [r3, #0]
 80036ee:	f462 72c0 	orn	r2, r2, #384	; 0x180
 80036f2:	60da      	str	r2, [r3, #12]

    /* Wait till RTC ALRAWF flag is set and if Time out is reached exit */
    do
    {
      if (count-- == 0U)
 80036f4:	697b      	ldr	r3, [r7, #20]
 80036f6:	1e5a      	subs	r2, r3, #1
 80036f8:	617a      	str	r2, [r7, #20]
 80036fa:	2b00      	cmp	r3, #0
 80036fc:	d10b      	bne.n	8003716 <HAL_RTC_SetAlarm_IT+0x16a>
      {
        /* Enable the write protection for RTC registers */
        __HAL_RTC_WRITEPROTECTION_ENABLE(hrtc);
 80036fe:	68fb      	ldr	r3, [r7, #12]
 8003700:	681b      	ldr	r3, [r3, #0]
 8003702:	22ff      	movs	r2, #255	; 0xff
 8003704:	625a      	str	r2, [r3, #36]	; 0x24

        hrtc->State = HAL_RTC_STATE_TIMEOUT;
 8003706:	68fb      	ldr	r3, [r7, #12]
 8003708:	2203      	movs	r2, #3
 800370a:	775a      	strb	r2, [r3, #29]

        /* Process Unlocked */
        __HAL_UNLOCK(hrtc);
 800370c:	68fb      	ldr	r3, [r7, #12]
 800370e:	2200      	movs	r2, #0
 8003710:	771a      	strb	r2, [r3, #28]

        return HAL_TIMEOUT;
 8003712:	2303      	movs	r3, #3
 8003714:	e077      	b.n	8003806 <HAL_RTC_SetAlarm_IT+0x25a>
      }
    }
    while (__HAL_RTC_ALARM_GET_FLAG(hrtc, RTC_FLAG_ALRAWF) == RESET);
 8003716:	68fb      	ldr	r3, [r7, #12]
 8003718:	681b      	ldr	r3, [r3, #0]
 800371a:	68db      	ldr	r3, [r3, #12]
 800371c:	f003 0301 	and.w	r3, r3, #1
 8003720:	2b00      	cmp	r3, #0
 8003722:	d0e7      	beq.n	80036f4 <HAL_RTC_SetAlarm_IT+0x148>

    hrtc->Instance->ALRMAR = (uint32_t)tmpreg;
 8003724:	68fb      	ldr	r3, [r7, #12]
 8003726:	681b      	ldr	r3, [r3, #0]
 8003728:	69fa      	ldr	r2, [r7, #28]
 800372a:	61da      	str	r2, [r3, #28]
    /* Configure the Alarm A Sub Second register */
    hrtc->Instance->ALRMASSR = subsecondtmpreg;
 800372c:	68fb      	ldr	r3, [r7, #12]
 800372e:	681b      	ldr	r3, [r3, #0]
 8003730:	69ba      	ldr	r2, [r7, #24]
 8003732:	645a      	str	r2, [r3, #68]	; 0x44
    /* Configure the Alarm state: Enable Alarm */
    __HAL_RTC_ALARMA_ENABLE(hrtc);
 8003734:	68fb      	ldr	r3, [r7, #12]
 8003736:	681b      	ldr	r3, [r3, #0]
 8003738:	689a      	ldr	r2, [r3, #8]
 800373a:	68fb      	ldr	r3, [r7, #12]
 800373c:	681b      	ldr	r3, [r3, #0]
 800373e:	f442 7280 	orr.w	r2, r2, #256	; 0x100
 8003742:	609a      	str	r2, [r3, #8]
    /* Configure the Alarm interrupt */
    __HAL_RTC_ALARM_ENABLE_IT(hrtc,RTC_IT_ALRA);
 8003744:	68fb      	ldr	r3, [r7, #12]
 8003746:	681b      	ldr	r3, [r3, #0]
 8003748:	689a      	ldr	r2, [r3, #8]
 800374a:	68fb      	ldr	r3, [r7, #12]
 800374c:	681b      	ldr	r3, [r3, #0]
 800374e:	f442 5280 	orr.w	r2, r2, #4096	; 0x1000
 8003752:	609a      	str	r2, [r3, #8]
 8003754:	e040      	b.n	80037d8 <HAL_RTC_SetAlarm_IT+0x22c>
  }
  else
  {
    /* Disable the Alarm B interrupt */
    __HAL_RTC_ALARMB_DISABLE(hrtc);
 8003756:	68fb      	ldr	r3, [r7, #12]
 8003758:	681b      	ldr	r3, [r3, #0]
 800375a:	689a      	ldr	r2, [r3, #8]
 800375c:	68fb      	ldr	r3, [r7, #12]
 800375e:	681b      	ldr	r3, [r3, #0]
 8003760:	f422 7200 	bic.w	r2, r2, #512	; 0x200
 8003764:	609a      	str	r2, [r3, #8]

    /* Clear flag alarm B */
    __HAL_RTC_ALARM_CLEAR_FLAG(hrtc, RTC_FLAG_ALRBF);
 8003766:	68fb      	ldr	r3, [r7, #12]
 8003768:	681b      	ldr	r3, [r3, #0]
 800376a:	68db      	ldr	r3, [r3, #12]
 800376c:	b2da      	uxtb	r2, r3
 800376e:	68fb      	ldr	r3, [r7, #12]
 8003770:	681b      	ldr	r3, [r3, #0]
 8003772:	f462 7220 	orn	r2, r2, #640	; 0x280
 8003776:	60da      	str	r2, [r3, #12]

    /* Wait till RTC ALRBWF flag is set and if Time out is reached exit */
    do
    {
      if (count-- == 0U)
 8003778:	697b      	ldr	r3, [r7, #20]
 800377a:	1e5a      	subs	r2, r3, #1
 800377c:	617a      	str	r2, [r7, #20]
 800377e:	2b00      	cmp	r3, #0
 8003780:	d10b      	bne.n	800379a <HAL_RTC_SetAlarm_IT+0x1ee>
      {
        /* Enable the write protection for RTC registers */
        __HAL_RTC_WRITEPROTECTION_ENABLE(hrtc);
 8003782:	68fb      	ldr	r3, [r7, #12]
 8003784:	681b      	ldr	r3, [r3, #0]
 8003786:	22ff      	movs	r2, #255	; 0xff
 8003788:	625a      	str	r2, [r3, #36]	; 0x24

        hrtc->State = HAL_RTC_STATE_TIMEOUT;
 800378a:	68fb      	ldr	r3, [r7, #12]
 800378c:	2203      	movs	r2, #3
 800378e:	775a      	strb	r2, [r3, #29]

        /* Process Unlocked */
        __HAL_UNLOCK(hrtc);
 8003790:	68fb      	ldr	r3, [r7, #12]
 8003792:	2200      	movs	r2, #0
 8003794:	771a      	strb	r2, [r3, #28]

        return HAL_TIMEOUT;
 8003796:	2303      	movs	r3, #3
 8003798:	e035      	b.n	8003806 <HAL_RTC_SetAlarm_IT+0x25a>
      }
    }
    while (__HAL_RTC_ALARM_GET_FLAG(hrtc, RTC_FLAG_ALRBWF) == RESET);
 800379a:	68fb      	ldr	r3, [r7, #12]
 800379c:	681b      	ldr	r3, [r3, #0]
 800379e:	68db      	ldr	r3, [r3, #12]
 80037a0:	f003 0302 	and.w	r3, r3, #2
 80037a4:	2b00      	cmp	r3, #0
 80037a6:	d0e7      	beq.n	8003778 <HAL_RTC_SetAlarm_IT+0x1cc>

    hrtc->Instance->ALRMBR = (uint32_t)tmpreg;
 80037a8:	68fb      	ldr	r3, [r7, #12]
 80037aa:	681b      	ldr	r3, [r3, #0]
 80037ac:	69fa      	ldr	r2, [r7, #28]
 80037ae:	621a      	str	r2, [r3, #32]
    /* Configure the Alarm B Sub Second register */
    hrtc->Instance->ALRMBSSR = subsecondtmpreg;
 80037b0:	68fb      	ldr	r3, [r7, #12]
 80037b2:	681b      	ldr	r3, [r3, #0]
 80037b4:	69ba      	ldr	r2, [r7, #24]
 80037b6:	649a      	str	r2, [r3, #72]	; 0x48
    /* Configure the Alarm state: Enable Alarm */
    __HAL_RTC_ALARMB_ENABLE(hrtc);
 80037b8:	68fb      	ldr	r3, [r7, #12]
 80037ba:	681b      	ldr	r3, [r3, #0]
 80037bc:	689a      	ldr	r2, [r3, #8]
 80037be:	68fb      	ldr	r3, [r7, #12]
 80037c0:	681b      	ldr	r3, [r3, #0]
 80037c2:	f442 7200 	orr.w	r2, r2, #512	; 0x200
 80037c6:	609a      	str	r2, [r3, #8]
    /* Configure the Alarm interrupt */
    __HAL_RTC_ALARM_ENABLE_IT(hrtc, RTC_IT_ALRB);
 80037c8:	68fb      	ldr	r3, [r7, #12]
 80037ca:	681b      	ldr	r3, [r3, #0]
 80037cc:	689a      	ldr	r2, [r3, #8]
 80037ce:	68fb      	ldr	r3, [r7, #12]
 80037d0:	681b      	ldr	r3, [r3, #0]
 80037d2:	f442 5200 	orr.w	r2, r2, #8192	; 0x2000
 80037d6:	609a      	str	r2, [r3, #8]
  }

  /* RTC Alarm Interrupt Configuration: EXTI configuration */
  __HAL_RTC_ALARM_EXTI_ENABLE_IT();
 80037d8:	4b0f      	ldr	r3, [pc, #60]	; (8003818 <HAL_RTC_SetAlarm_IT+0x26c>)
 80037da:	681b      	ldr	r3, [r3, #0]
 80037dc:	4a0e      	ldr	r2, [pc, #56]	; (8003818 <HAL_RTC_SetAlarm_IT+0x26c>)
 80037de:	f443 3300 	orr.w	r3, r3, #131072	; 0x20000
 80037e2:	6013      	str	r3, [r2, #0]

  EXTI->RTSR |= RTC_EXTI_LINE_ALARM_EVENT;
 80037e4:	4b0c      	ldr	r3, [pc, #48]	; (8003818 <HAL_RTC_SetAlarm_IT+0x26c>)
 80037e6:	689b      	ldr	r3, [r3, #8]
 80037e8:	4a0b      	ldr	r2, [pc, #44]	; (8003818 <HAL_RTC_SetAlarm_IT+0x26c>)
 80037ea:	f443 3300 	orr.w	r3, r3, #131072	; 0x20000
 80037ee:	6093      	str	r3, [r2, #8]

  /* Enable the write protection for RTC registers */
  __HAL_RTC_WRITEPROTECTION_ENABLE(hrtc);
 80037f0:	68fb      	ldr	r3, [r7, #12]
 80037f2:	681b      	ldr	r3, [r3, #0]
 80037f4:	22ff      	movs	r2, #255	; 0xff
 80037f6:	625a      	str	r2, [r3, #36]	; 0x24

  hrtc->State = HAL_RTC_STATE_READY;
 80037f8:	68fb      	ldr	r3, [r7, #12]
 80037fa:	2201      	movs	r2, #1
 80037fc:	775a      	strb	r2, [r3, #29]

  /* Process Unlocked */
  __HAL_UNLOCK(hrtc);
 80037fe:	68fb      	ldr	r3, [r7, #12]
 8003800:	2200      	movs	r2, #0
 8003802:	771a      	strb	r2, [r3, #28]

  return HAL_OK;
 8003804:	2300      	movs	r3, #0
}
 8003806:	4618      	mov	r0, r3
 8003808:	3724      	adds	r7, #36	; 0x24
 800380a:	46bd      	mov	sp, r7
 800380c:	bd90      	pop	{r4, r7, pc}
 800380e:	bf00      	nop
 8003810:	20000064 	.word	0x20000064
 8003814:	10624dd3 	.word	0x10624dd3
 8003818:	40013c00 	.word	0x40013c00

0800381c <HAL_RTC_GetAlarm>:
  *             @arg RTC_FORMAT_BIN: Binary data format
  *             @arg RTC_FORMAT_BCD: BCD data format
  * @retval HAL status
  */
HAL_StatusTypeDef HAL_RTC_GetAlarm(RTC_HandleTypeDef *hrtc, RTC_AlarmTypeDef *sAlarm, uint32_t Alarm, uint32_t Format)
{
 800381c:	b580      	push	{r7, lr}
 800381e:	b086      	sub	sp, #24
 8003820:	af00      	add	r7, sp, #0
 8003822:	60f8      	str	r0, [r7, #12]
 8003824:	60b9      	str	r1, [r7, #8]
 8003826:	607a      	str	r2, [r7, #4]
 8003828:	603b      	str	r3, [r7, #0]
  uint32_t tmpreg = 0U, subsecondtmpreg = 0U;
 800382a:	2300      	movs	r3, #0
 800382c:	617b      	str	r3, [r7, #20]
 800382e:	2300      	movs	r3, #0
 8003830:	613b      	str	r3, [r7, #16]

  /* Check the parameters */
  assert_param(IS_RTC_FORMAT(Format));
  assert_param(IS_RTC_ALARM(Alarm));

  if(Alarm == RTC_ALARM_A)
 8003832:	687b      	ldr	r3, [r7, #4]
 8003834:	f5b3 7f80 	cmp.w	r3, #256	; 0x100
 8003838:	d10e      	bne.n	8003858 <HAL_RTC_GetAlarm+0x3c>
  {
    /* AlarmA */
    sAlarm->Alarm = RTC_ALARM_A;
 800383a:	68bb      	ldr	r3, [r7, #8]
 800383c:	f44f 7280 	mov.w	r2, #256	; 0x100
 8003840:	625a      	str	r2, [r3, #36]	; 0x24

    tmpreg = (uint32_t)(hrtc->Instance->ALRMAR);
 8003842:	68fb      	ldr	r3, [r7, #12]
 8003844:	681b      	ldr	r3, [r3, #0]
 8003846:	69db      	ldr	r3, [r3, #28]
 8003848:	617b      	str	r3, [r7, #20]
    subsecondtmpreg = (uint32_t)((hrtc->Instance->ALRMASSR ) & RTC_ALRMASSR_SS);
 800384a:	68fb      	ldr	r3, [r7, #12]
 800384c:	681b      	ldr	r3, [r3, #0]
 800384e:	6c5b      	ldr	r3, [r3, #68]	; 0x44
 8003850:	f3c3 030e 	ubfx	r3, r3, #0, #15
 8003854:	613b      	str	r3, [r7, #16]
 8003856:	e00d      	b.n	8003874 <HAL_RTC_GetAlarm+0x58>
  }
  else
  {
    sAlarm->Alarm = RTC_ALARM_B;
 8003858:	68bb      	ldr	r3, [r7, #8]
 800385a:	f44f 7200 	mov.w	r2, #512	; 0x200
 800385e:	625a      	str	r2, [r3, #36]	; 0x24

    tmpreg = (uint32_t)(hrtc->Instance->ALRMBR);
 8003860:	68fb      	ldr	r3, [r7, #12]
 8003862:	681b      	ldr	r3, [r3, #0]
 8003864:	6a1b      	ldr	r3, [r3, #32]
 8003866:	617b      	str	r3, [r7, #20]
    subsecondtmpreg = (uint32_t)((hrtc->Instance->ALRMBSSR) & RTC_ALRMBSSR_SS);
 8003868:	68fb      	ldr	r3, [r7, #12]
 800386a:	681b      	ldr	r3, [r3, #0]
 800386c:	6c9b      	ldr	r3, [r3, #72]	; 0x48
 800386e:	f3c3 030e 	ubfx	r3, r3, #0, #15
 8003872:	613b      	str	r3, [r7, #16]
  }

  /* Fill the structure with the read parameters */
  sAlarm->AlarmTime.Hours = (uint32_t)((tmpreg & (RTC_ALRMAR_HT | RTC_ALRMAR_HU)) >> 16U);
 8003874:	697b      	ldr	r3, [r7, #20]
 8003876:	0c1b      	lsrs	r3, r3, #16
 8003878:	b2db      	uxtb	r3, r3
 800387a:	f003 033f 	and.w	r3, r3, #63	; 0x3f
 800387e:	b2da      	uxtb	r2, r3
 8003880:	68bb      	ldr	r3, [r7, #8]
 8003882:	701a      	strb	r2, [r3, #0]
  sAlarm->AlarmTime.Minutes = (uint32_t)((tmpreg & (RTC_ALRMAR_MNT | RTC_ALRMAR_MNU)) >> 8U);
 8003884:	697b      	ldr	r3, [r7, #20]
 8003886:	0a1b      	lsrs	r3, r3, #8
 8003888:	b2db      	uxtb	r3, r3
 800388a:	f003 037f 	and.w	r3, r3, #127	; 0x7f
 800388e:	b2da      	uxtb	r2, r3
 8003890:	68bb      	ldr	r3, [r7, #8]
 8003892:	705a      	strb	r2, [r3, #1]
  sAlarm->AlarmTime.Seconds = (uint32_t)(tmpreg & (RTC_ALRMAR_ST | RTC_ALRMAR_SU));
 8003894:	697b      	ldr	r3, [r7, #20]
 8003896:	b2db      	uxtb	r3, r3
 8003898:	f003 037f 	and.w	r3, r3, #127	; 0x7f
 800389c:	b2da      	uxtb	r2, r3
 800389e:	68bb      	ldr	r3, [r7, #8]
 80038a0:	709a      	strb	r2, [r3, #2]
  sAlarm->AlarmTime.TimeFormat = (uint32_t)((tmpreg & RTC_ALRMAR_PM) >> 16U);
 80038a2:	697b      	ldr	r3, [r7, #20]
 80038a4:	0c1b      	lsrs	r3, r3, #16
 80038a6:	b2db      	uxtb	r3, r3
 80038a8:	f003 0340 	and.w	r3, r3, #64	; 0x40
 80038ac:	b2da      	uxtb	r2, r3
 80038ae:	68bb      	ldr	r3, [r7, #8]
 80038b0:	70da      	strb	r2, [r3, #3]
  sAlarm->AlarmTime.SubSeconds = (uint32_t) subsecondtmpreg;
 80038b2:	68bb      	ldr	r3, [r7, #8]
 80038b4:	693a      	ldr	r2, [r7, #16]
 80038b6:	605a      	str	r2, [r3, #4]
  sAlarm->AlarmDateWeekDay = (uint32_t)((tmpreg & (RTC_ALRMAR_DT | RTC_ALRMAR_DU)) >> 24U);
 80038b8:	697b      	ldr	r3, [r7, #20]
 80038ba:	0e1b      	lsrs	r3, r3, #24
 80038bc:	b2db      	uxtb	r3, r3
 80038be:	f003 033f 	and.w	r3, r3, #63	; 0x3f
 80038c2:	b2da      	uxtb	r2, r3
 80038c4:	68bb      	ldr	r3, [r7, #8]
 80038c6:	f883 2020 	strb.w	r2, [r3, #32]
  sAlarm->AlarmDateWeekDaySel = (uint32_t)(tmpreg & RTC_ALRMAR_WDSEL);
 80038ca:	697b      	ldr	r3, [r7, #20]
 80038cc:	f003 4280 	and.w	r2, r3, #1073741824	; 0x40000000
 80038d0:	68bb      	ldr	r3, [r7, #8]
 80038d2:	61da      	str	r2, [r3, #28]
  sAlarm->AlarmMask = (uint32_t)(tmpreg & RTC_ALARMMASK_ALL);
 80038d4:	697b      	ldr	r3, [r7, #20]
 80038d6:	f003 3280 	and.w	r2, r3, #2155905152	; 0x80808080
 80038da:	68bb      	ldr	r3, [r7, #8]
 80038dc:	615a      	str	r2, [r3, #20]

  if(Format == RTC_FORMAT_BIN)
 80038de:	683b      	ldr	r3, [r7, #0]
 80038e0:	2b00      	cmp	r3, #0
 80038e2:	d125      	bne.n	8003930 <HAL_RTC_GetAlarm+0x114>
  {
    sAlarm->AlarmTime.Hours = RTC_Bcd2ToByte(sAlarm->AlarmTime.Hours);
 80038e4:	68bb      	ldr	r3, [r7, #8]
 80038e6:	781b      	ldrb	r3, [r3, #0]
 80038e8:	4618      	mov	r0, r3
 80038ea:	f000 f8e1 	bl	8003ab0 <RTC_Bcd2ToByte>
 80038ee:	4603      	mov	r3, r0
 80038f0:	461a      	mov	r2, r3
 80038f2:	68bb      	ldr	r3, [r7, #8]
 80038f4:	701a      	strb	r2, [r3, #0]
    sAlarm->AlarmTime.Minutes = RTC_Bcd2ToByte(sAlarm->AlarmTime.Minutes);
 80038f6:	68bb      	ldr	r3, [r7, #8]
 80038f8:	785b      	ldrb	r3, [r3, #1]
 80038fa:	4618      	mov	r0, r3
 80038fc:	f000 f8d8 	bl	8003ab0 <RTC_Bcd2ToByte>
 8003900:	4603      	mov	r3, r0
 8003902:	461a      	mov	r2, r3
 8003904:	68bb      	ldr	r3, [r7, #8]
 8003906:	705a      	strb	r2, [r3, #1]
    sAlarm->AlarmTime.Seconds = RTC_Bcd2ToByte(sAlarm->AlarmTime.Seconds);
 8003908:	68bb      	ldr	r3, [r7, #8]
 800390a:	789b      	ldrb	r3, [r3, #2]
 800390c:	4618      	mov	r0, r3
 800390e:	f000 f8cf 	bl	8003ab0 <RTC_Bcd2ToByte>
 8003912:	4603      	mov	r3, r0
 8003914:	461a      	mov	r2, r3
 8003916:	68bb      	ldr	r3, [r7, #8]
 8003918:	709a      	strb	r2, [r3, #2]
    sAlarm->AlarmDateWeekDay = RTC_Bcd2ToByte(sAlarm->AlarmDateWeekDay);
 800391a:	68bb      	ldr	r3, [r7, #8]
 800391c:	f893 3020 	ldrb.w	r3, [r3, #32]
 8003920:	4618      	mov	r0, r3
 8003922:	f000 f8c5 	bl	8003ab0 <RTC_Bcd2ToByte>
 8003926:	4603      	mov	r3, r0
 8003928:	461a      	mov	r2, r3
 800392a:	68bb      	ldr	r3, [r7, #8]
 800392c:	f883 2020 	strb.w	r2, [r3, #32]
  }

  return HAL_OK;
 8003930:	2300      	movs	r3, #0
}
 8003932:	4618      	mov	r0, r3
 8003934:	3718      	adds	r7, #24
 8003936:	46bd      	mov	sp, r7
 8003938:	bd80      	pop	{r7, pc}
	...

0800393c <HAL_RTC_AlarmIRQHandler>:
  * @param  hrtc pointer to a RTC_HandleTypeDef structure that contains
  *                the configuration information for RTC.
  * @retval None
  */
void HAL_RTC_AlarmIRQHandler(RTC_HandleTypeDef* hrtc)
{
 800393c:	b580      	push	{r7, lr}
 800393e:	b082      	sub	sp, #8
 8003940:	af00      	add	r7, sp, #0
 8003942:	6078      	str	r0, [r7, #4]
  /* Get the AlarmA interrupt source enable status */
  if(__HAL_RTC_ALARM_GET_IT_SOURCE(hrtc, RTC_IT_ALRA) != (uint32_t)RESET)
 8003944:	687b      	ldr	r3, [r7, #4]
 8003946:	681b      	ldr	r3, [r3, #0]
 8003948:	689b      	ldr	r3, [r3, #8]
 800394a:	f403 5380 	and.w	r3, r3, #4096	; 0x1000
 800394e:	2b00      	cmp	r3, #0
 8003950:	d013      	beq.n	800397a <HAL_RTC_AlarmIRQHandler+0x3e>
  {
    /* Get the pending status of the AlarmA Interrupt */
    if(__HAL_RTC_ALARM_GET_FLAG(hrtc, RTC_FLAG_ALRAF) != (uint32_t)RESET)
 8003952:	687b      	ldr	r3, [r7, #4]
 8003954:	681b      	ldr	r3, [r3, #0]
 8003956:	68db      	ldr	r3, [r3, #12]
 8003958:	f403 7380 	and.w	r3, r3, #256	; 0x100
 800395c:	2b00      	cmp	r3, #0
 800395e:	d00c      	beq.n	800397a <HAL_RTC_AlarmIRQHandler+0x3e>
    {
      /* AlarmA callback */
    #if (USE_HAL_RTC_REGISTER_CALLBACKS == 1)
      hrtc->AlarmAEventCallback(hrtc);
 8003960:	687b      	ldr	r3, [r7, #4]
 8003962:	6a1b      	ldr	r3, [r3, #32]
 8003964:	6878      	ldr	r0, [r7, #4]
 8003966:	4798      	blx	r3
    #else
      HAL_RTC_AlarmAEventCallback(hrtc);
    #endif /* USE_HAL_RTC_REGISTER_CALLBACKS */

      /* Clear the AlarmA interrupt pending bit */
      __HAL_RTC_ALARM_CLEAR_FLAG(hrtc,RTC_FLAG_ALRAF);
 8003968:	687b      	ldr	r3, [r7, #4]
 800396a:	681b      	ldr	r3, [r3, #0]
 800396c:	68db      	ldr	r3, [r3, #12]
 800396e:	b2da      	uxtb	r2, r3
 8003970:	687b      	ldr	r3, [r7, #4]
 8003972:	681b      	ldr	r3, [r3, #0]
 8003974:	f462 72c0 	orn	r2, r2, #384	; 0x180
 8003978:	60da      	str	r2, [r3, #12]
    }
  }

  /* Get the AlarmB interrupt source enable status */
  if(__HAL_RTC_ALARM_GET_IT_SOURCE(hrtc, RTC_IT_ALRB) != (uint32_t)RESET)
 800397a:	687b      	ldr	r3, [r7, #4]
 800397c:	681b      	ldr	r3, [r3, #0]
 800397e:	689b      	ldr	r3, [r3, #8]
 8003980:	f403 5300 	and.w	r3, r3, #8192	; 0x2000
 8003984:	2b00      	cmp	r3, #0
 8003986:	d013      	beq.n	80039b0 <HAL_RTC_AlarmIRQHandler+0x74>
  {
    /* Get the pending status of the AlarmB Interrupt */
    if(__HAL_RTC_ALARM_GET_FLAG(hrtc, RTC_FLAG_ALRBF) != (uint32_t)RESET)
 8003988:	687b      	ldr	r3, [r7, #4]
 800398a:	681b      	ldr	r3, [r3, #0]
 800398c:	68db      	ldr	r3, [r3, #12]
 800398e:	f403 7300 	and.w	r3, r3, #512	; 0x200
 8003992:	2b00      	cmp	r3, #0
 8003994:	d00c      	beq.n	80039b0 <HAL_RTC_AlarmIRQHandler+0x74>
    {
      /* AlarmB callback */
    #if (USE_HAL_RTC_REGISTER_CALLBACKS == 1)
      hrtc->AlarmBEventCallback(hrtc);
 8003996:	687b      	ldr	r3, [r7, #4]
 8003998:	6a5b      	ldr	r3, [r3, #36]	; 0x24
 800399a:	6878      	ldr	r0, [r7, #4]
 800399c:	4798      	blx	r3
    #else
      HAL_RTCEx_AlarmBEventCallback(hrtc);
    #endif /* USE_HAL_RTC_REGISTER_CALLBACKS */

      /* Clear the AlarmB interrupt pending bit */
      __HAL_RTC_ALARM_CLEAR_FLAG(hrtc,RTC_FLAG_ALRBF);
 800399e:	687b      	ldr	r3, [r7, #4]
 80039a0:	681b      	ldr	r3, [r3, #0]
 80039a2:	68db      	ldr	r3, [r3, #12]
 80039a4:	b2da      	uxtb	r2, r3
 80039a6:	687b      	ldr	r3, [r7, #4]
 80039a8:	681b      	ldr	r3, [r3, #0]
 80039aa:	f462 7220 	orn	r2, r2, #640	; 0x280
 80039ae:	60da      	str	r2, [r3, #12]
    }
  }

  /* Clear the EXTI's line Flag for RTC Alarm */
  __HAL_RTC_ALARM_EXTI_CLEAR_FLAG();
 80039b0:	4b05      	ldr	r3, [pc, #20]	; (80039c8 <HAL_RTC_AlarmIRQHandler+0x8c>)
 80039b2:	f44f 3200 	mov.w	r2, #131072	; 0x20000
 80039b6:	615a      	str	r2, [r3, #20]

  /* Change RTC state */
  hrtc->State = HAL_RTC_STATE_READY;
 80039b8:	687b      	ldr	r3, [r7, #4]
 80039ba:	2201      	movs	r2, #1
 80039bc:	775a      	strb	r2, [r3, #29]
}
 80039be:	bf00      	nop
 80039c0:	3708      	adds	r7, #8
 80039c2:	46bd      	mov	sp, r7
 80039c4:	bd80      	pop	{r7, pc}
 80039c6:	bf00      	nop
 80039c8:	40013c00 	.word	0x40013c00

080039cc <HAL_RTC_WaitForSynchro>:
  * @param  hrtc pointer to a RTC_HandleTypeDef structure that contains
  *                the configuration information for RTC.
  * @retval HAL status
  */
HAL_StatusTypeDef HAL_RTC_WaitForSynchro(RTC_HandleTypeDef* hrtc)
{
 80039cc:	b580      	push	{r7, lr}
 80039ce:	b084      	sub	sp, #16
 80039d0:	af00      	add	r7, sp, #0
 80039d2:	6078      	str	r0, [r7, #4]
  uint32_t tickstart = 0U;
 80039d4:	2300      	movs	r3, #0
 80039d6:	60fb      	str	r3, [r7, #12]

  /* Clear RSF flag */
  hrtc->Instance->ISR &= (uint32_t)RTC_RSF_MASK;
 80039d8:	687b      	ldr	r3, [r7, #4]
 80039da:	681b      	ldr	r3, [r3, #0]
 80039dc:	68da      	ldr	r2, [r3, #12]
 80039de:	687b      	ldr	r3, [r7, #4]
 80039e0:	681b      	ldr	r3, [r3, #0]
 80039e2:	f022 02a0 	bic.w	r2, r2, #160	; 0xa0
 80039e6:	60da      	str	r2, [r3, #12]

    /* Get tick */
    tickstart = HAL_GetTick();
 80039e8:	f7fe f9a4 	bl	8001d34 <HAL_GetTick>
 80039ec:	60f8      	str	r0, [r7, #12]

  /* Wait the registers to be synchronised */
  while((hrtc->Instance->ISR & RTC_ISR_RSF) == (uint32_t)RESET)
 80039ee:	e009      	b.n	8003a04 <HAL_RTC_WaitForSynchro+0x38>
  {
    if((HAL_GetTick() - tickstart ) > RTC_TIMEOUT_VALUE)
 80039f0:	f7fe f9a0 	bl	8001d34 <HAL_GetTick>
 80039f4:	4602      	mov	r2, r0
 80039f6:	68fb      	ldr	r3, [r7, #12]
 80039f8:	1ad3      	subs	r3, r2, r3
 80039fa:	f5b3 7f7a 	cmp.w	r3, #1000	; 0x3e8
 80039fe:	d901      	bls.n	8003a04 <HAL_RTC_WaitForSynchro+0x38>
    {
      return HAL_TIMEOUT;
 8003a00:	2303      	movs	r3, #3
 8003a02:	e007      	b.n	8003a14 <HAL_RTC_WaitForSynchro+0x48>
  while((hrtc->Instance->ISR & RTC_ISR_RSF) == (uint32_t)RESET)
 8003a04:	687b      	ldr	r3, [r7, #4]
 8003a06:	681b      	ldr	r3, [r3, #0]
 8003a08:	68db      	ldr	r3, [r3, #12]
 8003a0a:	f003 0320 	and.w	r3, r3, #32
 8003a0e:	2b00      	cmp	r3, #0
 8003a10:	d0ee      	beq.n	80039f0 <HAL_RTC_WaitForSynchro+0x24>
    }
  }

  return HAL_OK;
 8003a12:	2300      	movs	r3, #0
}
 8003a14:	4618      	mov	r0, r3
 8003a16:	3710      	adds	r7, #16
 8003a18:	46bd      	mov	sp, r7
 8003a1a:	bd80      	pop	{r7, pc}

08003a1c <RTC_EnterInitMode>:
  * @param  hrtc pointer to a RTC_HandleTypeDef structure that contains
  *                the configuration information for RTC.
  * @retval HAL status
  */
HAL_StatusTypeDef RTC_EnterInitMode(RTC_HandleTypeDef* hrtc)
{
 8003a1c:	b580      	push	{r7, lr}
 8003a1e:	b084      	sub	sp, #16
 8003a20:	af00      	add	r7, sp, #0
 8003a22:	6078      	str	r0, [r7, #4]
  uint32_t tickstart = 0U;
 8003a24:	2300      	movs	r3, #0
 8003a26:	60fb      	str	r3, [r7, #12]

  /* Check if the Initialization mode is set */
  if((hrtc->Instance->ISR & RTC_ISR_INITF) == (uint32_t)RESET)
 8003a28:	687b      	ldr	r3, [r7, #4]
 8003a2a:	681b      	ldr	r3, [r3, #0]
 8003a2c:	68db      	ldr	r3, [r3, #12]
 8003a2e:	f003 0340 	and.w	r3, r3, #64	; 0x40
 8003a32:	2b00      	cmp	r3, #0
 8003a34:	d119      	bne.n	8003a6a <RTC_EnterInitMode+0x4e>
  {
    /* Set the Initialization mode */
    hrtc->Instance->ISR = (uint32_t)RTC_INIT_MASK;
 8003a36:	687b      	ldr	r3, [r7, #4]
 8003a38:	681b      	ldr	r3, [r3, #0]
 8003a3a:	f04f 32ff 	mov.w	r2, #4294967295	; 0xffffffff
 8003a3e:	60da      	str	r2, [r3, #12]

    /* Get tick */
    tickstart = HAL_GetTick();
 8003a40:	f7fe f978 	bl	8001d34 <HAL_GetTick>
 8003a44:	60f8      	str	r0, [r7, #12]

    /* Wait till RTC is in INIT state and if Time out is reached exit */
    while((hrtc->Instance->ISR & RTC_ISR_INITF) == (uint32_t)RESET)
 8003a46:	e009      	b.n	8003a5c <RTC_EnterInitMode+0x40>
    {
      if((HAL_GetTick() - tickstart ) > RTC_TIMEOUT_VALUE)
 8003a48:	f7fe f974 	bl	8001d34 <HAL_GetTick>
 8003a4c:	4602      	mov	r2, r0
 8003a4e:	68fb      	ldr	r3, [r7, #12]
 8003a50:	1ad3      	subs	r3, r2, r3
 8003a52:	f5b3 7f7a 	cmp.w	r3, #1000	; 0x3e8
 8003a56:	d901      	bls.n	8003a5c <RTC_EnterInitMode+0x40>
      {
        return HAL_TIMEOUT;
 8003a58:	2303      	movs	r3, #3
 8003a5a:	e007      	b.n	8003a6c <RTC_EnterInitMode+0x50>
    while((hrtc->Instance->ISR & RTC_ISR_INITF) == (uint32_t)RESET)
 8003a5c:	687b      	ldr	r3, [r7, #4]
 8003a5e:	681b      	ldr	r3, [r3, #0]
 8003a60:	68db      	ldr	r3, [r3, #12]
 8003a62:	f003 0340 	and.w	r3, r3, #64	; 0x40
 8003a66:	2b00      	cmp	r3, #0
 8003a68:	d0ee      	beq.n	8003a48 <RTC_EnterInitMode+0x2c>
      }
    }
  }

  return HAL_OK;
 8003a6a:	2300      	movs	r3, #0
}
 8003a6c:	4618      	mov	r0, r3
 8003a6e:	3710      	adds	r7, #16
 8003a70:	46bd      	mov	sp, r7
 8003a72:	bd80      	pop	{r7, pc}

08003a74 <RTC_ByteToBcd2>:
  * @brief  Converts a 2 digit decimal to BCD format.
  * @param  Value Byte to be converted
  * @retval Converted byte
  */
uint8_t RTC_ByteToBcd2(uint8_t Value)
{
 8003a74:	b480      	push	{r7}
 8003a76:	b085      	sub	sp, #20
 8003a78:	af00      	add	r7, sp, #0
 8003a7a:	4603      	mov	r3, r0
 8003a7c:	71fb      	strb	r3, [r7, #7]
  uint32_t bcdhigh = 0U;
 8003a7e:	2300      	movs	r3, #0
 8003a80:	60fb      	str	r3, [r7, #12]

  while(Value >= 10U)
 8003a82:	e005      	b.n	8003a90 <RTC_ByteToBcd2+0x1c>
  {
    bcdhigh++;
 8003a84:	68fb      	ldr	r3, [r7, #12]
 8003a86:	3301      	adds	r3, #1
 8003a88:	60fb      	str	r3, [r7, #12]
    Value -= 10U;
 8003a8a:	79fb      	ldrb	r3, [r7, #7]
 8003a8c:	3b0a      	subs	r3, #10
 8003a8e:	71fb      	strb	r3, [r7, #7]
  while(Value >= 10U)
 8003a90:	79fb      	ldrb	r3, [r7, #7]
 8003a92:	2b09      	cmp	r3, #9
 8003a94:	d8f6      	bhi.n	8003a84 <RTC_ByteToBcd2+0x10>
  }

  return  ((uint8_t)(bcdhigh << 4U) | Value);
 8003a96:	68fb      	ldr	r3, [r7, #12]
 8003a98:	b2db      	uxtb	r3, r3
 8003a9a:	011b      	lsls	r3, r3, #4
 8003a9c:	b2da      	uxtb	r2, r3
 8003a9e:	79fb      	ldrb	r3, [r7, #7]
 8003aa0:	4313      	orrs	r3, r2
 8003aa2:	b2db      	uxtb	r3, r3
}
 8003aa4:	4618      	mov	r0, r3
 8003aa6:	3714      	adds	r7, #20
 8003aa8:	46bd      	mov	sp, r7
 8003aaa:	f85d 7b04 	ldr.w	r7, [sp], #4
 8003aae:	4770      	bx	lr

08003ab0 <RTC_Bcd2ToByte>:
  * @brief  Converts from 2 digit BCD to Binary.
  * @param  Value BCD value to be converted
  * @retval Converted word
  */
uint8_t RTC_Bcd2ToByte(uint8_t Value)
{
 8003ab0:	b480      	push	{r7}
 8003ab2:	b085      	sub	sp, #20
 8003ab4:	af00      	add	r7, sp, #0
 8003ab6:	4603      	mov	r3, r0
 8003ab8:	71fb      	strb	r3, [r7, #7]
  uint32_t tmp = 0U;
 8003aba:	2300      	movs	r3, #0
 8003abc:	60fb      	str	r3, [r7, #12]
  tmp = ((uint8_t)(Value & (uint8_t)0xF0) >> (uint8_t)0x4) * 10;
 8003abe:	79fb      	ldrb	r3, [r7, #7]
 8003ac0:	091b      	lsrs	r3, r3, #4
 8003ac2:	b2db      	uxtb	r3, r3
 8003ac4:	461a      	mov	r2, r3
 8003ac6:	4613      	mov	r3, r2
 8003ac8:	009b      	lsls	r3, r3, #2
 8003aca:	4413      	add	r3, r2
 8003acc:	005b      	lsls	r3, r3, #1
 8003ace:	60fb      	str	r3, [r7, #12]
  return (tmp + (Value & (uint8_t)0x0F));
 8003ad0:	79fb      	ldrb	r3, [r7, #7]
 8003ad2:	f003 030f 	and.w	r3, r3, #15
 8003ad6:	b2da      	uxtb	r2, r3
 8003ad8:	68fb      	ldr	r3, [r7, #12]
 8003ada:	b2db      	uxtb	r3, r3
 8003adc:	4413      	add	r3, r2
 8003ade:	b2db      	uxtb	r3, r3
}
 8003ae0:	4618      	mov	r0, r3
 8003ae2:	3714      	adds	r7, #20
 8003ae4:	46bd      	mov	sp, r7
 8003ae6:	f85d 7b04 	ldr.w	r7, [sp], #4
 8003aea:	4770      	bx	lr

08003aec <HAL_RTCEx_TimeStampEventCallback>:
  * @param  hrtc pointer to a RTC_HandleTypeDef structure that contains
  *                the configuration information for RTC.
  * @retval None
  */
__weak void HAL_RTCEx_TimeStampEventCallback(RTC_HandleTypeDef *hrtc)
{
 8003aec:	b480      	push	{r7}
 8003aee:	b083      	sub	sp, #12
 8003af0:	af00      	add	r7, sp, #0
 8003af2:	6078      	str	r0, [r7, #4]
  /* Prevent unused argument(s) compilation warning */
  UNUSED(hrtc);
  /* NOTE : This function Should not be modified, when the callback is needed,
            the HAL_RTC_TimeStampEventCallback could be implemented in the user file
  */
}
 8003af4:	bf00      	nop
 8003af6:	370c      	adds	r7, #12
 8003af8:	46bd      	mov	sp, r7
 8003afa:	f85d 7b04 	ldr.w	r7, [sp], #4
 8003afe:	4770      	bx	lr

08003b00 <HAL_RTCEx_Tamper1EventCallback>:
  * @param  hrtc pointer to a RTC_HandleTypeDef structure that contains
  *                the configuration information for RTC.
  * @retval None
  */
__weak void HAL_RTCEx_Tamper1EventCallback(RTC_HandleTypeDef *hrtc)
{
 8003b00:	b480      	push	{r7}
 8003b02:	b083      	sub	sp, #12
 8003b04:	af00      	add	r7, sp, #0
 8003b06:	6078      	str	r0, [r7, #4]
  /* Prevent unused argument(s) compilation warning */
  UNUSED(hrtc);
  /* NOTE : This function Should not be modified, when the callback is needed,
            the HAL_RTC_Tamper1EventCallback could be implemented in the user file
   */
}
 8003b08:	bf00      	nop
 8003b0a:	370c      	adds	r7, #12
 8003b0c:	46bd      	mov	sp, r7
 8003b0e:	f85d 7b04 	ldr.w	r7, [sp], #4
 8003b12:	4770      	bx	lr

08003b14 <HAL_RTCEx_Tamper2EventCallback>:
  * @param  hrtc pointer to a RTC_HandleTypeDef structure that contains
  *                the configuration information for RTC.
  * @retval None
  */
__weak void HAL_RTCEx_Tamper2EventCallback(RTC_HandleTypeDef *hrtc)
{
 8003b14:	b480      	push	{r7}
 8003b16:	b083      	sub	sp, #12
 8003b18:	af00      	add	r7, sp, #0
 8003b1a:	6078      	str	r0, [r7, #4]
  /* Prevent unused argument(s) compilation warning */
  UNUSED(hrtc);
  /* NOTE : This function Should not be modified, when the callback is needed,
            the HAL_RTC_Tamper2EventCallback could be implemented in the user file
   */
}
 8003b1c:	bf00      	nop
 8003b1e:	370c      	adds	r7, #12
 8003b20:	46bd      	mov	sp, r7
 8003b22:	f85d 7b04 	ldr.w	r7, [sp], #4
 8003b26:	4770      	bx	lr

08003b28 <HAL_RTCEx_WakeUpTimerEventCallback>:
  * @param  hrtc pointer to a RTC_HandleTypeDef structure that contains
  *                the configuration information for RTC.
  * @retval None
  */
__weak void HAL_RTCEx_WakeUpTimerEventCallback(RTC_HandleTypeDef *hrtc)
{
 8003b28:	b480      	push	{r7}
 8003b2a:	b083      	sub	sp, #12
 8003b2c:	af00      	add	r7, sp, #0
 8003b2e:	6078      	str	r0, [r7, #4]
  /* Prevent unused argument(s) compilation warning */
  UNUSED(hrtc);
  /* NOTE : This function Should not be modified, when the callback is needed,
            the HAL_RTC_WakeUpTimerEventCallback could be implemented in the user file
   */
}
 8003b30:	bf00      	nop
 8003b32:	370c      	adds	r7, #12
 8003b34:	46bd      	mov	sp, r7
 8003b36:	f85d 7b04 	ldr.w	r7, [sp], #4
 8003b3a:	4770      	bx	lr

08003b3c <HAL_RTCEx_BKUPWrite>:
  *                                 specify the register.
  * @param  Data Data to be written in the specified RTC Backup data register.
  * @retval None
  */
void HAL_RTCEx_BKUPWrite(RTC_HandleTypeDef *hrtc, uint32_t BackupRegister, uint32_t Data)
{
 8003b3c:	b480      	push	{r7}
 8003b3e:	b087      	sub	sp, #28
 8003b40:	af00      	add	r7, sp, #0
 8003b42:	60f8      	str	r0, [r7, #12]
 8003b44:	60b9      	str	r1, [r7, #8]
 8003b46:	607a      	str	r2, [r7, #4]
  uint32_t tmp = 0U;
 8003b48:	2300      	movs	r3, #0
 8003b4a:	617b      	str	r3, [r7, #20]

  /* Check the parameters */
  assert_param(IS_RTC_BKP(BackupRegister));

  tmp = (uint32_t)&(hrtc->Instance->BKP0R);
 8003b4c:	68fb      	ldr	r3, [r7, #12]
 8003b4e:	681b      	ldr	r3, [r3, #0]
 8003b50:	3350      	adds	r3, #80	; 0x50
 8003b52:	617b      	str	r3, [r7, #20]
  tmp += (BackupRegister * 4U);
 8003b54:	68bb      	ldr	r3, [r7, #8]
 8003b56:	009b      	lsls	r3, r3, #2
 8003b58:	697a      	ldr	r2, [r7, #20]
 8003b5a:	4413      	add	r3, r2
 8003b5c:	617b      	str	r3, [r7, #20]

  /* Write the specified register */
  *(__IO uint32_t *)tmp = (uint32_t)Data;
 8003b5e:	697b      	ldr	r3, [r7, #20]
 8003b60:	687a      	ldr	r2, [r7, #4]
 8003b62:	601a      	str	r2, [r3, #0]
}
 8003b64:	bf00      	nop
 8003b66:	371c      	adds	r7, #28
 8003b68:	46bd      	mov	sp, r7
 8003b6a:	f85d 7b04 	ldr.w	r7, [sp], #4
 8003b6e:	4770      	bx	lr

08003b70 <HAL_RTCEx_BKUPRead>:
  *          This parameter can be: RTC_BKP_DRx where x can be from 0 to 19 to
  *                                 specify the register.
  * @retval Read value
  */
uint32_t HAL_RTCEx_BKUPRead(RTC_HandleTypeDef *hrtc, uint32_t BackupRegister)
{
 8003b70:	b480      	push	{r7}
 8003b72:	b085      	sub	sp, #20
 8003b74:	af00      	add	r7, sp, #0
 8003b76:	6078      	str	r0, [r7, #4]
 8003b78:	6039      	str	r1, [r7, #0]
  uint32_t tmp = 0U;
 8003b7a:	2300      	movs	r3, #0
 8003b7c:	60fb      	str	r3, [r7, #12]

  /* Check the parameters */
  assert_param(IS_RTC_BKP(BackupRegister));

  tmp = (uint32_t)&(hrtc->Instance->BKP0R);
 8003b7e:	687b      	ldr	r3, [r7, #4]
 8003b80:	681b      	ldr	r3, [r3, #0]
 8003b82:	3350      	adds	r3, #80	; 0x50
 8003b84:	60fb      	str	r3, [r7, #12]
  tmp += (BackupRegister * 4U);
 8003b86:	683b      	ldr	r3, [r7, #0]
 8003b88:	009b      	lsls	r3, r3, #2
 8003b8a:	68fa      	ldr	r2, [r7, #12]
 8003b8c:	4413      	add	r3, r2
 8003b8e:	60fb      	str	r3, [r7, #12]

  /* Read the specified register */
  return (*(__IO uint32_t *)tmp);
 8003b90:	68fb      	ldr	r3, [r7, #12]
 8003b92:	681b      	ldr	r3, [r3, #0]
}
 8003b94:	4618      	mov	r0, r3
 8003b96:	3714      	adds	r7, #20
 8003b98:	46bd      	mov	sp, r7
 8003b9a:	f85d 7b04 	ldr.w	r7, [sp], #4
 8003b9e:	4770      	bx	lr

08003ba0 <HAL_RTCEx_AlarmBEventCallback>:
  * @param  hrtc pointer to a RTC_HandleTypeDef structure that contains
  *                the configuration information for RTC.
  * @retval None
  */
__weak void HAL_RTCEx_AlarmBEventCallback(RTC_HandleTypeDef *hrtc)
{
 8003ba0:	b480      	push	{r7}
 8003ba2:	b083      	sub	sp, #12
 8003ba4:	af00      	add	r7, sp, #0
 8003ba6:	6078      	str	r0, [r7, #4]
  /* Prevent unused argument(s) compilation warning */
  UNUSED(hrtc);
  /* NOTE : This function Should not be modified, when the callback is needed,
            the HAL_RTC_AlarmBEventCallback could be implemented in the user file
   */
}
 8003ba8:	bf00      	nop
 8003baa:	370c      	adds	r7, #12
 8003bac:	46bd      	mov	sp, r7
 8003bae:	f85d 7b04 	ldr.w	r7, [sp], #4
 8003bb2:	4770      	bx	lr

08003bb4 <HAL_UART_Init>:
  * @param  huart  Pointer to a UART_HandleTypeDef structure that contains
  *                the configuration information for the specified UART module.
  * @retval HAL status
  */
HAL_StatusTypeDef HAL_UART_Init(UART_HandleTypeDef *huart)
{
 8003bb4:	b580      	push	{r7, lr}
 8003bb6:	b082      	sub	sp, #8
 8003bb8:	af00      	add	r7, sp, #0
 8003bba:	6078      	str	r0, [r7, #4]
  /* Check the UART handle allocation */
  if (huart == NULL)
 8003bbc:	687b      	ldr	r3, [r7, #4]
 8003bbe:	2b00      	cmp	r3, #0
 8003bc0:	d101      	bne.n	8003bc6 <HAL_UART_Init+0x12>
  {
    return HAL_ERROR;
 8003bc2:	2301      	movs	r3, #1
 8003bc4:	e03f      	b.n	8003c46 <HAL_UART_Init+0x92>
    assert_param(IS_UART_INSTANCE(huart->Instance));
  }
  assert_param(IS_UART_WORD_LENGTH(huart->Init.WordLength));
  assert_param(IS_UART_OVERSAMPLING(huart->Init.OverSampling));

  if (huart->gState == HAL_UART_STATE_RESET)
 8003bc6:	687b      	ldr	r3, [r7, #4]
 8003bc8:	f893 303d 	ldrb.w	r3, [r3, #61]	; 0x3d
 8003bcc:	b2db      	uxtb	r3, r3
 8003bce:	2b00      	cmp	r3, #0
 8003bd0:	d106      	bne.n	8003be0 <HAL_UART_Init+0x2c>
  {
    /* Allocate lock resource and initialize it */
    huart->Lock = HAL_UNLOCKED;
 8003bd2:	687b      	ldr	r3, [r7, #4]
 8003bd4:	2200      	movs	r2, #0
 8003bd6:	f883 203c 	strb.w	r2, [r3, #60]	; 0x3c

    /* Init the low level hardware */
    huart->MspInitCallback(huart);
#else
    /* Init the low level hardware : GPIO, CLOCK */
    HAL_UART_MspInit(huart);
 8003bda:	6878      	ldr	r0, [r7, #4]
 8003bdc:	f7fd fdb6 	bl	800174c <HAL_UART_MspInit>
#endif /* (USE_HAL_UART_REGISTER_CALLBACKS) */
  }

  huart->gState = HAL_UART_STATE_BUSY;
 8003be0:	687b      	ldr	r3, [r7, #4]
 8003be2:	2224      	movs	r2, #36	; 0x24
 8003be4:	f883 203d 	strb.w	r2, [r3, #61]	; 0x3d

  /* Disable the peripheral */
  __HAL_UART_DISABLE(huart);
 8003be8:	687b      	ldr	r3, [r7, #4]
 8003bea:	681b      	ldr	r3, [r3, #0]
 8003bec:	68da      	ldr	r2, [r3, #12]
 8003bee:	687b      	ldr	r3, [r7, #4]
 8003bf0:	681b      	ldr	r3, [r3, #0]
 8003bf2:	f422 5200 	bic.w	r2, r2, #8192	; 0x2000
 8003bf6:	60da      	str	r2, [r3, #12]

  /* Set the UART Communication parameters */
  UART_SetConfig(huart);
 8003bf8:	6878      	ldr	r0, [r7, #4]
 8003bfa:	f000 fcbd 	bl	8004578 <UART_SetConfig>

  /* In asynchronous mode, the following bits must be kept cleared:
     - LINEN and CLKEN bits in the USART_CR2 register,
     - SCEN, HDSEL and IREN  bits in the USART_CR3 register.*/
  CLEAR_BIT(huart->Instance->CR2, (USART_CR2_LINEN | USART_CR2_CLKEN));
 8003bfe:	687b      	ldr	r3, [r7, #4]
 8003c00:	681b      	ldr	r3, [r3, #0]
 8003c02:	691a      	ldr	r2, [r3, #16]
 8003c04:	687b      	ldr	r3, [r7, #4]
 8003c06:	681b      	ldr	r3, [r3, #0]
 8003c08:	f422 4290 	bic.w	r2, r2, #18432	; 0x4800
 8003c0c:	611a      	str	r2, [r3, #16]
  CLEAR_BIT(huart->Instance->CR3, (USART_CR3_SCEN | USART_CR3_HDSEL | USART_CR3_IREN));
 8003c0e:	687b      	ldr	r3, [r7, #4]
 8003c10:	681b      	ldr	r3, [r3, #0]
 8003c12:	695a      	ldr	r2, [r3, #20]
 8003c14:	687b      	ldr	r3, [r7, #4]
 8003c16:	681b      	ldr	r3, [r3, #0]
 8003c18:	f022 022a 	bic.w	r2, r2, #42	; 0x2a
 8003c1c:	615a      	str	r2, [r3, #20]

  /* Enable the peripheral */
  __HAL_UART_ENABLE(huart);
 8003c1e:	687b      	ldr	r3, [r7, #4]
 8003c20:	681b      	ldr	r3, [r3, #0]
 8003c22:	68da      	ldr	r2, [r3, #12]
 8003c24:	687b      	ldr	r3, [r7, #4]
 8003c26:	681b      	ldr	r3, [r3, #0]
 8003c28:	f442 5200 	orr.w	r2, r2, #8192	; 0x2000
 8003c2c:	60da      	str	r2, [r3, #12]

  /* Initialize the UART state */
  huart->ErrorCode = HAL_UART_ERROR_NONE;
 8003c2e:	687b      	ldr	r3, [r7, #4]
 8003c30:	2200      	movs	r2, #0
 8003c32:	641a      	str	r2, [r3, #64]	; 0x40
  huart->gState = HAL_UART_STATE_READY;
 8003c34:	687b      	ldr	r3, [r7, #4]
 8003c36:	2220      	movs	r2, #32
 8003c38:	f883 203d 	strb.w	r2, [r3, #61]	; 0x3d
  huart->RxState = HAL_UART_STATE_READY;
 8003c3c:	687b      	ldr	r3, [r7, #4]
 8003c3e:	2220      	movs	r2, #32
 8003c40:	f883 203e 	strb.w	r2, [r3, #62]	; 0x3e

  return HAL_OK;
 8003c44:	2300      	movs	r3, #0
}
 8003c46:	4618      	mov	r0, r3
 8003c48:	3708      	adds	r7, #8
 8003c4a:	46bd      	mov	sp, r7
 8003c4c:	bd80      	pop	{r7, pc}

08003c4e <HAL_UART_Transmit>:
  * @param  Size  Amount of data elements (u8 or u16) to be sent
  * @param  Timeout Timeout duration
  * @retval HAL status
  */
HAL_StatusTypeDef HAL_UART_Transmit(UART_HandleTypeDef *huart, uint8_t *pData, uint16_t Size, uint32_t Timeout)
{
 8003c4e:	b580      	push	{r7, lr}
 8003c50:	b08a      	sub	sp, #40	; 0x28
 8003c52:	af02      	add	r7, sp, #8
 8003c54:	60f8      	str	r0, [r7, #12]
 8003c56:	60b9      	str	r1, [r7, #8]
 8003c58:	603b      	str	r3, [r7, #0]
 8003c5a:	4613      	mov	r3, r2
 8003c5c:	80fb      	strh	r3, [r7, #6]
  uint8_t  *pdata8bits;
  uint16_t *pdata16bits;
  uint32_t tickstart = 0U;
 8003c5e:	2300      	movs	r3, #0
 8003c60:	617b      	str	r3, [r7, #20]

  /* Check that a Tx process is not already ongoing */
  if (huart->gState == HAL_UART_STATE_READY)
 8003c62:	68fb      	ldr	r3, [r7, #12]
 8003c64:	f893 303d 	ldrb.w	r3, [r3, #61]	; 0x3d
 8003c68:	b2db      	uxtb	r3, r3
 8003c6a:	2b20      	cmp	r3, #32
 8003c6c:	d17c      	bne.n	8003d68 <HAL_UART_Transmit+0x11a>
  {
    if ((pData == NULL) || (Size == 0U))
 8003c6e:	68bb      	ldr	r3, [r7, #8]
 8003c70:	2b00      	cmp	r3, #0
 8003c72:	d002      	beq.n	8003c7a <HAL_UART_Transmit+0x2c>
 8003c74:	88fb      	ldrh	r3, [r7, #6]
 8003c76:	2b00      	cmp	r3, #0
 8003c78:	d101      	bne.n	8003c7e <HAL_UART_Transmit+0x30>
    {
      return  HAL_ERROR;
 8003c7a:	2301      	movs	r3, #1
 8003c7c:	e075      	b.n	8003d6a <HAL_UART_Transmit+0x11c>
    }

    /* Process Locked */
    __HAL_LOCK(huart);
 8003c7e:	68fb      	ldr	r3, [r7, #12]
 8003c80:	f893 303c 	ldrb.w	r3, [r3, #60]	; 0x3c
 8003c84:	2b01      	cmp	r3, #1
 8003c86:	d101      	bne.n	8003c8c <HAL_UART_Transmit+0x3e>
 8003c88:	2302      	movs	r3, #2
 8003c8a:	e06e      	b.n	8003d6a <HAL_UART_Transmit+0x11c>
 8003c8c:	68fb      	ldr	r3, [r7, #12]
 8003c8e:	2201      	movs	r2, #1
 8003c90:	f883 203c 	strb.w	r2, [r3, #60]	; 0x3c

    huart->ErrorCode = HAL_UART_ERROR_NONE;
 8003c94:	68fb      	ldr	r3, [r7, #12]
 8003c96:	2200      	movs	r2, #0
 8003c98:	641a      	str	r2, [r3, #64]	; 0x40
    huart->gState = HAL_UART_STATE_BUSY_TX;
 8003c9a:	68fb      	ldr	r3, [r7, #12]
 8003c9c:	2221      	movs	r2, #33	; 0x21
 8003c9e:	f883 203d 	strb.w	r2, [r3, #61]	; 0x3d

    /* Init tickstart for timeout management */
    tickstart = HAL_GetTick();
 8003ca2:	f7fe f847 	bl	8001d34 <HAL_GetTick>
 8003ca6:	6178      	str	r0, [r7, #20]

    huart->TxXferSize = Size;
 8003ca8:	68fb      	ldr	r3, [r7, #12]
 8003caa:	88fa      	ldrh	r2, [r7, #6]
 8003cac:	849a      	strh	r2, [r3, #36]	; 0x24
    huart->TxXferCount = Size;
 8003cae:	68fb      	ldr	r3, [r7, #12]
 8003cb0:	88fa      	ldrh	r2, [r7, #6]
 8003cb2:	84da      	strh	r2, [r3, #38]	; 0x26

    /* In case of 9bits/No Parity transfer, pData needs to be handled as a uint16_t pointer */
    if ((huart->Init.WordLength == UART_WORDLENGTH_9B) && (huart->Init.Parity == UART_PARITY_NONE))
 8003cb4:	68fb      	ldr	r3, [r7, #12]
 8003cb6:	689b      	ldr	r3, [r3, #8]
 8003cb8:	f5b3 5f80 	cmp.w	r3, #4096	; 0x1000
 8003cbc:	d108      	bne.n	8003cd0 <HAL_UART_Transmit+0x82>
 8003cbe:	68fb      	ldr	r3, [r7, #12]
 8003cc0:	691b      	ldr	r3, [r3, #16]
 8003cc2:	2b00      	cmp	r3, #0
 8003cc4:	d104      	bne.n	8003cd0 <HAL_UART_Transmit+0x82>
    {
      pdata8bits  = NULL;
 8003cc6:	2300      	movs	r3, #0
 8003cc8:	61fb      	str	r3, [r7, #28]
      pdata16bits = (uint16_t *) pData;
 8003cca:	68bb      	ldr	r3, [r7, #8]
 8003ccc:	61bb      	str	r3, [r7, #24]
 8003cce:	e003      	b.n	8003cd8 <HAL_UART_Transmit+0x8a>
    }
    else
    {
      pdata8bits  = pData;
 8003cd0:	68bb      	ldr	r3, [r7, #8]
 8003cd2:	61fb      	str	r3, [r7, #28]
      pdata16bits = NULL;
 8003cd4:	2300      	movs	r3, #0
 8003cd6:	61bb      	str	r3, [r7, #24]
    }

    /* Process Unlocked */
    __HAL_UNLOCK(huart);
 8003cd8:	68fb      	ldr	r3, [r7, #12]
 8003cda:	2200      	movs	r2, #0
 8003cdc:	f883 203c 	strb.w	r2, [r3, #60]	; 0x3c

    while (huart->TxXferCount > 0U)
 8003ce0:	e02a      	b.n	8003d38 <HAL_UART_Transmit+0xea>
    {
      if (UART_WaitOnFlagUntilTimeout(huart, UART_FLAG_TXE, RESET, tickstart, Timeout) != HAL_OK)
 8003ce2:	683b      	ldr	r3, [r7, #0]
 8003ce4:	9300      	str	r3, [sp, #0]
 8003ce6:	697b      	ldr	r3, [r7, #20]
 8003ce8:	2200      	movs	r2, #0
 8003cea:	2180      	movs	r1, #128	; 0x80
 8003cec:	68f8      	ldr	r0, [r7, #12]
 8003cee:	f000 fab9 	bl	8004264 <UART_WaitOnFlagUntilTimeout>
 8003cf2:	4603      	mov	r3, r0
 8003cf4:	2b00      	cmp	r3, #0
 8003cf6:	d001      	beq.n	8003cfc <HAL_UART_Transmit+0xae>
      {
        return HAL_TIMEOUT;
 8003cf8:	2303      	movs	r3, #3
 8003cfa:	e036      	b.n	8003d6a <HAL_UART_Transmit+0x11c>
      }
      if (pdata8bits == NULL)
 8003cfc:	69fb      	ldr	r3, [r7, #28]
 8003cfe:	2b00      	cmp	r3, #0
 8003d00:	d10b      	bne.n	8003d1a <HAL_UART_Transmit+0xcc>
      {
        huart->Instance->DR = (uint16_t)(*pdata16bits & 0x01FFU);
 8003d02:	69bb      	ldr	r3, [r7, #24]
 8003d04:	881b      	ldrh	r3, [r3, #0]
 8003d06:	461a      	mov	r2, r3
 8003d08:	68fb      	ldr	r3, [r7, #12]
 8003d0a:	681b      	ldr	r3, [r3, #0]
 8003d0c:	f3c2 0208 	ubfx	r2, r2, #0, #9
 8003d10:	605a      	str	r2, [r3, #4]
        pdata16bits++;
 8003d12:	69bb      	ldr	r3, [r7, #24]
 8003d14:	3302      	adds	r3, #2
 8003d16:	61bb      	str	r3, [r7, #24]
 8003d18:	e007      	b.n	8003d2a <HAL_UART_Transmit+0xdc>
      }
      else
      {
        huart->Instance->DR = (uint8_t)(*pdata8bits & 0xFFU);
 8003d1a:	69fb      	ldr	r3, [r7, #28]
 8003d1c:	781a      	ldrb	r2, [r3, #0]
 8003d1e:	68fb      	ldr	r3, [r7, #12]
 8003d20:	681b      	ldr	r3, [r3, #0]
 8003d22:	605a      	str	r2, [r3, #4]
        pdata8bits++;
 8003d24:	69fb      	ldr	r3, [r7, #28]
 8003d26:	3301      	adds	r3, #1
 8003d28:	61fb      	str	r3, [r7, #28]
      }
      huart->TxXferCount--;
 8003d2a:	68fb      	ldr	r3, [r7, #12]
 8003d2c:	8cdb      	ldrh	r3, [r3, #38]	; 0x26
 8003d2e:	b29b      	uxth	r3, r3
 8003d30:	3b01      	subs	r3, #1
 8003d32:	b29a      	uxth	r2, r3
 8003d34:	68fb      	ldr	r3, [r7, #12]
 8003d36:	84da      	strh	r2, [r3, #38]	; 0x26
    while (huart->TxXferCount > 0U)
 8003d38:	68fb      	ldr	r3, [r7, #12]
 8003d3a:	8cdb      	ldrh	r3, [r3, #38]	; 0x26
 8003d3c:	b29b      	uxth	r3, r3
 8003d3e:	2b00      	cmp	r3, #0
 8003d40:	d1cf      	bne.n	8003ce2 <HAL_UART_Transmit+0x94>
    }

    if (UART_WaitOnFlagUntilTimeout(huart, UART_FLAG_TC, RESET, tickstart, Timeout) != HAL_OK)
 8003d42:	683b      	ldr	r3, [r7, #0]
 8003d44:	9300      	str	r3, [sp, #0]
 8003d46:	697b      	ldr	r3, [r7, #20]
 8003d48:	2200      	movs	r2, #0
 8003d4a:	2140      	movs	r1, #64	; 0x40
 8003d4c:	68f8      	ldr	r0, [r7, #12]
 8003d4e:	f000 fa89 	bl	8004264 <UART_WaitOnFlagUntilTimeout>
 8003d52:	4603      	mov	r3, r0
 8003d54:	2b00      	cmp	r3, #0
 8003d56:	d001      	beq.n	8003d5c <HAL_UART_Transmit+0x10e>
    {
      return HAL_TIMEOUT;
 8003d58:	2303      	movs	r3, #3
 8003d5a:	e006      	b.n	8003d6a <HAL_UART_Transmit+0x11c>
    }

    /* At end of Tx process, restore huart->gState to Ready */
    huart->gState = HAL_UART_STATE_READY;
 8003d5c:	68fb      	ldr	r3, [r7, #12]
 8003d5e:	2220      	movs	r2, #32
 8003d60:	f883 203d 	strb.w	r2, [r3, #61]	; 0x3d

    return HAL_OK;
 8003d64:	2300      	movs	r3, #0
 8003d66:	e000      	b.n	8003d6a <HAL_UART_Transmit+0x11c>
  }
  else
  {
    return HAL_BUSY;
 8003d68:	2302      	movs	r3, #2
  }
}
 8003d6a:	4618      	mov	r0, r3
 8003d6c:	3720      	adds	r7, #32
 8003d6e:	46bd      	mov	sp, r7
 8003d70:	bd80      	pop	{r7, pc}

08003d72 <HAL_UART_Receive>:
  * @param  Size  Amount of data elements (u8 or u16) to be received.
  * @param  Timeout Timeout duration
  * @retval HAL status
  */
HAL_StatusTypeDef HAL_UART_Receive(UART_HandleTypeDef *huart, uint8_t *pData, uint16_t Size, uint32_t Timeout)
{
 8003d72:	b580      	push	{r7, lr}
 8003d74:	b08a      	sub	sp, #40	; 0x28
 8003d76:	af02      	add	r7, sp, #8
 8003d78:	60f8      	str	r0, [r7, #12]
 8003d7a:	60b9      	str	r1, [r7, #8]
 8003d7c:	603b      	str	r3, [r7, #0]
 8003d7e:	4613      	mov	r3, r2
 8003d80:	80fb      	strh	r3, [r7, #6]
  uint8_t  *pdata8bits;
  uint16_t *pdata16bits;
  uint32_t tickstart = 0U;
 8003d82:	2300      	movs	r3, #0
 8003d84:	617b      	str	r3, [r7, #20]

  /* Check that a Rx process is not already ongoing */
  if (huart->RxState == HAL_UART_STATE_READY)
 8003d86:	68fb      	ldr	r3, [r7, #12]
 8003d88:	f893 303e 	ldrb.w	r3, [r3, #62]	; 0x3e
 8003d8c:	b2db      	uxtb	r3, r3
 8003d8e:	2b20      	cmp	r3, #32
 8003d90:	f040 808c 	bne.w	8003eac <HAL_UART_Receive+0x13a>
  {
    if ((pData == NULL) || (Size == 0U))
 8003d94:	68bb      	ldr	r3, [r7, #8]
 8003d96:	2b00      	cmp	r3, #0
 8003d98:	d002      	beq.n	8003da0 <HAL_UART_Receive+0x2e>
 8003d9a:	88fb      	ldrh	r3, [r7, #6]
 8003d9c:	2b00      	cmp	r3, #0
 8003d9e:	d101      	bne.n	8003da4 <HAL_UART_Receive+0x32>
    {
      return  HAL_ERROR;
 8003da0:	2301      	movs	r3, #1
 8003da2:	e084      	b.n	8003eae <HAL_UART_Receive+0x13c>
    }

    /* Process Locked */
    __HAL_LOCK(huart);
 8003da4:	68fb      	ldr	r3, [r7, #12]
 8003da6:	f893 303c 	ldrb.w	r3, [r3, #60]	; 0x3c
 8003daa:	2b01      	cmp	r3, #1
 8003dac:	d101      	bne.n	8003db2 <HAL_UART_Receive+0x40>
 8003dae:	2302      	movs	r3, #2
 8003db0:	e07d      	b.n	8003eae <HAL_UART_Receive+0x13c>
 8003db2:	68fb      	ldr	r3, [r7, #12]
 8003db4:	2201      	movs	r2, #1
 8003db6:	f883 203c 	strb.w	r2, [r3, #60]	; 0x3c

    huart->ErrorCode = HAL_UART_ERROR_NONE;
 8003dba:	68fb      	ldr	r3, [r7, #12]
 8003dbc:	2200      	movs	r2, #0
 8003dbe:	641a      	str	r2, [r3, #64]	; 0x40
    huart->RxState = HAL_UART_STATE_BUSY_RX;
 8003dc0:	68fb      	ldr	r3, [r7, #12]
 8003dc2:	2222      	movs	r2, #34	; 0x22
 8003dc4:	f883 203e 	strb.w	r2, [r3, #62]	; 0x3e
    huart->ReceptionType = HAL_UART_RECEPTION_STANDARD;
 8003dc8:	68fb      	ldr	r3, [r7, #12]
 8003dca:	2200      	movs	r2, #0
 8003dcc:	631a      	str	r2, [r3, #48]	; 0x30

    /* Init tickstart for timeout management */
    tickstart = HAL_GetTick();
 8003dce:	f7fd ffb1 	bl	8001d34 <HAL_GetTick>
 8003dd2:	6178      	str	r0, [r7, #20]

    huart->RxXferSize = Size;
 8003dd4:	68fb      	ldr	r3, [r7, #12]
 8003dd6:	88fa      	ldrh	r2, [r7, #6]
 8003dd8:	859a      	strh	r2, [r3, #44]	; 0x2c
    huart->RxXferCount = Size;
 8003dda:	68fb      	ldr	r3, [r7, #12]
 8003ddc:	88fa      	ldrh	r2, [r7, #6]
 8003dde:	85da      	strh	r2, [r3, #46]	; 0x2e

    /* In case of 9bits/No Parity transfer, pRxData needs to be handled as a uint16_t pointer */
    if ((huart->Init.WordLength == UART_WORDLENGTH_9B) && (huart->Init.Parity == UART_PARITY_NONE))
 8003de0:	68fb      	ldr	r3, [r7, #12]
 8003de2:	689b      	ldr	r3, [r3, #8]
 8003de4:	f5b3 5f80 	cmp.w	r3, #4096	; 0x1000
 8003de8:	d108      	bne.n	8003dfc <HAL_UART_Receive+0x8a>
 8003dea:	68fb      	ldr	r3, [r7, #12]
 8003dec:	691b      	ldr	r3, [r3, #16]
 8003dee:	2b00      	cmp	r3, #0
 8003df0:	d104      	bne.n	8003dfc <HAL_UART_Receive+0x8a>
    {
      pdata8bits  = NULL;
 8003df2:	2300      	movs	r3, #0
 8003df4:	61fb      	str	r3, [r7, #28]
      pdata16bits = (uint16_t *) pData;
 8003df6:	68bb      	ldr	r3, [r7, #8]
 8003df8:	61bb      	str	r3, [r7, #24]
 8003dfa:	e003      	b.n	8003e04 <HAL_UART_Receive+0x92>
    }
    else
    {
      pdata8bits  = pData;
 8003dfc:	68bb      	ldr	r3, [r7, #8]
 8003dfe:	61fb      	str	r3, [r7, #28]
      pdata16bits = NULL;
 8003e00:	2300      	movs	r3, #0
 8003e02:	61bb      	str	r3, [r7, #24]
    }

    /* Process Unlocked */
    __HAL_UNLOCK(huart);
 8003e04:	68fb      	ldr	r3, [r7, #12]
 8003e06:	2200      	movs	r2, #0
 8003e08:	f883 203c 	strb.w	r2, [r3, #60]	; 0x3c

    /* Check the remain data to be received */
    while (huart->RxXferCount > 0U)
 8003e0c:	e043      	b.n	8003e96 <HAL_UART_Receive+0x124>
    {
      if (UART_WaitOnFlagUntilTimeout(huart, UART_FLAG_RXNE, RESET, tickstart, Timeout) != HAL_OK)
 8003e0e:	683b      	ldr	r3, [r7, #0]
 8003e10:	9300      	str	r3, [sp, #0]
 8003e12:	697b      	ldr	r3, [r7, #20]
 8003e14:	2200      	movs	r2, #0
 8003e16:	2120      	movs	r1, #32
 8003e18:	68f8      	ldr	r0, [r7, #12]
 8003e1a:	f000 fa23 	bl	8004264 <UART_WaitOnFlagUntilTimeout>
 8003e1e:	4603      	mov	r3, r0
 8003e20:	2b00      	cmp	r3, #0
 8003e22:	d001      	beq.n	8003e28 <HAL_UART_Receive+0xb6>
      {
        return HAL_TIMEOUT;
 8003e24:	2303      	movs	r3, #3
 8003e26:	e042      	b.n	8003eae <HAL_UART_Receive+0x13c>
      }
      if (pdata8bits == NULL)
 8003e28:	69fb      	ldr	r3, [r7, #28]
 8003e2a:	2b00      	cmp	r3, #0
 8003e2c:	d10c      	bne.n	8003e48 <HAL_UART_Receive+0xd6>
      {
        *pdata16bits = (uint16_t)(huart->Instance->DR & 0x01FF);
 8003e2e:	68fb      	ldr	r3, [r7, #12]
 8003e30:	681b      	ldr	r3, [r3, #0]
 8003e32:	685b      	ldr	r3, [r3, #4]
 8003e34:	b29b      	uxth	r3, r3
 8003e36:	f3c3 0308 	ubfx	r3, r3, #0, #9
 8003e3a:	b29a      	uxth	r2, r3
 8003e3c:	69bb      	ldr	r3, [r7, #24]
 8003e3e:	801a      	strh	r2, [r3, #0]
        pdata16bits++;
 8003e40:	69bb      	ldr	r3, [r7, #24]
 8003e42:	3302      	adds	r3, #2
 8003e44:	61bb      	str	r3, [r7, #24]
 8003e46:	e01f      	b.n	8003e88 <HAL_UART_Receive+0x116>
      }
      else
      {
        if ((huart->Init.WordLength == UART_WORDLENGTH_9B) || ((huart->Init.WordLength == UART_WORDLENGTH_8B) && (huart->Init.Parity == UART_PARITY_NONE)))
 8003e48:	68fb      	ldr	r3, [r7, #12]
 8003e4a:	689b      	ldr	r3, [r3, #8]
 8003e4c:	f5b3 5f80 	cmp.w	r3, #4096	; 0x1000
 8003e50:	d007      	beq.n	8003e62 <HAL_UART_Receive+0xf0>
 8003e52:	68fb      	ldr	r3, [r7, #12]
 8003e54:	689b      	ldr	r3, [r3, #8]
 8003e56:	2b00      	cmp	r3, #0
 8003e58:	d10a      	bne.n	8003e70 <HAL_UART_Receive+0xfe>
 8003e5a:	68fb      	ldr	r3, [r7, #12]
 8003e5c:	691b      	ldr	r3, [r3, #16]
 8003e5e:	2b00      	cmp	r3, #0
 8003e60:	d106      	bne.n	8003e70 <HAL_UART_Receive+0xfe>
        {
          *pdata8bits = (uint8_t)(huart->Instance->DR & (uint8_t)0x00FF);
 8003e62:	68fb      	ldr	r3, [r7, #12]
 8003e64:	681b      	ldr	r3, [r3, #0]
 8003e66:	685b      	ldr	r3, [r3, #4]
 8003e68:	b2da      	uxtb	r2, r3
 8003e6a:	69fb      	ldr	r3, [r7, #28]
 8003e6c:	701a      	strb	r2, [r3, #0]
 8003e6e:	e008      	b.n	8003e82 <HAL_UART_Receive+0x110>
        }
        else
        {
          *pdata8bits = (uint8_t)(huart->Instance->DR & (uint8_t)0x007F);
 8003e70:	68fb      	ldr	r3, [r7, #12]
 8003e72:	681b      	ldr	r3, [r3, #0]
 8003e74:	685b      	ldr	r3, [r3, #4]
 8003e76:	b2db      	uxtb	r3, r3
 8003e78:	f003 037f 	and.w	r3, r3, #127	; 0x7f
 8003e7c:	b2da      	uxtb	r2, r3
 8003e7e:	69fb      	ldr	r3, [r7, #28]
 8003e80:	701a      	strb	r2, [r3, #0]
        }
        pdata8bits++;
 8003e82:	69fb      	ldr	r3, [r7, #28]
 8003e84:	3301      	adds	r3, #1
 8003e86:	61fb      	str	r3, [r7, #28]
      }
      huart->RxXferCount--;
 8003e88:	68fb      	ldr	r3, [r7, #12]
 8003e8a:	8ddb      	ldrh	r3, [r3, #46]	; 0x2e
 8003e8c:	b29b      	uxth	r3, r3
 8003e8e:	3b01      	subs	r3, #1
 8003e90:	b29a      	uxth	r2, r3
 8003e92:	68fb      	ldr	r3, [r7, #12]
 8003e94:	85da      	strh	r2, [r3, #46]	; 0x2e
    while (huart->RxXferCount > 0U)
 8003e96:	68fb      	ldr	r3, [r7, #12]
 8003e98:	8ddb      	ldrh	r3, [r3, #46]	; 0x2e
 8003e9a:	b29b      	uxth	r3, r3
 8003e9c:	2b00      	cmp	r3, #0
 8003e9e:	d1b6      	bne.n	8003e0e <HAL_UART_Receive+0x9c>
    }

    /* At end of Rx process, restore huart->RxState to Ready */
    huart->RxState = HAL_UART_STATE_READY;
 8003ea0:	68fb      	ldr	r3, [r7, #12]
 8003ea2:	2220      	movs	r2, #32
 8003ea4:	f883 203e 	strb.w	r2, [r3, #62]	; 0x3e

    return HAL_OK;
 8003ea8:	2300      	movs	r3, #0
 8003eaa:	e000      	b.n	8003eae <HAL_UART_Receive+0x13c>
  }
  else
  {
    return HAL_BUSY;
 8003eac:	2302      	movs	r3, #2
  }
}
 8003eae:	4618      	mov	r0, r3
 8003eb0:	3720      	adds	r7, #32
 8003eb2:	46bd      	mov	sp, r7
 8003eb4:	bd80      	pop	{r7, pc}
	...

08003eb8 <HAL_UART_IRQHandler>:
  * @param  huart  Pointer to a UART_HandleTypeDef structure that contains
  *                the configuration information for the specified UART module.
  * @retval None
  */
void HAL_UART_IRQHandler(UART_HandleTypeDef *huart)
{
 8003eb8:	b580      	push	{r7, lr}
 8003eba:	b08a      	sub	sp, #40	; 0x28
 8003ebc:	af00      	add	r7, sp, #0
 8003ebe:	6078      	str	r0, [r7, #4]
  uint32_t isrflags   = READ_REG(huart->Instance->SR);
 8003ec0:	687b      	ldr	r3, [r7, #4]
 8003ec2:	681b      	ldr	r3, [r3, #0]
 8003ec4:	681b      	ldr	r3, [r3, #0]
 8003ec6:	627b      	str	r3, [r7, #36]	; 0x24
  uint32_t cr1its     = READ_REG(huart->Instance->CR1);
 8003ec8:	687b      	ldr	r3, [r7, #4]
 8003eca:	681b      	ldr	r3, [r3, #0]
 8003ecc:	68db      	ldr	r3, [r3, #12]
 8003ece:	623b      	str	r3, [r7, #32]
  uint32_t cr3its     = READ_REG(huart->Instance->CR3);
 8003ed0:	687b      	ldr	r3, [r7, #4]
 8003ed2:	681b      	ldr	r3, [r3, #0]
 8003ed4:	695b      	ldr	r3, [r3, #20]
 8003ed6:	61fb      	str	r3, [r7, #28]
  uint32_t errorflags = 0x00U;
 8003ed8:	2300      	movs	r3, #0
 8003eda:	61bb      	str	r3, [r7, #24]
  uint32_t dmarequest = 0x00U;
 8003edc:	2300      	movs	r3, #0
 8003ede:	617b      	str	r3, [r7, #20]

  /* If no error occurs */
  errorflags = (isrflags & (uint32_t)(USART_SR_PE | USART_SR_FE | USART_SR_ORE | USART_SR_NE));
 8003ee0:	6a7b      	ldr	r3, [r7, #36]	; 0x24
 8003ee2:	f003 030f 	and.w	r3, r3, #15
 8003ee6:	61bb      	str	r3, [r7, #24]
  if (errorflags == RESET)
 8003ee8:	69bb      	ldr	r3, [r7, #24]
 8003eea:	2b00      	cmp	r3, #0
 8003eec:	d10d      	bne.n	8003f0a <HAL_UART_IRQHandler+0x52>
  {
    /* UART in mode Receiver -------------------------------------------------*/
    if (((isrflags & USART_SR_RXNE) != RESET) && ((cr1its & USART_CR1_RXNEIE) != RESET))
 8003eee:	6a7b      	ldr	r3, [r7, #36]	; 0x24
 8003ef0:	f003 0320 	and.w	r3, r3, #32
 8003ef4:	2b00      	cmp	r3, #0
 8003ef6:	d008      	beq.n	8003f0a <HAL_UART_IRQHandler+0x52>
 8003ef8:	6a3b      	ldr	r3, [r7, #32]
 8003efa:	f003 0320 	and.w	r3, r3, #32
 8003efe:	2b00      	cmp	r3, #0
 8003f00:	d003      	beq.n	8003f0a <HAL_UART_IRQHandler+0x52>
    {
      UART_Receive_IT(huart);
 8003f02:	6878      	ldr	r0, [r7, #4]
 8003f04:	f000 faa1 	bl	800444a <UART_Receive_IT>
      return;
 8003f08:	e17c      	b.n	8004204 <HAL_UART_IRQHandler+0x34c>
    }
  }

  /* If some errors occur */
  if ((errorflags != RESET) && (((cr3its & USART_CR3_EIE) != RESET) || ((cr1its & (USART_CR1_RXNEIE | USART_CR1_PEIE)) != RESET)))
 8003f0a:	69bb      	ldr	r3, [r7, #24]
 8003f0c:	2b00      	cmp	r3, #0
 8003f0e:	f000 80b1 	beq.w	8004074 <HAL_UART_IRQHandler+0x1bc>
 8003f12:	69fb      	ldr	r3, [r7, #28]
 8003f14:	f003 0301 	and.w	r3, r3, #1
 8003f18:	2b00      	cmp	r3, #0
 8003f1a:	d105      	bne.n	8003f28 <HAL_UART_IRQHandler+0x70>
 8003f1c:	6a3b      	ldr	r3, [r7, #32]
 8003f1e:	f403 7390 	and.w	r3, r3, #288	; 0x120
 8003f22:	2b00      	cmp	r3, #0
 8003f24:	f000 80a6 	beq.w	8004074 <HAL_UART_IRQHandler+0x1bc>
  {
    /* UART parity error interrupt occurred ----------------------------------*/
    if (((isrflags & USART_SR_PE) != RESET) && ((cr1its & USART_CR1_PEIE) != RESET))
 8003f28:	6a7b      	ldr	r3, [r7, #36]	; 0x24
 8003f2a:	f003 0301 	and.w	r3, r3, #1
 8003f2e:	2b00      	cmp	r3, #0
 8003f30:	d00a      	beq.n	8003f48 <HAL_UART_IRQHandler+0x90>
 8003f32:	6a3b      	ldr	r3, [r7, #32]
 8003f34:	f403 7380 	and.w	r3, r3, #256	; 0x100
 8003f38:	2b00      	cmp	r3, #0
 8003f3a:	d005      	beq.n	8003f48 <HAL_UART_IRQHandler+0x90>
    {
      huart->ErrorCode |= HAL_UART_ERROR_PE;
 8003f3c:	687b      	ldr	r3, [r7, #4]
 8003f3e:	6c1b      	ldr	r3, [r3, #64]	; 0x40
 8003f40:	f043 0201 	orr.w	r2, r3, #1
 8003f44:	687b      	ldr	r3, [r7, #4]
 8003f46:	641a      	str	r2, [r3, #64]	; 0x40
    }

    /* UART noise error interrupt occurred -----------------------------------*/
    if (((isrflags & USART_SR_NE) != RESET) && ((cr3its & USART_CR3_EIE) != RESET))
 8003f48:	6a7b      	ldr	r3, [r7, #36]	; 0x24
 8003f4a:	f003 0304 	and.w	r3, r3, #4
 8003f4e:	2b00      	cmp	r3, #0
 8003f50:	d00a      	beq.n	8003f68 <HAL_UART_IRQHandler+0xb0>
 8003f52:	69fb      	ldr	r3, [r7, #28]
 8003f54:	f003 0301 	and.w	r3, r3, #1
 8003f58:	2b00      	cmp	r3, #0
 8003f5a:	d005      	beq.n	8003f68 <HAL_UART_IRQHandler+0xb0>
    {
      huart->ErrorCode |= HAL_UART_ERROR_NE;
 8003f5c:	687b      	ldr	r3, [r7, #4]
 8003f5e:	6c1b      	ldr	r3, [r3, #64]	; 0x40
 8003f60:	f043 0202 	orr.w	r2, r3, #2
 8003f64:	687b      	ldr	r3, [r7, #4]
 8003f66:	641a      	str	r2, [r3, #64]	; 0x40
    }

    /* UART frame error interrupt occurred -----------------------------------*/
    if (((isrflags & USART_SR_FE) != RESET) && ((cr3its & USART_CR3_EIE) != RESET))
 8003f68:	6a7b      	ldr	r3, [r7, #36]	; 0x24
 8003f6a:	f003 0302 	and.w	r3, r3, #2
 8003f6e:	2b00      	cmp	r3, #0
 8003f70:	d00a      	beq.n	8003f88 <HAL_UART_IRQHandler+0xd0>
 8003f72:	69fb      	ldr	r3, [r7, #28]
 8003f74:	f003 0301 	and.w	r3, r3, #1
 8003f78:	2b00      	cmp	r3, #0
 8003f7a:	d005      	beq.n	8003f88 <HAL_UART_IRQHandler+0xd0>
    {
      huart->ErrorCode |= HAL_UART_ERROR_FE;
 8003f7c:	687b      	ldr	r3, [r7, #4]
 8003f7e:	6c1b      	ldr	r3, [r3, #64]	; 0x40
 8003f80:	f043 0204 	orr.w	r2, r3, #4
 8003f84:	687b      	ldr	r3, [r7, #4]
 8003f86:	641a      	str	r2, [r3, #64]	; 0x40
    }

    /* UART Over-Run interrupt occurred --------------------------------------*/
    if (((isrflags & USART_SR_ORE) != RESET) && (((cr1its & USART_CR1_RXNEIE) != RESET) || ((cr3its & USART_CR3_EIE) != RESET)))
 8003f88:	6a7b      	ldr	r3, [r7, #36]	; 0x24
 8003f8a:	f003 0308 	and.w	r3, r3, #8
 8003f8e:	2b00      	cmp	r3, #0
 8003f90:	d00f      	beq.n	8003fb2 <HAL_UART_IRQHandler+0xfa>
 8003f92:	6a3b      	ldr	r3, [r7, #32]
 8003f94:	f003 0320 	and.w	r3, r3, #32
 8003f98:	2b00      	cmp	r3, #0
 8003f9a:	d104      	bne.n	8003fa6 <HAL_UART_IRQHandler+0xee>
 8003f9c:	69fb      	ldr	r3, [r7, #28]
 8003f9e:	f003 0301 	and.w	r3, r3, #1
 8003fa2:	2b00      	cmp	r3, #0
 8003fa4:	d005      	beq.n	8003fb2 <HAL_UART_IRQHandler+0xfa>
    {
      huart->ErrorCode |= HAL_UART_ERROR_ORE;
 8003fa6:	687b      	ldr	r3, [r7, #4]
 8003fa8:	6c1b      	ldr	r3, [r3, #64]	; 0x40
 8003faa:	f043 0208 	orr.w	r2, r3, #8
 8003fae:	687b      	ldr	r3, [r7, #4]
 8003fb0:	641a      	str	r2, [r3, #64]	; 0x40
    }

    /* Call UART Error Call back function if need be --------------------------*/
    if (huart->ErrorCode != HAL_UART_ERROR_NONE)
 8003fb2:	687b      	ldr	r3, [r7, #4]
 8003fb4:	6c1b      	ldr	r3, [r3, #64]	; 0x40
 8003fb6:	2b00      	cmp	r3, #0
 8003fb8:	f000 811f 	beq.w	80041fa <HAL_UART_IRQHandler+0x342>
    {
      /* UART in mode Receiver -----------------------------------------------*/
      if (((isrflags & USART_SR_RXNE) != RESET) && ((cr1its & USART_CR1_RXNEIE) != RESET))
 8003fbc:	6a7b      	ldr	r3, [r7, #36]	; 0x24
 8003fbe:	f003 0320 	and.w	r3, r3, #32
 8003fc2:	2b00      	cmp	r3, #0
 8003fc4:	d007      	beq.n	8003fd6 <HAL_UART_IRQHandler+0x11e>
 8003fc6:	6a3b      	ldr	r3, [r7, #32]
 8003fc8:	f003 0320 	and.w	r3, r3, #32
 8003fcc:	2b00      	cmp	r3, #0
 8003fce:	d002      	beq.n	8003fd6 <HAL_UART_IRQHandler+0x11e>
      {
        UART_Receive_IT(huart);
 8003fd0:	6878      	ldr	r0, [r7, #4]
 8003fd2:	f000 fa3a 	bl	800444a <UART_Receive_IT>
      }

      /* If Overrun error occurs, or if any error occurs in DMA mode reception,
         consider error as blocking */
      dmarequest = HAL_IS_BIT_SET(huart->Instance->CR3, USART_CR3_DMAR);
 8003fd6:	687b      	ldr	r3, [r7, #4]
 8003fd8:	681b      	ldr	r3, [r3, #0]
 8003fda:	695b      	ldr	r3, [r3, #20]
 8003fdc:	f003 0340 	and.w	r3, r3, #64	; 0x40
 8003fe0:	2b40      	cmp	r3, #64	; 0x40
 8003fe2:	bf0c      	ite	eq
 8003fe4:	2301      	moveq	r3, #1
 8003fe6:	2300      	movne	r3, #0
 8003fe8:	b2db      	uxtb	r3, r3
 8003fea:	617b      	str	r3, [r7, #20]
      if (((huart->ErrorCode & HAL_UART_ERROR_ORE) != RESET) || dmarequest)
 8003fec:	687b      	ldr	r3, [r7, #4]
 8003fee:	6c1b      	ldr	r3, [r3, #64]	; 0x40
 8003ff0:	f003 0308 	and.w	r3, r3, #8
 8003ff4:	2b00      	cmp	r3, #0
 8003ff6:	d102      	bne.n	8003ffe <HAL_UART_IRQHandler+0x146>
 8003ff8:	697b      	ldr	r3, [r7, #20]
 8003ffa:	2b00      	cmp	r3, #0
 8003ffc:	d031      	beq.n	8004062 <HAL_UART_IRQHandler+0x1aa>
      {
        /* Blocking error : transfer is aborted
           Set the UART state ready to be able to start again the process,
           Disable Rx Interrupts, and disable Rx DMA request, if ongoing */
        UART_EndRxTransfer(huart);
 8003ffe:	6878      	ldr	r0, [r7, #4]
 8004000:	f000 f97a 	bl	80042f8 <UART_EndRxTransfer>

        /* Disable the UART DMA Rx request if enabled */
        if (HAL_IS_BIT_SET(huart->Instance->CR3, USART_CR3_DMAR))
 8004004:	687b      	ldr	r3, [r7, #4]
 8004006:	681b      	ldr	r3, [r3, #0]
 8004008:	695b      	ldr	r3, [r3, #20]
 800400a:	f003 0340 	and.w	r3, r3, #64	; 0x40
 800400e:	2b40      	cmp	r3, #64	; 0x40
 8004010:	d123      	bne.n	800405a <HAL_UART_IRQHandler+0x1a2>
        {
          CLEAR_BIT(huart->Instance->CR3, USART_CR3_DMAR);
 8004012:	687b      	ldr	r3, [r7, #4]
 8004014:	681b      	ldr	r3, [r3, #0]
 8004016:	695a      	ldr	r2, [r3, #20]
 8004018:	687b      	ldr	r3, [r7, #4]
 800401a:	681b      	ldr	r3, [r3, #0]
 800401c:	f022 0240 	bic.w	r2, r2, #64	; 0x40
 8004020:	615a      	str	r2, [r3, #20]

          /* Abort the UART DMA Rx stream */
          if (huart->hdmarx != NULL)
 8004022:	687b      	ldr	r3, [r7, #4]
 8004024:	6b9b      	ldr	r3, [r3, #56]	; 0x38
 8004026:	2b00      	cmp	r3, #0
 8004028:	d013      	beq.n	8004052 <HAL_UART_IRQHandler+0x19a>
          {
            /* Set the UART DMA Abort callback :
               will lead to call HAL_UART_ErrorCallback() at end of DMA abort procedure */
            huart->hdmarx->XferAbortCallback = UART_DMAAbortOnError;
 800402a:	687b      	ldr	r3, [r7, #4]
 800402c:	6b9b      	ldr	r3, [r3, #56]	; 0x38
 800402e:	4a77      	ldr	r2, [pc, #476]	; (800420c <HAL_UART_IRQHandler+0x354>)
 8004030:	651a      	str	r2, [r3, #80]	; 0x50
            if (HAL_DMA_Abort_IT(huart->hdmarx) != HAL_OK)
 8004032:	687b      	ldr	r3, [r7, #4]
 8004034:	6b9b      	ldr	r3, [r3, #56]	; 0x38
 8004036:	4618      	mov	r0, r3
 8004038:	f7fe f85f 	bl	80020fa <HAL_DMA_Abort_IT>
 800403c:	4603      	mov	r3, r0
 800403e:	2b00      	cmp	r3, #0
 8004040:	d016      	beq.n	8004070 <HAL_UART_IRQHandler+0x1b8>
            {
              /* Call Directly XferAbortCallback function in case of error */
              huart->hdmarx->XferAbortCallback(huart->hdmarx);
 8004042:	687b      	ldr	r3, [r7, #4]
 8004044:	6b9b      	ldr	r3, [r3, #56]	; 0x38
 8004046:	6d1b      	ldr	r3, [r3, #80]	; 0x50
 8004048:	687a      	ldr	r2, [r7, #4]
 800404a:	6b92      	ldr	r2, [r2, #56]	; 0x38
 800404c:	4610      	mov	r0, r2
 800404e:	4798      	blx	r3
        if (HAL_IS_BIT_SET(huart->Instance->CR3, USART_CR3_DMAR))
 8004050:	e00e      	b.n	8004070 <HAL_UART_IRQHandler+0x1b8>
#if (USE_HAL_UART_REGISTER_CALLBACKS == 1)
            /*Call registered error callback*/
            huart->ErrorCallback(huart);
#else
            /*Call legacy weak error callback*/
            HAL_UART_ErrorCallback(huart);
 8004052:	6878      	ldr	r0, [r7, #4]
 8004054:	f000 f8f0 	bl	8004238 <HAL_UART_ErrorCallback>
        if (HAL_IS_BIT_SET(huart->Instance->CR3, USART_CR3_DMAR))
 8004058:	e00a      	b.n	8004070 <HAL_UART_IRQHandler+0x1b8>
#if (USE_HAL_UART_REGISTER_CALLBACKS == 1)
          /*Call registered error callback*/
          huart->ErrorCallback(huart);
#else
          /*Call legacy weak error callback*/
          HAL_UART_ErrorCallback(huart);
 800405a:	6878      	ldr	r0, [r7, #4]
 800405c:	f000 f8ec 	bl	8004238 <HAL_UART_ErrorCallback>
        if (HAL_IS_BIT_SET(huart->Instance->CR3, USART_CR3_DMAR))
 8004060:	e006      	b.n	8004070 <HAL_UART_IRQHandler+0x1b8>
#if (USE_HAL_UART_REGISTER_CALLBACKS == 1)
        /*Call registered error callback*/
        huart->ErrorCallback(huart);
#else
        /*Call legacy weak error callback*/
        HAL_UART_ErrorCallback(huart);
 8004062:	6878      	ldr	r0, [r7, #4]
 8004064:	f000 f8e8 	bl	8004238 <HAL_UART_ErrorCallback>
#endif /* USE_HAL_UART_REGISTER_CALLBACKS */

        huart->ErrorCode = HAL_UART_ERROR_NONE;
 8004068:	687b      	ldr	r3, [r7, #4]
 800406a:	2200      	movs	r2, #0
 800406c:	641a      	str	r2, [r3, #64]	; 0x40
      }
    }
    return;
 800406e:	e0c4      	b.n	80041fa <HAL_UART_IRQHandler+0x342>
        if (HAL_IS_BIT_SET(huart->Instance->CR3, USART_CR3_DMAR))
 8004070:	bf00      	nop
    return;
 8004072:	e0c2      	b.n	80041fa <HAL_UART_IRQHandler+0x342>
  } /* End if some error occurs */

  /* Check current reception Mode :
     If Reception till IDLE event has been selected : */
  if (  (huart->ReceptionType == HAL_UART_RECEPTION_TOIDLE)
 8004074:	687b      	ldr	r3, [r7, #4]
 8004076:	6b1b      	ldr	r3, [r3, #48]	; 0x30
 8004078:	2b01      	cmp	r3, #1
 800407a:	f040 80a2 	bne.w	80041c2 <HAL_UART_IRQHandler+0x30a>
      &&((isrflags & USART_SR_IDLE) != 0U)
 800407e:	6a7b      	ldr	r3, [r7, #36]	; 0x24
 8004080:	f003 0310 	and.w	r3, r3, #16
 8004084:	2b00      	cmp	r3, #0
 8004086:	f000 809c 	beq.w	80041c2 <HAL_UART_IRQHandler+0x30a>
      &&((cr1its & USART_SR_IDLE) != 0U))
 800408a:	6a3b      	ldr	r3, [r7, #32]
 800408c:	f003 0310 	and.w	r3, r3, #16
 8004090:	2b00      	cmp	r3, #0
 8004092:	f000 8096 	beq.w	80041c2 <HAL_UART_IRQHandler+0x30a>
  {
    __HAL_UART_CLEAR_IDLEFLAG(huart);
 8004096:	2300      	movs	r3, #0
 8004098:	60fb      	str	r3, [r7, #12]
 800409a:	687b      	ldr	r3, [r7, #4]
 800409c:	681b      	ldr	r3, [r3, #0]
 800409e:	681b      	ldr	r3, [r3, #0]
 80040a0:	60fb      	str	r3, [r7, #12]
 80040a2:	687b      	ldr	r3, [r7, #4]
 80040a4:	681b      	ldr	r3, [r3, #0]
 80040a6:	685b      	ldr	r3, [r3, #4]
 80040a8:	60fb      	str	r3, [r7, #12]
 80040aa:	68fb      	ldr	r3, [r7, #12]

    /* Check if DMA mode is enabled in UART */
    if (HAL_IS_BIT_SET(huart->Instance->CR3, USART_CR3_DMAR))
 80040ac:	687b      	ldr	r3, [r7, #4]
 80040ae:	681b      	ldr	r3, [r3, #0]
 80040b0:	695b      	ldr	r3, [r3, #20]
 80040b2:	f003 0340 	and.w	r3, r3, #64	; 0x40
 80040b6:	2b40      	cmp	r3, #64	; 0x40
 80040b8:	d14f      	bne.n	800415a <HAL_UART_IRQHandler+0x2a2>
    {
      /* DMA mode enabled */
      /* Check received length : If all expected data are received, do nothing,
         (DMA cplt callback will be called).
         Otherwise, if at least one data has already been received, IDLE event is to be notified to user */
      uint16_t nb_remaining_rx_data = (uint16_t) __HAL_DMA_GET_COUNTER(huart->hdmarx);
 80040ba:	687b      	ldr	r3, [r7, #4]
 80040bc:	6b9b      	ldr	r3, [r3, #56]	; 0x38
 80040be:	681b      	ldr	r3, [r3, #0]
 80040c0:	685b      	ldr	r3, [r3, #4]
 80040c2:	823b      	strh	r3, [r7, #16]
      if (  (nb_remaining_rx_data > 0U)
 80040c4:	8a3b      	ldrh	r3, [r7, #16]
 80040c6:	2b00      	cmp	r3, #0
 80040c8:	f000 8099 	beq.w	80041fe <HAL_UART_IRQHandler+0x346>
          &&(nb_remaining_rx_data < huart->RxXferSize))
 80040cc:	687b      	ldr	r3, [r7, #4]
 80040ce:	8d9b      	ldrh	r3, [r3, #44]	; 0x2c
 80040d0:	8a3a      	ldrh	r2, [r7, #16]
 80040d2:	429a      	cmp	r2, r3
 80040d4:	f080 8093 	bcs.w	80041fe <HAL_UART_IRQHandler+0x346>
      {
        /* Reception is not complete */
        huart->RxXferCount = nb_remaining_rx_data;
 80040d8:	687b      	ldr	r3, [r7, #4]
 80040da:	8a3a      	ldrh	r2, [r7, #16]
 80040dc:	85da      	strh	r2, [r3, #46]	; 0x2e

        /* In Normal mode, end DMA xfer and HAL UART Rx process*/
        if (huart->hdmarx->Init.Mode != DMA_CIRCULAR)
 80040de:	687b      	ldr	r3, [r7, #4]
 80040e0:	6b9b      	ldr	r3, [r3, #56]	; 0x38
 80040e2:	69db      	ldr	r3, [r3, #28]
 80040e4:	f5b3 7f80 	cmp.w	r3, #256	; 0x100
 80040e8:	d02b      	beq.n	8004142 <HAL_UART_IRQHandler+0x28a>
        {
          /* Disable PE and ERR (Frame error, noise error, overrun error) interrupts */
          CLEAR_BIT(huart->Instance->CR1, USART_CR1_PEIE);
 80040ea:	687b      	ldr	r3, [r7, #4]
 80040ec:	681b      	ldr	r3, [r3, #0]
 80040ee:	68da      	ldr	r2, [r3, #12]
 80040f0:	687b      	ldr	r3, [r7, #4]
 80040f2:	681b      	ldr	r3, [r3, #0]
 80040f4:	f422 7280 	bic.w	r2, r2, #256	; 0x100
 80040f8:	60da      	str	r2, [r3, #12]
          CLEAR_BIT(huart->Instance->CR3, USART_CR3_EIE);
 80040fa:	687b      	ldr	r3, [r7, #4]
 80040fc:	681b      	ldr	r3, [r3, #0]
 80040fe:	695a      	ldr	r2, [r3, #20]
 8004100:	687b      	ldr	r3, [r7, #4]
 8004102:	681b      	ldr	r3, [r3, #0]
 8004104:	f022 0201 	bic.w	r2, r2, #1
 8004108:	615a      	str	r2, [r3, #20]

          /* Disable the DMA transfer for the receiver request by resetting the DMAR bit
             in the UART CR3 register */
          CLEAR_BIT(huart->Instance->CR3, USART_CR3_DMAR);
 800410a:	687b      	ldr	r3, [r7, #4]
 800410c:	681b      	ldr	r3, [r3, #0]
 800410e:	695a      	ldr	r2, [r3, #20]
 8004110:	687b      	ldr	r3, [r7, #4]
 8004112:	681b      	ldr	r3, [r3, #0]
 8004114:	f022 0240 	bic.w	r2, r2, #64	; 0x40
 8004118:	615a      	str	r2, [r3, #20]

          /* At end of Rx process, restore huart->RxState to Ready */
          huart->RxState = HAL_UART_STATE_READY;
 800411a:	687b      	ldr	r3, [r7, #4]
 800411c:	2220      	movs	r2, #32
 800411e:	f883 203e 	strb.w	r2, [r3, #62]	; 0x3e
          huart->ReceptionType = HAL_UART_RECEPTION_STANDARD;
 8004122:	687b      	ldr	r3, [r7, #4]
 8004124:	2200      	movs	r2, #0
 8004126:	631a      	str	r2, [r3, #48]	; 0x30

          CLEAR_BIT(huart->Instance->CR1, USART_CR1_IDLEIE);
 8004128:	687b      	ldr	r3, [r7, #4]
 800412a:	681b      	ldr	r3, [r3, #0]
 800412c:	68da      	ldr	r2, [r3, #12]
 800412e:	687b      	ldr	r3, [r7, #4]
 8004130:	681b      	ldr	r3, [r3, #0]
 8004132:	f022 0210 	bic.w	r2, r2, #16
 8004136:	60da      	str	r2, [r3, #12]

          /* Last bytes received, so no need as the abort is immediate */
          (void)HAL_DMA_Abort(huart->hdmarx);
 8004138:	687b      	ldr	r3, [r7, #4]
 800413a:	6b9b      	ldr	r3, [r3, #56]	; 0x38
 800413c:	4618      	mov	r0, r3
 800413e:	f7fd ff6c 	bl	800201a <HAL_DMA_Abort>
#if (USE_HAL_UART_REGISTER_CALLBACKS == 1)
        /*Call registered Rx Event callback*/
        huart->RxEventCallback(huart, (huart->RxXferSize - huart->RxXferCount));
#else
        /*Call legacy weak Rx Event callback*/
        HAL_UARTEx_RxEventCallback(huart, (huart->RxXferSize - huart->RxXferCount));
 8004142:	687b      	ldr	r3, [r7, #4]
 8004144:	8d9a      	ldrh	r2, [r3, #44]	; 0x2c
 8004146:	687b      	ldr	r3, [r7, #4]
 8004148:	8ddb      	ldrh	r3, [r3, #46]	; 0x2e
 800414a:	b29b      	uxth	r3, r3
 800414c:	1ad3      	subs	r3, r2, r3
 800414e:	b29b      	uxth	r3, r3
 8004150:	4619      	mov	r1, r3
 8004152:	6878      	ldr	r0, [r7, #4]
 8004154:	f000 f87a 	bl	800424c <HAL_UARTEx_RxEventCallback>
#endif
      }
      return;
 8004158:	e051      	b.n	80041fe <HAL_UART_IRQHandler+0x346>
    else
    {
      /* DMA mode not enabled */
      /* Check received length : If all expected data are received, do nothing.
         Otherwise, if at least one data has already been received, IDLE event is to be notified to user */
      uint16_t nb_rx_data = huart->RxXferSize - huart->RxXferCount;
 800415a:	687b      	ldr	r3, [r7, #4]
 800415c:	8d9a      	ldrh	r2, [r3, #44]	; 0x2c
 800415e:	687b      	ldr	r3, [r7, #4]
 8004160:	8ddb      	ldrh	r3, [r3, #46]	; 0x2e
 8004162:	b29b      	uxth	r3, r3
 8004164:	1ad3      	subs	r3, r2, r3
 8004166:	827b      	strh	r3, [r7, #18]
      if (  (huart->RxXferCount > 0U)
 8004168:	687b      	ldr	r3, [r7, #4]
 800416a:	8ddb      	ldrh	r3, [r3, #46]	; 0x2e
 800416c:	b29b      	uxth	r3, r3
 800416e:	2b00      	cmp	r3, #0
 8004170:	d047      	beq.n	8004202 <HAL_UART_IRQHandler+0x34a>
          &&(nb_rx_data > 0U) )
 8004172:	8a7b      	ldrh	r3, [r7, #18]
 8004174:	2b00      	cmp	r3, #0
 8004176:	d044      	beq.n	8004202 <HAL_UART_IRQHandler+0x34a>
      {
        /* Disable the UART Parity Error Interrupt and RXNE interrupts */
        CLEAR_BIT(huart->Instance->CR1, (USART_CR1_RXNEIE | USART_CR1_PEIE));
 8004178:	687b      	ldr	r3, [r7, #4]
 800417a:	681b      	ldr	r3, [r3, #0]
 800417c:	68da      	ldr	r2, [r3, #12]
 800417e:	687b      	ldr	r3, [r7, #4]
 8004180:	681b      	ldr	r3, [r3, #0]
 8004182:	f422 7290 	bic.w	r2, r2, #288	; 0x120
 8004186:	60da      	str	r2, [r3, #12]

        /* Disable the UART Error Interrupt: (Frame error, noise error, overrun error) */
        CLEAR_BIT(huart->Instance->CR3, USART_CR3_EIE);
 8004188:	687b      	ldr	r3, [r7, #4]
 800418a:	681b      	ldr	r3, [r3, #0]
 800418c:	695a      	ldr	r2, [r3, #20]
 800418e:	687b      	ldr	r3, [r7, #4]
 8004190:	681b      	ldr	r3, [r3, #0]
 8004192:	f022 0201 	bic.w	r2, r2, #1
 8004196:	615a      	str	r2, [r3, #20]

        /* Rx process is completed, restore huart->RxState to Ready */
        huart->RxState = HAL_UART_STATE_READY;
 8004198:	687b      	ldr	r3, [r7, #4]
 800419a:	2220      	movs	r2, #32
 800419c:	f883 203e 	strb.w	r2, [r3, #62]	; 0x3e
        huart->ReceptionType = HAL_UART_RECEPTION_STANDARD;
 80041a0:	687b      	ldr	r3, [r7, #4]
 80041a2:	2200      	movs	r2, #0
 80041a4:	631a      	str	r2, [r3, #48]	; 0x30

        CLEAR_BIT(huart->Instance->CR1, USART_CR1_IDLEIE);
 80041a6:	687b      	ldr	r3, [r7, #4]
 80041a8:	681b      	ldr	r3, [r3, #0]
 80041aa:	68da      	ldr	r2, [r3, #12]
 80041ac:	687b      	ldr	r3, [r7, #4]
 80041ae:	681b      	ldr	r3, [r3, #0]
 80041b0:	f022 0210 	bic.w	r2, r2, #16
 80041b4:	60da      	str	r2, [r3, #12]
#if (USE_HAL_UART_REGISTER_CALLBACKS == 1)
        /*Call registered Rx complete callback*/
        huart->RxEventCallback(huart, nb_rx_data);
#else
        /*Call legacy weak Rx Event callback*/
        HAL_UARTEx_RxEventCallback(huart, nb_rx_data);
 80041b6:	8a7b      	ldrh	r3, [r7, #18]
 80041b8:	4619      	mov	r1, r3
 80041ba:	6878      	ldr	r0, [r7, #4]
 80041bc:	f000 f846 	bl	800424c <HAL_UARTEx_RxEventCallback>
#endif
      }
      return;
 80041c0:	e01f      	b.n	8004202 <HAL_UART_IRQHandler+0x34a>
    }
  }

  /* UART in mode Transmitter ------------------------------------------------*/
  if (((isrflags & USART_SR_TXE) != RESET) && ((cr1its & USART_CR1_TXEIE) != RESET))
 80041c2:	6a7b      	ldr	r3, [r7, #36]	; 0x24
 80041c4:	f003 0380 	and.w	r3, r3, #128	; 0x80
 80041c8:	2b00      	cmp	r3, #0
 80041ca:	d008      	beq.n	80041de <HAL_UART_IRQHandler+0x326>
 80041cc:	6a3b      	ldr	r3, [r7, #32]
 80041ce:	f003 0380 	and.w	r3, r3, #128	; 0x80
 80041d2:	2b00      	cmp	r3, #0
 80041d4:	d003      	beq.n	80041de <HAL_UART_IRQHandler+0x326>
  {
    UART_Transmit_IT(huart);
 80041d6:	6878      	ldr	r0, [r7, #4]
 80041d8:	f000 f8cf 	bl	800437a <UART_Transmit_IT>
    return;
 80041dc:	e012      	b.n	8004204 <HAL_UART_IRQHandler+0x34c>
  }

  /* UART in mode Transmitter end --------------------------------------------*/
  if (((isrflags & USART_SR_TC) != RESET) && ((cr1its & USART_CR1_TCIE) != RESET))
 80041de:	6a7b      	ldr	r3, [r7, #36]	; 0x24
 80041e0:	f003 0340 	and.w	r3, r3, #64	; 0x40
 80041e4:	2b00      	cmp	r3, #0
 80041e6:	d00d      	beq.n	8004204 <HAL_UART_IRQHandler+0x34c>
 80041e8:	6a3b      	ldr	r3, [r7, #32]
 80041ea:	f003 0340 	and.w	r3, r3, #64	; 0x40
 80041ee:	2b00      	cmp	r3, #0
 80041f0:	d008      	beq.n	8004204 <HAL_UART_IRQHandler+0x34c>
  {
    UART_EndTransmit_IT(huart);
 80041f2:	6878      	ldr	r0, [r7, #4]
 80041f4:	f000 f911 	bl	800441a <UART_EndTransmit_IT>
    return;
 80041f8:	e004      	b.n	8004204 <HAL_UART_IRQHandler+0x34c>
    return;
 80041fa:	bf00      	nop
 80041fc:	e002      	b.n	8004204 <HAL_UART_IRQHandler+0x34c>
      return;
 80041fe:	bf00      	nop
 8004200:	e000      	b.n	8004204 <HAL_UART_IRQHandler+0x34c>
      return;
 8004202:	bf00      	nop
  }
}
 8004204:	3728      	adds	r7, #40	; 0x28
 8004206:	46bd      	mov	sp, r7
 8004208:	bd80      	pop	{r7, pc}
 800420a:	bf00      	nop
 800420c:	08004353 	.word	0x08004353

08004210 <HAL_UART_TxCpltCallback>:
  * @param  huart  Pointer to a UART_HandleTypeDef structure that contains
  *                the configuration information for the specified UART module.
  * @retval None
  */
__weak void HAL_UART_TxCpltCallback(UART_HandleTypeDef *huart)
{
 8004210:	b480      	push	{r7}
 8004212:	b083      	sub	sp, #12
 8004214:	af00      	add	r7, sp, #0
 8004216:	6078      	str	r0, [r7, #4]
  /* Prevent unused argument(s) compilation warning */
  UNUSED(huart);
  /* NOTE: This function should not be modified, when the callback is needed,
           the HAL_UART_TxCpltCallback could be implemented in the user file
   */
}
 8004218:	bf00      	nop
 800421a:	370c      	adds	r7, #12
 800421c:	46bd      	mov	sp, r7
 800421e:	f85d 7b04 	ldr.w	r7, [sp], #4
 8004222:	4770      	bx	lr

08004224 <HAL_UART_RxCpltCallback>:
  * @param  huart  Pointer to a UART_HandleTypeDef structure that contains
  *                the configuration information for the specified UART module.
  * @retval None
  */
__weak void HAL_UART_RxCpltCallback(UART_HandleTypeDef *huart)
{
 8004224:	b480      	push	{r7}
 8004226:	b083      	sub	sp, #12
 8004228:	af00      	add	r7, sp, #0
 800422a:	6078      	str	r0, [r7, #4]
  /* Prevent unused argument(s) compilation warning */
  UNUSED(huart);
  /* NOTE: This function should not be modified, when the callback is needed,
           the HAL_UART_RxCpltCallback could be implemented in the user file
   */
}
 800422c:	bf00      	nop
 800422e:	370c      	adds	r7, #12
 8004230:	46bd      	mov	sp, r7
 8004232:	f85d 7b04 	ldr.w	r7, [sp], #4
 8004236:	4770      	bx	lr

08004238 <HAL_UART_ErrorCallback>:
  * @param  huart  Pointer to a UART_HandleTypeDef structure that contains
  *                the configuration information for the specified UART module.
  * @retval None
  */
__weak void HAL_UART_ErrorCallback(UART_HandleTypeDef *huart)
{
 8004238:	b480      	push	{r7}
 800423a:	b083      	sub	sp, #12
 800423c:	af00      	add	r7, sp, #0
 800423e:	6078      	str	r0, [r7, #4]
  /* Prevent unused argument(s) compilation warning */
  UNUSED(huart);
  /* NOTE: This function should not be modified, when the callback is needed,
           the HAL_UART_ErrorCallback could be implemented in the user file
   */
}
 8004240:	bf00      	nop
 8004242:	370c      	adds	r7, #12
 8004244:	46bd      	mov	sp, r7
 8004246:	f85d 7b04 	ldr.w	r7, [sp], #4
 800424a:	4770      	bx	lr

0800424c <HAL_UARTEx_RxEventCallback>:
  * @param  Size  Number of data available in application reception buffer (indicates a position in
  *               reception buffer until which, data are available)
  * @retval None
  */
__weak void HAL_UARTEx_RxEventCallback(UART_HandleTypeDef *huart, uint16_t Size)
{
 800424c:	b480      	push	{r7}
 800424e:	b083      	sub	sp, #12
 8004250:	af00      	add	r7, sp, #0
 8004252:	6078      	str	r0, [r7, #4]
 8004254:	460b      	mov	r3, r1
 8004256:	807b      	strh	r3, [r7, #2]
  UNUSED(Size);

  /* NOTE : This function should not be modified, when the callback is needed,
            the HAL_UARTEx_RxEventCallback can be implemented in the user file.
   */
}
 8004258:	bf00      	nop
 800425a:	370c      	adds	r7, #12
 800425c:	46bd      	mov	sp, r7
 800425e:	f85d 7b04 	ldr.w	r7, [sp], #4
 8004262:	4770      	bx	lr

08004264 <UART_WaitOnFlagUntilTimeout>:
  * @param  Tickstart Tick start value
  * @param  Timeout Timeout duration
  * @retval HAL status
  */
static HAL_StatusTypeDef UART_WaitOnFlagUntilTimeout(UART_HandleTypeDef *huart, uint32_t Flag, FlagStatus Status, uint32_t Tickstart, uint32_t Timeout)
{
 8004264:	b580      	push	{r7, lr}
 8004266:	b084      	sub	sp, #16
 8004268:	af00      	add	r7, sp, #0
 800426a:	60f8      	str	r0, [r7, #12]
 800426c:	60b9      	str	r1, [r7, #8]
 800426e:	603b      	str	r3, [r7, #0]
 8004270:	4613      	mov	r3, r2
 8004272:	71fb      	strb	r3, [r7, #7]
  /* Wait until flag is set */
  while ((__HAL_UART_GET_FLAG(huart, Flag) ? SET : RESET) == Status)
 8004274:	e02c      	b.n	80042d0 <UART_WaitOnFlagUntilTimeout+0x6c>
  {
    /* Check for the Timeout */
    if (Timeout != HAL_MAX_DELAY)
 8004276:	69bb      	ldr	r3, [r7, #24]
 8004278:	f1b3 3fff 	cmp.w	r3, #4294967295	; 0xffffffff
 800427c:	d028      	beq.n	80042d0 <UART_WaitOnFlagUntilTimeout+0x6c>
    {
      if ((Timeout == 0U) || ((HAL_GetTick() - Tickstart) > Timeout))
 800427e:	69bb      	ldr	r3, [r7, #24]
 8004280:	2b00      	cmp	r3, #0
 8004282:	d007      	beq.n	8004294 <UART_WaitOnFlagUntilTimeout+0x30>
 8004284:	f7fd fd56 	bl	8001d34 <HAL_GetTick>
 8004288:	4602      	mov	r2, r0
 800428a:	683b      	ldr	r3, [r7, #0]
 800428c:	1ad3      	subs	r3, r2, r3
 800428e:	69ba      	ldr	r2, [r7, #24]
 8004290:	429a      	cmp	r2, r3
 8004292:	d21d      	bcs.n	80042d0 <UART_WaitOnFlagUntilTimeout+0x6c>
      {
        /* Disable TXE, RXNE, PE and ERR (Frame error, noise error, overrun error) interrupts for the interrupt process */
        CLEAR_BIT(huart->Instance->CR1, (USART_CR1_RXNEIE | USART_CR1_PEIE | USART_CR1_TXEIE));
 8004294:	68fb      	ldr	r3, [r7, #12]
 8004296:	681b      	ldr	r3, [r3, #0]
 8004298:	68da      	ldr	r2, [r3, #12]
 800429a:	68fb      	ldr	r3, [r7, #12]
 800429c:	681b      	ldr	r3, [r3, #0]
 800429e:	f422 72d0 	bic.w	r2, r2, #416	; 0x1a0
 80042a2:	60da      	str	r2, [r3, #12]
        CLEAR_BIT(huart->Instance->CR3, USART_CR3_EIE);
 80042a4:	68fb      	ldr	r3, [r7, #12]
 80042a6:	681b      	ldr	r3, [r3, #0]
 80042a8:	695a      	ldr	r2, [r3, #20]
 80042aa:	68fb      	ldr	r3, [r7, #12]
 80042ac:	681b      	ldr	r3, [r3, #0]
 80042ae:	f022 0201 	bic.w	r2, r2, #1
 80042b2:	615a      	str	r2, [r3, #20]

        huart->gState  = HAL_UART_STATE_READY;
 80042b4:	68fb      	ldr	r3, [r7, #12]
 80042b6:	2220      	movs	r2, #32
 80042b8:	f883 203d 	strb.w	r2, [r3, #61]	; 0x3d
        huart->RxState = HAL_UART_STATE_READY;
 80042bc:	68fb      	ldr	r3, [r7, #12]
 80042be:	2220      	movs	r2, #32
 80042c0:	f883 203e 	strb.w	r2, [r3, #62]	; 0x3e

        /* Process Unlocked */
        __HAL_UNLOCK(huart);
 80042c4:	68fb      	ldr	r3, [r7, #12]
 80042c6:	2200      	movs	r2, #0
 80042c8:	f883 203c 	strb.w	r2, [r3, #60]	; 0x3c

        return HAL_TIMEOUT;
 80042cc:	2303      	movs	r3, #3
 80042ce:	e00f      	b.n	80042f0 <UART_WaitOnFlagUntilTimeout+0x8c>
  while ((__HAL_UART_GET_FLAG(huart, Flag) ? SET : RESET) == Status)
 80042d0:	68fb      	ldr	r3, [r7, #12]
 80042d2:	681b      	ldr	r3, [r3, #0]
 80042d4:	681a      	ldr	r2, [r3, #0]
 80042d6:	68bb      	ldr	r3, [r7, #8]
 80042d8:	4013      	ands	r3, r2
 80042da:	68ba      	ldr	r2, [r7, #8]
 80042dc:	429a      	cmp	r2, r3
 80042de:	bf0c      	ite	eq
 80042e0:	2301      	moveq	r3, #1
 80042e2:	2300      	movne	r3, #0
 80042e4:	b2db      	uxtb	r3, r3
 80042e6:	461a      	mov	r2, r3
 80042e8:	79fb      	ldrb	r3, [r7, #7]
 80042ea:	429a      	cmp	r2, r3
 80042ec:	d0c3      	beq.n	8004276 <UART_WaitOnFlagUntilTimeout+0x12>
      }
    }
  }
  return HAL_OK;
 80042ee:	2300      	movs	r3, #0
}
 80042f0:	4618      	mov	r0, r3
 80042f2:	3710      	adds	r7, #16
 80042f4:	46bd      	mov	sp, r7
 80042f6:	bd80      	pop	{r7, pc}

080042f8 <UART_EndRxTransfer>:
  * @brief  End ongoing Rx transfer on UART peripheral (following error detection or Reception completion).
  * @param  huart UART handle.
  * @retval None
  */
static void UART_EndRxTransfer(UART_HandleTypeDef *huart)
{
 80042f8:	b480      	push	{r7}
 80042fa:	b083      	sub	sp, #12
 80042fc:	af00      	add	r7, sp, #0
 80042fe:	6078      	str	r0, [r7, #4]
  /* Disable RXNE, PE and ERR (Frame error, noise error, overrun error) interrupts */
  CLEAR_BIT(huart->Instance->CR1, (USART_CR1_RXNEIE | USART_CR1_PEIE));
 8004300:	687b      	ldr	r3, [r7, #4]
 8004302:	681b      	ldr	r3, [r3, #0]
 8004304:	68da      	ldr	r2, [r3, #12]
 8004306:	687b      	ldr	r3, [r7, #4]
 8004308:	681b      	ldr	r3, [r3, #0]
 800430a:	f422 7290 	bic.w	r2, r2, #288	; 0x120
 800430e:	60da      	str	r2, [r3, #12]
  CLEAR_BIT(huart->Instance->CR3, USART_CR3_EIE);
 8004310:	687b      	ldr	r3, [r7, #4]
 8004312:	681b      	ldr	r3, [r3, #0]
 8004314:	695a      	ldr	r2, [r3, #20]
 8004316:	687b      	ldr	r3, [r7, #4]
 8004318:	681b      	ldr	r3, [r3, #0]
 800431a:	f022 0201 	bic.w	r2, r2, #1
 800431e:	615a      	str	r2, [r3, #20]

  /* In case of reception waiting for IDLE event, disable also the IDLE IE interrupt source */
  if (huart->ReceptionType == HAL_UART_RECEPTION_TOIDLE)
 8004320:	687b      	ldr	r3, [r7, #4]
 8004322:	6b1b      	ldr	r3, [r3, #48]	; 0x30
 8004324:	2b01      	cmp	r3, #1
 8004326:	d107      	bne.n	8004338 <UART_EndRxTransfer+0x40>
  {
    CLEAR_BIT(huart->Instance->CR1, USART_CR1_IDLEIE);
 8004328:	687b      	ldr	r3, [r7, #4]
 800432a:	681b      	ldr	r3, [r3, #0]
 800432c:	68da      	ldr	r2, [r3, #12]
 800432e:	687b      	ldr	r3, [r7, #4]
 8004330:	681b      	ldr	r3, [r3, #0]
 8004332:	f022 0210 	bic.w	r2, r2, #16
 8004336:	60da      	str	r2, [r3, #12]
  }

  /* At end of Rx process, restore huart->RxState to Ready */
  huart->RxState = HAL_UART_STATE_READY;
 8004338:	687b      	ldr	r3, [r7, #4]
 800433a:	2220      	movs	r2, #32
 800433c:	f883 203e 	strb.w	r2, [r3, #62]	; 0x3e
  huart->ReceptionType = HAL_UART_RECEPTION_STANDARD;
 8004340:	687b      	ldr	r3, [r7, #4]
 8004342:	2200      	movs	r2, #0
 8004344:	631a      	str	r2, [r3, #48]	; 0x30
}
 8004346:	bf00      	nop
 8004348:	370c      	adds	r7, #12
 800434a:	46bd      	mov	sp, r7
 800434c:	f85d 7b04 	ldr.w	r7, [sp], #4
 8004350:	4770      	bx	lr

08004352 <UART_DMAAbortOnError>:
  * @param  hdma  Pointer to a DMA_HandleTypeDef structure that contains
  *               the configuration information for the specified DMA module.
  * @retval None
  */
static void UART_DMAAbortOnError(DMA_HandleTypeDef *hdma)
{
 8004352:	b580      	push	{r7, lr}
 8004354:	b084      	sub	sp, #16
 8004356:	af00      	add	r7, sp, #0
 8004358:	6078      	str	r0, [r7, #4]
  UART_HandleTypeDef *huart = (UART_HandleTypeDef *)((DMA_HandleTypeDef *)hdma)->Parent;
 800435a:	687b      	ldr	r3, [r7, #4]
 800435c:	6b9b      	ldr	r3, [r3, #56]	; 0x38
 800435e:	60fb      	str	r3, [r7, #12]
  huart->RxXferCount = 0x00U;
 8004360:	68fb      	ldr	r3, [r7, #12]
 8004362:	2200      	movs	r2, #0
 8004364:	85da      	strh	r2, [r3, #46]	; 0x2e
  huart->TxXferCount = 0x00U;
 8004366:	68fb      	ldr	r3, [r7, #12]
 8004368:	2200      	movs	r2, #0
 800436a:	84da      	strh	r2, [r3, #38]	; 0x26
#if (USE_HAL_UART_REGISTER_CALLBACKS == 1)
  /*Call registered error callback*/
  huart->ErrorCallback(huart);
#else
  /*Call legacy weak error callback*/
  HAL_UART_ErrorCallback(huart);
 800436c:	68f8      	ldr	r0, [r7, #12]
 800436e:	f7ff ff63 	bl	8004238 <HAL_UART_ErrorCallback>
#endif /* USE_HAL_UART_REGISTER_CALLBACKS */
}
 8004372:	bf00      	nop
 8004374:	3710      	adds	r7, #16
 8004376:	46bd      	mov	sp, r7
 8004378:	bd80      	pop	{r7, pc}

0800437a <UART_Transmit_IT>:
  * @param  huart  Pointer to a UART_HandleTypeDef structure that contains
  *                the configuration information for the specified UART module.
  * @retval HAL status
  */
static HAL_StatusTypeDef UART_Transmit_IT(UART_HandleTypeDef *huart)
{
 800437a:	b480      	push	{r7}
 800437c:	b085      	sub	sp, #20
 800437e:	af00      	add	r7, sp, #0
 8004380:	6078      	str	r0, [r7, #4]
  uint16_t *tmp;

  /* Check that a Tx process is ongoing */
  if (huart->gState == HAL_UART_STATE_BUSY_TX)
 8004382:	687b      	ldr	r3, [r7, #4]
 8004384:	f893 303d 	ldrb.w	r3, [r3, #61]	; 0x3d
 8004388:	b2db      	uxtb	r3, r3
 800438a:	2b21      	cmp	r3, #33	; 0x21
 800438c:	d13e      	bne.n	800440c <UART_Transmit_IT+0x92>
  {
    if ((huart->Init.WordLength == UART_WORDLENGTH_9B) && (huart->Init.Parity == UART_PARITY_NONE))
 800438e:	687b      	ldr	r3, [r7, #4]
 8004390:	689b      	ldr	r3, [r3, #8]
 8004392:	f5b3 5f80 	cmp.w	r3, #4096	; 0x1000
 8004396:	d114      	bne.n	80043c2 <UART_Transmit_IT+0x48>
 8004398:	687b      	ldr	r3, [r7, #4]
 800439a:	691b      	ldr	r3, [r3, #16]
 800439c:	2b00      	cmp	r3, #0
 800439e:	d110      	bne.n	80043c2 <UART_Transmit_IT+0x48>
    {
      tmp = (uint16_t *) huart->pTxBuffPtr;
 80043a0:	687b      	ldr	r3, [r7, #4]
 80043a2:	6a1b      	ldr	r3, [r3, #32]
 80043a4:	60fb      	str	r3, [r7, #12]
      huart->Instance->DR = (uint16_t)(*tmp & (uint16_t)0x01FF);
 80043a6:	68fb      	ldr	r3, [r7, #12]
 80043a8:	881b      	ldrh	r3, [r3, #0]
 80043aa:	461a      	mov	r2, r3
 80043ac:	687b      	ldr	r3, [r7, #4]
 80043ae:	681b      	ldr	r3, [r3, #0]
 80043b0:	f3c2 0208 	ubfx	r2, r2, #0, #9
 80043b4:	605a      	str	r2, [r3, #4]
      huart->pTxBuffPtr += 2U;
 80043b6:	687b      	ldr	r3, [r7, #4]
 80043b8:	6a1b      	ldr	r3, [r3, #32]
 80043ba:	1c9a      	adds	r2, r3, #2
 80043bc:	687b      	ldr	r3, [r7, #4]
 80043be:	621a      	str	r2, [r3, #32]
 80043c0:	e008      	b.n	80043d4 <UART_Transmit_IT+0x5a>
    }
    else
    {
      huart->Instance->DR = (uint8_t)(*huart->pTxBuffPtr++ & (uint8_t)0x00FF);
 80043c2:	687b      	ldr	r3, [r7, #4]
 80043c4:	6a1b      	ldr	r3, [r3, #32]
 80043c6:	1c59      	adds	r1, r3, #1
 80043c8:	687a      	ldr	r2, [r7, #4]
 80043ca:	6211      	str	r1, [r2, #32]
 80043cc:	781a      	ldrb	r2, [r3, #0]
 80043ce:	687b      	ldr	r3, [r7, #4]
 80043d0:	681b      	ldr	r3, [r3, #0]
 80043d2:	605a      	str	r2, [r3, #4]
    }

    if (--huart->TxXferCount == 0U)
 80043d4:	687b      	ldr	r3, [r7, #4]
 80043d6:	8cdb      	ldrh	r3, [r3, #38]	; 0x26
 80043d8:	b29b      	uxth	r3, r3
 80043da:	3b01      	subs	r3, #1
 80043dc:	b29b      	uxth	r3, r3
 80043de:	687a      	ldr	r2, [r7, #4]
 80043e0:	4619      	mov	r1, r3
 80043e2:	84d1      	strh	r1, [r2, #38]	; 0x26
 80043e4:	2b00      	cmp	r3, #0
 80043e6:	d10f      	bne.n	8004408 <UART_Transmit_IT+0x8e>
    {
      /* Disable the UART Transmit Complete Interrupt */
      __HAL_UART_DISABLE_IT(huart, UART_IT_TXE);
 80043e8:	687b      	ldr	r3, [r7, #4]
 80043ea:	681b      	ldr	r3, [r3, #0]
 80043ec:	68da      	ldr	r2, [r3, #12]
 80043ee:	687b      	ldr	r3, [r7, #4]
 80043f0:	681b      	ldr	r3, [r3, #0]
 80043f2:	f022 0280 	bic.w	r2, r2, #128	; 0x80
 80043f6:	60da      	str	r2, [r3, #12]

      /* Enable the UART Transmit Complete Interrupt */
      __HAL_UART_ENABLE_IT(huart, UART_IT_TC);
 80043f8:	687b      	ldr	r3, [r7, #4]
 80043fa:	681b      	ldr	r3, [r3, #0]
 80043fc:	68da      	ldr	r2, [r3, #12]
 80043fe:	687b      	ldr	r3, [r7, #4]
 8004400:	681b      	ldr	r3, [r3, #0]
 8004402:	f042 0240 	orr.w	r2, r2, #64	; 0x40
 8004406:	60da      	str	r2, [r3, #12]
    }
    return HAL_OK;
 8004408:	2300      	movs	r3, #0
 800440a:	e000      	b.n	800440e <UART_Transmit_IT+0x94>
  }
  else
  {
    return HAL_BUSY;
 800440c:	2302      	movs	r3, #2
  }
}
 800440e:	4618      	mov	r0, r3
 8004410:	3714      	adds	r7, #20
 8004412:	46bd      	mov	sp, r7
 8004414:	f85d 7b04 	ldr.w	r7, [sp], #4
 8004418:	4770      	bx	lr

0800441a <UART_EndTransmit_IT>:
  * @param  huart  Pointer to a UART_HandleTypeDef structure that contains
  *                the configuration information for the specified UART module.
  * @retval HAL status
  */
static HAL_StatusTypeDef UART_EndTransmit_IT(UART_HandleTypeDef *huart)
{
 800441a:	b580      	push	{r7, lr}
 800441c:	b082      	sub	sp, #8
 800441e:	af00      	add	r7, sp, #0
 8004420:	6078      	str	r0, [r7, #4]
  /* Disable the UART Transmit Complete Interrupt */
  __HAL_UART_DISABLE_IT(huart, UART_IT_TC);
 8004422:	687b      	ldr	r3, [r7, #4]
 8004424:	681b      	ldr	r3, [r3, #0]
 8004426:	68da      	ldr	r2, [r3, #12]
 8004428:	687b      	ldr	r3, [r7, #4]
 800442a:	681b      	ldr	r3, [r3, #0]
 800442c:	f022 0240 	bic.w	r2, r2, #64	; 0x40
 8004430:	60da      	str	r2, [r3, #12]

  /* Tx process is ended, restore huart->gState to Ready */
  huart->gState = HAL_UART_STATE_READY;
 8004432:	687b      	ldr	r3, [r7, #4]
 8004434:	2220      	movs	r2, #32
 8004436:	f883 203d 	strb.w	r2, [r3, #61]	; 0x3d
#if (USE_HAL_UART_REGISTER_CALLBACKS == 1)
  /*Call registered Tx complete callback*/
  huart->TxCpltCallback(huart);
#else
  /*Call legacy weak Tx complete callback*/
  HAL_UART_TxCpltCallback(huart);
 800443a:	6878      	ldr	r0, [r7, #4]
 800443c:	f7ff fee8 	bl	8004210 <HAL_UART_TxCpltCallback>
#endif /* USE_HAL_UART_REGISTER_CALLBACKS */

  return HAL_OK;
 8004440:	2300      	movs	r3, #0
}
 8004442:	4618      	mov	r0, r3
 8004444:	3708      	adds	r7, #8
 8004446:	46bd      	mov	sp, r7
 8004448:	bd80      	pop	{r7, pc}

0800444a <UART_Receive_IT>:
  * @param  huart  Pointer to a UART_HandleTypeDef structure that contains
  *                the configuration information for the specified UART module.
  * @retval HAL status
  */
static HAL_StatusTypeDef UART_Receive_IT(UART_HandleTypeDef *huart)
{
 800444a:	b580      	push	{r7, lr}
 800444c:	b084      	sub	sp, #16
 800444e:	af00      	add	r7, sp, #0
 8004450:	6078      	str	r0, [r7, #4]
  uint8_t  *pdata8bits;
  uint16_t *pdata16bits;

  /* Check that a Rx process is ongoing */
  if (huart->RxState == HAL_UART_STATE_BUSY_RX)
 8004452:	687b      	ldr	r3, [r7, #4]
 8004454:	f893 303e 	ldrb.w	r3, [r3, #62]	; 0x3e
 8004458:	b2db      	uxtb	r3, r3
 800445a:	2b22      	cmp	r3, #34	; 0x22
 800445c:	f040 8087 	bne.w	800456e <UART_Receive_IT+0x124>
  {
    if ((huart->Init.WordLength == UART_WORDLENGTH_9B) && (huart->Init.Parity == UART_PARITY_NONE))
 8004460:	687b      	ldr	r3, [r7, #4]
 8004462:	689b      	ldr	r3, [r3, #8]
 8004464:	f5b3 5f80 	cmp.w	r3, #4096	; 0x1000
 8004468:	d117      	bne.n	800449a <UART_Receive_IT+0x50>
 800446a:	687b      	ldr	r3, [r7, #4]
 800446c:	691b      	ldr	r3, [r3, #16]
 800446e:	2b00      	cmp	r3, #0
 8004470:	d113      	bne.n	800449a <UART_Receive_IT+0x50>
    {
      pdata8bits  = NULL;
 8004472:	2300      	movs	r3, #0
 8004474:	60fb      	str	r3, [r7, #12]
      pdata16bits = (uint16_t *) huart->pRxBuffPtr;
 8004476:	687b      	ldr	r3, [r7, #4]
 8004478:	6a9b      	ldr	r3, [r3, #40]	; 0x28
 800447a:	60bb      	str	r3, [r7, #8]
      *pdata16bits = (uint16_t)(huart->Instance->DR & (uint16_t)0x01FF);
 800447c:	687b      	ldr	r3, [r7, #4]
 800447e:	681b      	ldr	r3, [r3, #0]
 8004480:	685b      	ldr	r3, [r3, #4]
 8004482:	b29b      	uxth	r3, r3
 8004484:	f3c3 0308 	ubfx	r3, r3, #0, #9
 8004488:	b29a      	uxth	r2, r3
 800448a:	68bb      	ldr	r3, [r7, #8]
 800448c:	801a      	strh	r2, [r3, #0]
      huart->pRxBuffPtr += 2U;
 800448e:	687b      	ldr	r3, [r7, #4]
 8004490:	6a9b      	ldr	r3, [r3, #40]	; 0x28
 8004492:	1c9a      	adds	r2, r3, #2
 8004494:	687b      	ldr	r3, [r7, #4]
 8004496:	629a      	str	r2, [r3, #40]	; 0x28
 8004498:	e026      	b.n	80044e8 <UART_Receive_IT+0x9e>
    }
    else
    {
      pdata8bits = (uint8_t *) huart->pRxBuffPtr;
 800449a:	687b      	ldr	r3, [r7, #4]
 800449c:	6a9b      	ldr	r3, [r3, #40]	; 0x28
 800449e:	60fb      	str	r3, [r7, #12]
      pdata16bits  = NULL;
 80044a0:	2300      	movs	r3, #0
 80044a2:	60bb      	str	r3, [r7, #8]

      if ((huart->Init.WordLength == UART_WORDLENGTH_9B) || ((huart->Init.WordLength == UART_WORDLENGTH_8B) && (huart->Init.Parity == UART_PARITY_NONE)))
 80044a4:	687b      	ldr	r3, [r7, #4]
 80044a6:	689b      	ldr	r3, [r3, #8]
 80044a8:	f5b3 5f80 	cmp.w	r3, #4096	; 0x1000
 80044ac:	d007      	beq.n	80044be <UART_Receive_IT+0x74>
 80044ae:	687b      	ldr	r3, [r7, #4]
 80044b0:	689b      	ldr	r3, [r3, #8]
 80044b2:	2b00      	cmp	r3, #0
 80044b4:	d10a      	bne.n	80044cc <UART_Receive_IT+0x82>
 80044b6:	687b      	ldr	r3, [r7, #4]
 80044b8:	691b      	ldr	r3, [r3, #16]
 80044ba:	2b00      	cmp	r3, #0
 80044bc:	d106      	bne.n	80044cc <UART_Receive_IT+0x82>
      {
        *pdata8bits = (uint8_t)(huart->Instance->DR & (uint8_t)0x00FF);
 80044be:	687b      	ldr	r3, [r7, #4]
 80044c0:	681b      	ldr	r3, [r3, #0]
 80044c2:	685b      	ldr	r3, [r3, #4]
 80044c4:	b2da      	uxtb	r2, r3
 80044c6:	68fb      	ldr	r3, [r7, #12]
 80044c8:	701a      	strb	r2, [r3, #0]
 80044ca:	e008      	b.n	80044de <UART_Receive_IT+0x94>
      }
      else
      {
        *pdata8bits = (uint8_t)(huart->Instance->DR & (uint8_t)0x007F);
 80044cc:	687b      	ldr	r3, [r7, #4]
 80044ce:	681b      	ldr	r3, [r3, #0]
 80044d0:	685b      	ldr	r3, [r3, #4]
 80044d2:	b2db      	uxtb	r3, r3
 80044d4:	f003 037f 	and.w	r3, r3, #127	; 0x7f
 80044d8:	b2da      	uxtb	r2, r3
 80044da:	68fb      	ldr	r3, [r7, #12]
 80044dc:	701a      	strb	r2, [r3, #0]
      }
      huart->pRxBuffPtr += 1U;
 80044de:	687b      	ldr	r3, [r7, #4]
 80044e0:	6a9b      	ldr	r3, [r3, #40]	; 0x28
 80044e2:	1c5a      	adds	r2, r3, #1
 80044e4:	687b      	ldr	r3, [r7, #4]
 80044e6:	629a      	str	r2, [r3, #40]	; 0x28
    }

    if (--huart->RxXferCount == 0U)
 80044e8:	687b      	ldr	r3, [r7, #4]
 80044ea:	8ddb      	ldrh	r3, [r3, #46]	; 0x2e
 80044ec:	b29b      	uxth	r3, r3
 80044ee:	3b01      	subs	r3, #1
 80044f0:	b29b      	uxth	r3, r3
 80044f2:	687a      	ldr	r2, [r7, #4]
 80044f4:	4619      	mov	r1, r3
 80044f6:	85d1      	strh	r1, [r2, #46]	; 0x2e
 80044f8:	2b00      	cmp	r3, #0
 80044fa:	d136      	bne.n	800456a <UART_Receive_IT+0x120>
    {
      /* Disable the UART Data Register not empty Interrupt */
      __HAL_UART_DISABLE_IT(huart, UART_IT_RXNE);
 80044fc:	687b      	ldr	r3, [r7, #4]
 80044fe:	681b      	ldr	r3, [r3, #0]
 8004500:	68da      	ldr	r2, [r3, #12]
 8004502:	687b      	ldr	r3, [r7, #4]
 8004504:	681b      	ldr	r3, [r3, #0]
 8004506:	f022 0220 	bic.w	r2, r2, #32
 800450a:	60da      	str	r2, [r3, #12]

      /* Disable the UART Parity Error Interrupt */
      __HAL_UART_DISABLE_IT(huart, UART_IT_PE);
 800450c:	687b      	ldr	r3, [r7, #4]
 800450e:	681b      	ldr	r3, [r3, #0]
 8004510:	68da      	ldr	r2, [r3, #12]
 8004512:	687b      	ldr	r3, [r7, #4]
 8004514:	681b      	ldr	r3, [r3, #0]
 8004516:	f422 7280 	bic.w	r2, r2, #256	; 0x100
 800451a:	60da      	str	r2, [r3, #12]

      /* Disable the UART Error Interrupt: (Frame error, noise error, overrun error) */
      __HAL_UART_DISABLE_IT(huart, UART_IT_ERR);
 800451c:	687b      	ldr	r3, [r7, #4]
 800451e:	681b      	ldr	r3, [r3, #0]
 8004520:	695a      	ldr	r2, [r3, #20]
 8004522:	687b      	ldr	r3, [r7, #4]
 8004524:	681b      	ldr	r3, [r3, #0]
 8004526:	f022 0201 	bic.w	r2, r2, #1
 800452a:	615a      	str	r2, [r3, #20]

      /* Rx process is completed, restore huart->RxState to Ready */
      huart->RxState = HAL_UART_STATE_READY;
 800452c:	687b      	ldr	r3, [r7, #4]
 800452e:	2220      	movs	r2, #32
 8004530:	f883 203e 	strb.w	r2, [r3, #62]	; 0x3e

      /* Check current reception Mode :
         If Reception till IDLE event has been selected : */
      if (huart->ReceptionType == HAL_UART_RECEPTION_TOIDLE)
 8004534:	687b      	ldr	r3, [r7, #4]
 8004536:	6b1b      	ldr	r3, [r3, #48]	; 0x30
 8004538:	2b01      	cmp	r3, #1
 800453a:	d10e      	bne.n	800455a <UART_Receive_IT+0x110>
      {
        /* Disable IDLE interrupt */
        CLEAR_BIT(huart->Instance->CR1, USART_CR1_IDLEIE);
 800453c:	687b      	ldr	r3, [r7, #4]
 800453e:	681b      	ldr	r3, [r3, #0]
 8004540:	68da      	ldr	r2, [r3, #12]
 8004542:	687b      	ldr	r3, [r7, #4]
 8004544:	681b      	ldr	r3, [r3, #0]
 8004546:	f022 0210 	bic.w	r2, r2, #16
 800454a:	60da      	str	r2, [r3, #12]
#if (USE_HAL_UART_REGISTER_CALLBACKS == 1)
        /*Call registered Rx Event callback*/
        huart->RxEventCallback(huart, huart->RxXferSize);
#else
        /*Call legacy weak Rx Event callback*/
        HAL_UARTEx_RxEventCallback(huart, huart->RxXferSize);
 800454c:	687b      	ldr	r3, [r7, #4]
 800454e:	8d9b      	ldrh	r3, [r3, #44]	; 0x2c
 8004550:	4619      	mov	r1, r3
 8004552:	6878      	ldr	r0, [r7, #4]
 8004554:	f7ff fe7a 	bl	800424c <HAL_UARTEx_RxEventCallback>
 8004558:	e002      	b.n	8004560 <UART_Receive_IT+0x116>
#if (USE_HAL_UART_REGISTER_CALLBACKS == 1)		  
       /*Call registered Rx complete callback*/
       huart->RxCpltCallback(huart);
#else
       /*Call legacy weak Rx complete callback*/
       HAL_UART_RxCpltCallback(huart);
 800455a:	6878      	ldr	r0, [r7, #4]
 800455c:	f7ff fe62 	bl	8004224 <HAL_UART_RxCpltCallback>
#endif /* USE_HAL_UART_REGISTER_CALLBACKS */
      }
      huart->ReceptionType = HAL_UART_RECEPTION_STANDARD;
 8004560:	687b      	ldr	r3, [r7, #4]
 8004562:	2200      	movs	r2, #0
 8004564:	631a      	str	r2, [r3, #48]	; 0x30
      return HAL_OK;
 8004566:	2300      	movs	r3, #0
 8004568:	e002      	b.n	8004570 <UART_Receive_IT+0x126>
    }
    return HAL_OK;
 800456a:	2300      	movs	r3, #0
 800456c:	e000      	b.n	8004570 <UART_Receive_IT+0x126>
  }
  else
  {
    return HAL_BUSY;
 800456e:	2302      	movs	r3, #2
  }
}
 8004570:	4618      	mov	r0, r3
 8004572:	3710      	adds	r7, #16
 8004574:	46bd      	mov	sp, r7
 8004576:	bd80      	pop	{r7, pc}

08004578 <UART_SetConfig>:
  * @param  huart  Pointer to a UART_HandleTypeDef structure that contains
  *                the configuration information for the specified UART module.
  * @retval None
  */
static void UART_SetConfig(UART_HandleTypeDef *huart)
{
 8004578:	e92d 4ff0 	stmdb	sp!, {r4, r5, r6, r7, r8, r9, sl, fp, lr}
 800457c:	b09f      	sub	sp, #124	; 0x7c
 800457e:	af00      	add	r7, sp, #0
 8004580:	66f8      	str	r0, [r7, #108]	; 0x6c
  assert_param(IS_UART_MODE(huart->Init.Mode));

  /*-------------------------- USART CR2 Configuration -----------------------*/
  /* Configure the UART Stop Bits: Set STOP[13:12] bits
     according to huart->Init.StopBits value */
  MODIFY_REG(huart->Instance->CR2, USART_CR2_STOP, huart->Init.StopBits);
 8004582:	6efb      	ldr	r3, [r7, #108]	; 0x6c
 8004584:	681b      	ldr	r3, [r3, #0]
 8004586:	691b      	ldr	r3, [r3, #16]
 8004588:	f423 5040 	bic.w	r0, r3, #12288	; 0x3000
 800458c:	6efb      	ldr	r3, [r7, #108]	; 0x6c
 800458e:	68d9      	ldr	r1, [r3, #12]
 8004590:	6efb      	ldr	r3, [r7, #108]	; 0x6c
 8004592:	681a      	ldr	r2, [r3, #0]
 8004594:	ea40 0301 	orr.w	r3, r0, r1
 8004598:	6113      	str	r3, [r2, #16]
     Set the M bits according to huart->Init.WordLength value
     Set PCE and PS bits according to huart->Init.Parity value
     Set TE and RE bits according to huart->Init.Mode value
     Set OVER8 bit according to huart->Init.OverSampling value */

  tmpreg = (uint32_t)huart->Init.WordLength | huart->Init.Parity | huart->Init.Mode | huart->Init.OverSampling;
 800459a:	6efb      	ldr	r3, [r7, #108]	; 0x6c
 800459c:	689a      	ldr	r2, [r3, #8]
 800459e:	6efb      	ldr	r3, [r7, #108]	; 0x6c
 80045a0:	691b      	ldr	r3, [r3, #16]
 80045a2:	431a      	orrs	r2, r3
 80045a4:	6efb      	ldr	r3, [r7, #108]	; 0x6c
 80045a6:	695b      	ldr	r3, [r3, #20]
 80045a8:	431a      	orrs	r2, r3
 80045aa:	6efb      	ldr	r3, [r7, #108]	; 0x6c
 80045ac:	69db      	ldr	r3, [r3, #28]
 80045ae:	4313      	orrs	r3, r2
 80045b0:	673b      	str	r3, [r7, #112]	; 0x70
  MODIFY_REG(huart->Instance->CR1,
 80045b2:	6efb      	ldr	r3, [r7, #108]	; 0x6c
 80045b4:	681b      	ldr	r3, [r3, #0]
 80045b6:	68db      	ldr	r3, [r3, #12]
 80045b8:	f423 4116 	bic.w	r1, r3, #38400	; 0x9600
 80045bc:	f021 010c 	bic.w	r1, r1, #12
 80045c0:	6efb      	ldr	r3, [r7, #108]	; 0x6c
 80045c2:	681a      	ldr	r2, [r3, #0]
 80045c4:	6f3b      	ldr	r3, [r7, #112]	; 0x70
 80045c6:	430b      	orrs	r3, r1
 80045c8:	60d3      	str	r3, [r2, #12]
             (uint32_t)(USART_CR1_M | USART_CR1_PCE | USART_CR1_PS | USART_CR1_TE | USART_CR1_RE | USART_CR1_OVER8),
             tmpreg);

  /*-------------------------- USART CR3 Configuration -----------------------*/
  /* Configure the UART HFC: Set CTSE and RTSE bits according to huart->Init.HwFlowCtl value */
  MODIFY_REG(huart->Instance->CR3, (USART_CR3_RTSE | USART_CR3_CTSE), huart->Init.HwFlowCtl);
 80045ca:	6efb      	ldr	r3, [r7, #108]	; 0x6c
 80045cc:	681b      	ldr	r3, [r3, #0]
 80045ce:	695b      	ldr	r3, [r3, #20]
 80045d0:	f423 7040 	bic.w	r0, r3, #768	; 0x300
 80045d4:	6efb      	ldr	r3, [r7, #108]	; 0x6c
 80045d6:	6999      	ldr	r1, [r3, #24]
 80045d8:	6efb      	ldr	r3, [r7, #108]	; 0x6c
 80045da:	681a      	ldr	r2, [r3, #0]
 80045dc:	ea40 0301 	orr.w	r3, r0, r1
 80045e0:	6153      	str	r3, [r2, #20]
    if ((huart->Instance == USART1) || (huart->Instance == USART6) || (huart->Instance == UART9) || (huart->Instance == UART10))
    {
      pclk = HAL_RCC_GetPCLK2Freq();
    }
#elif defined(USART6)
    if ((huart->Instance == USART1) || (huart->Instance == USART6))
 80045e2:	6efb      	ldr	r3, [r7, #108]	; 0x6c
 80045e4:	681a      	ldr	r2, [r3, #0]
 80045e6:	4bc5      	ldr	r3, [pc, #788]	; (80048fc <UART_SetConfig+0x384>)
 80045e8:	429a      	cmp	r2, r3
 80045ea:	d004      	beq.n	80045f6 <UART_SetConfig+0x7e>
 80045ec:	6efb      	ldr	r3, [r7, #108]	; 0x6c
 80045ee:	681a      	ldr	r2, [r3, #0]
 80045f0:	4bc3      	ldr	r3, [pc, #780]	; (8004900 <UART_SetConfig+0x388>)
 80045f2:	429a      	cmp	r2, r3
 80045f4:	d103      	bne.n	80045fe <UART_SetConfig+0x86>
    {
      pclk = HAL_RCC_GetPCLK2Freq();
 80045f6:	f7fe fc0f 	bl	8002e18 <HAL_RCC_GetPCLK2Freq>
 80045fa:	6778      	str	r0, [r7, #116]	; 0x74
 80045fc:	e002      	b.n	8004604 <UART_SetConfig+0x8c>
      pclk = HAL_RCC_GetPCLK2Freq();
    }
#endif /* USART6 */
    else
    {
      pclk = HAL_RCC_GetPCLK1Freq();
 80045fe:	f7fe fbf7 	bl	8002df0 <HAL_RCC_GetPCLK1Freq>
 8004602:	6778      	str	r0, [r7, #116]	; 0x74
    }
  /*-------------------------- USART BRR Configuration ---------------------*/
  if (huart->Init.OverSampling == UART_OVERSAMPLING_8)
 8004604:	6efb      	ldr	r3, [r7, #108]	; 0x6c
 8004606:	69db      	ldr	r3, [r3, #28]
 8004608:	f5b3 4f00 	cmp.w	r3, #32768	; 0x8000
 800460c:	f040 80b6 	bne.w	800477c <UART_SetConfig+0x204>
  {
    huart->Instance->BRR = UART_BRR_SAMPLING8(pclk, huart->Init.BaudRate);
 8004610:	6f7b      	ldr	r3, [r7, #116]	; 0x74
 8004612:	461c      	mov	r4, r3
 8004614:	f04f 0500 	mov.w	r5, #0
 8004618:	4622      	mov	r2, r4
 800461a:	462b      	mov	r3, r5
 800461c:	1891      	adds	r1, r2, r2
 800461e:	6439      	str	r1, [r7, #64]	; 0x40
 8004620:	415b      	adcs	r3, r3
 8004622:	647b      	str	r3, [r7, #68]	; 0x44
 8004624:	e9d7 2310 	ldrd	r2, r3, [r7, #64]	; 0x40
 8004628:	1912      	adds	r2, r2, r4
 800462a:	eb45 0303 	adc.w	r3, r5, r3
 800462e:	f04f 0000 	mov.w	r0, #0
 8004632:	f04f 0100 	mov.w	r1, #0
 8004636:	00d9      	lsls	r1, r3, #3
 8004638:	ea41 7152 	orr.w	r1, r1, r2, lsr #29
 800463c:	00d0      	lsls	r0, r2, #3
 800463e:	4602      	mov	r2, r0
 8004640:	460b      	mov	r3, r1
 8004642:	1911      	adds	r1, r2, r4
 8004644:	6639      	str	r1, [r7, #96]	; 0x60
 8004646:	416b      	adcs	r3, r5
 8004648:	667b      	str	r3, [r7, #100]	; 0x64
 800464a:	6efb      	ldr	r3, [r7, #108]	; 0x6c
 800464c:	685b      	ldr	r3, [r3, #4]
 800464e:	461a      	mov	r2, r3
 8004650:	f04f 0300 	mov.w	r3, #0
 8004654:	1891      	adds	r1, r2, r2
 8004656:	63b9      	str	r1, [r7, #56]	; 0x38
 8004658:	415b      	adcs	r3, r3
 800465a:	63fb      	str	r3, [r7, #60]	; 0x3c
 800465c:	e9d7 230e 	ldrd	r2, r3, [r7, #56]	; 0x38
 8004660:	e9d7 0118 	ldrd	r0, r1, [r7, #96]	; 0x60
 8004664:	f7fb ffe8 	bl	8000638 <__aeabi_uldivmod>
 8004668:	4602      	mov	r2, r0
 800466a:	460b      	mov	r3, r1
 800466c:	4ba5      	ldr	r3, [pc, #660]	; (8004904 <UART_SetConfig+0x38c>)
 800466e:	fba3 2302 	umull	r2, r3, r3, r2
 8004672:	095b      	lsrs	r3, r3, #5
 8004674:	011e      	lsls	r6, r3, #4
 8004676:	6f7b      	ldr	r3, [r7, #116]	; 0x74
 8004678:	461c      	mov	r4, r3
 800467a:	f04f 0500 	mov.w	r5, #0
 800467e:	4622      	mov	r2, r4
 8004680:	462b      	mov	r3, r5
 8004682:	1891      	adds	r1, r2, r2
 8004684:	6339      	str	r1, [r7, #48]	; 0x30
 8004686:	415b      	adcs	r3, r3
 8004688:	637b      	str	r3, [r7, #52]	; 0x34
 800468a:	e9d7 230c 	ldrd	r2, r3, [r7, #48]	; 0x30
 800468e:	1912      	adds	r2, r2, r4
 8004690:	eb45 0303 	adc.w	r3, r5, r3
 8004694:	f04f 0000 	mov.w	r0, #0
 8004698:	f04f 0100 	mov.w	r1, #0
 800469c:	00d9      	lsls	r1, r3, #3
 800469e:	ea41 7152 	orr.w	r1, r1, r2, lsr #29
 80046a2:	00d0      	lsls	r0, r2, #3
 80046a4:	4602      	mov	r2, r0
 80046a6:	460b      	mov	r3, r1
 80046a8:	1911      	adds	r1, r2, r4
 80046aa:	65b9      	str	r1, [r7, #88]	; 0x58
 80046ac:	416b      	adcs	r3, r5
 80046ae:	65fb      	str	r3, [r7, #92]	; 0x5c
 80046b0:	6efb      	ldr	r3, [r7, #108]	; 0x6c
 80046b2:	685b      	ldr	r3, [r3, #4]
 80046b4:	461a      	mov	r2, r3
 80046b6:	f04f 0300 	mov.w	r3, #0
 80046ba:	1891      	adds	r1, r2, r2
 80046bc:	62b9      	str	r1, [r7, #40]	; 0x28
 80046be:	415b      	adcs	r3, r3
 80046c0:	62fb      	str	r3, [r7, #44]	; 0x2c
 80046c2:	e9d7 230a 	ldrd	r2, r3, [r7, #40]	; 0x28
 80046c6:	e9d7 0116 	ldrd	r0, r1, [r7, #88]	; 0x58
 80046ca:	f7fb ffb5 	bl	8000638 <__aeabi_uldivmod>
 80046ce:	4602      	mov	r2, r0
 80046d0:	460b      	mov	r3, r1
 80046d2:	4b8c      	ldr	r3, [pc, #560]	; (8004904 <UART_SetConfig+0x38c>)
 80046d4:	fba3 1302 	umull	r1, r3, r3, r2
 80046d8:	095b      	lsrs	r3, r3, #5
 80046da:	2164      	movs	r1, #100	; 0x64
 80046dc:	fb01 f303 	mul.w	r3, r1, r3
 80046e0:	1ad3      	subs	r3, r2, r3
 80046e2:	00db      	lsls	r3, r3, #3
 80046e4:	3332      	adds	r3, #50	; 0x32
 80046e6:	4a87      	ldr	r2, [pc, #540]	; (8004904 <UART_SetConfig+0x38c>)
 80046e8:	fba2 2303 	umull	r2, r3, r2, r3
 80046ec:	095b      	lsrs	r3, r3, #5
 80046ee:	005b      	lsls	r3, r3, #1
 80046f0:	f403 73f8 	and.w	r3, r3, #496	; 0x1f0
 80046f4:	441e      	add	r6, r3
 80046f6:	6f7b      	ldr	r3, [r7, #116]	; 0x74
 80046f8:	4618      	mov	r0, r3
 80046fa:	f04f 0100 	mov.w	r1, #0
 80046fe:	4602      	mov	r2, r0
 8004700:	460b      	mov	r3, r1
 8004702:	1894      	adds	r4, r2, r2
 8004704:	623c      	str	r4, [r7, #32]
 8004706:	415b      	adcs	r3, r3
 8004708:	627b      	str	r3, [r7, #36]	; 0x24
 800470a:	e9d7 2308 	ldrd	r2, r3, [r7, #32]
 800470e:	1812      	adds	r2, r2, r0
 8004710:	eb41 0303 	adc.w	r3, r1, r3
 8004714:	f04f 0400 	mov.w	r4, #0
 8004718:	f04f 0500 	mov.w	r5, #0
 800471c:	00dd      	lsls	r5, r3, #3
 800471e:	ea45 7552 	orr.w	r5, r5, r2, lsr #29
 8004722:	00d4      	lsls	r4, r2, #3
 8004724:	4622      	mov	r2, r4
 8004726:	462b      	mov	r3, r5
 8004728:	1814      	adds	r4, r2, r0
 800472a:	653c      	str	r4, [r7, #80]	; 0x50
 800472c:	414b      	adcs	r3, r1
 800472e:	657b      	str	r3, [r7, #84]	; 0x54
 8004730:	6efb      	ldr	r3, [r7, #108]	; 0x6c
 8004732:	685b      	ldr	r3, [r3, #4]
 8004734:	461a      	mov	r2, r3
 8004736:	f04f 0300 	mov.w	r3, #0
 800473a:	1891      	adds	r1, r2, r2
 800473c:	61b9      	str	r1, [r7, #24]
 800473e:	415b      	adcs	r3, r3
 8004740:	61fb      	str	r3, [r7, #28]
 8004742:	e9d7 2306 	ldrd	r2, r3, [r7, #24]
 8004746:	e9d7 0114 	ldrd	r0, r1, [r7, #80]	; 0x50
 800474a:	f7fb ff75 	bl	8000638 <__aeabi_uldivmod>
 800474e:	4602      	mov	r2, r0
 8004750:	460b      	mov	r3, r1
 8004752:	4b6c      	ldr	r3, [pc, #432]	; (8004904 <UART_SetConfig+0x38c>)
 8004754:	fba3 1302 	umull	r1, r3, r3, r2
 8004758:	095b      	lsrs	r3, r3, #5
 800475a:	2164      	movs	r1, #100	; 0x64
 800475c:	fb01 f303 	mul.w	r3, r1, r3
 8004760:	1ad3      	subs	r3, r2, r3
 8004762:	00db      	lsls	r3, r3, #3
 8004764:	3332      	adds	r3, #50	; 0x32
 8004766:	4a67      	ldr	r2, [pc, #412]	; (8004904 <UART_SetConfig+0x38c>)
 8004768:	fba2 2303 	umull	r2, r3, r2, r3
 800476c:	095b      	lsrs	r3, r3, #5
 800476e:	f003 0207 	and.w	r2, r3, #7
 8004772:	6efb      	ldr	r3, [r7, #108]	; 0x6c
 8004774:	681b      	ldr	r3, [r3, #0]
 8004776:	4432      	add	r2, r6
 8004778:	609a      	str	r2, [r3, #8]
  }
  else
  {
    huart->Instance->BRR = UART_BRR_SAMPLING16(pclk, huart->Init.BaudRate);
  }
}
 800477a:	e0b9      	b.n	80048f0 <UART_SetConfig+0x378>
    huart->Instance->BRR = UART_BRR_SAMPLING16(pclk, huart->Init.BaudRate);
 800477c:	6f7b      	ldr	r3, [r7, #116]	; 0x74
 800477e:	461c      	mov	r4, r3
 8004780:	f04f 0500 	mov.w	r5, #0
 8004784:	4622      	mov	r2, r4
 8004786:	462b      	mov	r3, r5
 8004788:	1891      	adds	r1, r2, r2
 800478a:	6139      	str	r1, [r7, #16]
 800478c:	415b      	adcs	r3, r3
 800478e:	617b      	str	r3, [r7, #20]
 8004790:	e9d7 2304 	ldrd	r2, r3, [r7, #16]
 8004794:	1912      	adds	r2, r2, r4
 8004796:	eb45 0303 	adc.w	r3, r5, r3
 800479a:	f04f 0000 	mov.w	r0, #0
 800479e:	f04f 0100 	mov.w	r1, #0
 80047a2:	00d9      	lsls	r1, r3, #3
 80047a4:	ea41 7152 	orr.w	r1, r1, r2, lsr #29
 80047a8:	00d0      	lsls	r0, r2, #3
 80047aa:	4602      	mov	r2, r0
 80047ac:	460b      	mov	r3, r1
 80047ae:	eb12 0804 	adds.w	r8, r2, r4
 80047b2:	eb43 0905 	adc.w	r9, r3, r5
 80047b6:	6efb      	ldr	r3, [r7, #108]	; 0x6c
 80047b8:	685b      	ldr	r3, [r3, #4]
 80047ba:	4618      	mov	r0, r3
 80047bc:	f04f 0100 	mov.w	r1, #0
 80047c0:	f04f 0200 	mov.w	r2, #0
 80047c4:	f04f 0300 	mov.w	r3, #0
 80047c8:	008b      	lsls	r3, r1, #2
 80047ca:	ea43 7390 	orr.w	r3, r3, r0, lsr #30
 80047ce:	0082      	lsls	r2, r0, #2
 80047d0:	4640      	mov	r0, r8
 80047d2:	4649      	mov	r1, r9
 80047d4:	f7fb ff30 	bl	8000638 <__aeabi_uldivmod>
 80047d8:	4602      	mov	r2, r0
 80047da:	460b      	mov	r3, r1
 80047dc:	4b49      	ldr	r3, [pc, #292]	; (8004904 <UART_SetConfig+0x38c>)
 80047de:	fba3 2302 	umull	r2, r3, r3, r2
 80047e2:	095b      	lsrs	r3, r3, #5
 80047e4:	011e      	lsls	r6, r3, #4
 80047e6:	6f7b      	ldr	r3, [r7, #116]	; 0x74
 80047e8:	4618      	mov	r0, r3
 80047ea:	f04f 0100 	mov.w	r1, #0
 80047ee:	4602      	mov	r2, r0
 80047f0:	460b      	mov	r3, r1
 80047f2:	1894      	adds	r4, r2, r2
 80047f4:	60bc      	str	r4, [r7, #8]
 80047f6:	415b      	adcs	r3, r3
 80047f8:	60fb      	str	r3, [r7, #12]
 80047fa:	e9d7 2302 	ldrd	r2, r3, [r7, #8]
 80047fe:	1812      	adds	r2, r2, r0
 8004800:	eb41 0303 	adc.w	r3, r1, r3
 8004804:	f04f 0400 	mov.w	r4, #0
 8004808:	f04f 0500 	mov.w	r5, #0
 800480c:	00dd      	lsls	r5, r3, #3
 800480e:	ea45 7552 	orr.w	r5, r5, r2, lsr #29
 8004812:	00d4      	lsls	r4, r2, #3
 8004814:	4622      	mov	r2, r4
 8004816:	462b      	mov	r3, r5
 8004818:	1814      	adds	r4, r2, r0
 800481a:	64bc      	str	r4, [r7, #72]	; 0x48
 800481c:	414b      	adcs	r3, r1
 800481e:	64fb      	str	r3, [r7, #76]	; 0x4c
 8004820:	6efb      	ldr	r3, [r7, #108]	; 0x6c
 8004822:	685b      	ldr	r3, [r3, #4]
 8004824:	4618      	mov	r0, r3
 8004826:	f04f 0100 	mov.w	r1, #0
 800482a:	f04f 0200 	mov.w	r2, #0
 800482e:	f04f 0300 	mov.w	r3, #0
 8004832:	008b      	lsls	r3, r1, #2
 8004834:	ea43 7390 	orr.w	r3, r3, r0, lsr #30
 8004838:	0082      	lsls	r2, r0, #2
 800483a:	e9d7 0112 	ldrd	r0, r1, [r7, #72]	; 0x48
 800483e:	f7fb fefb 	bl	8000638 <__aeabi_uldivmod>
 8004842:	4602      	mov	r2, r0
 8004844:	460b      	mov	r3, r1
 8004846:	4b2f      	ldr	r3, [pc, #188]	; (8004904 <UART_SetConfig+0x38c>)
 8004848:	fba3 1302 	umull	r1, r3, r3, r2
 800484c:	095b      	lsrs	r3, r3, #5
 800484e:	2164      	movs	r1, #100	; 0x64
 8004850:	fb01 f303 	mul.w	r3, r1, r3
 8004854:	1ad3      	subs	r3, r2, r3
 8004856:	011b      	lsls	r3, r3, #4
 8004858:	3332      	adds	r3, #50	; 0x32
 800485a:	4a2a      	ldr	r2, [pc, #168]	; (8004904 <UART_SetConfig+0x38c>)
 800485c:	fba2 2303 	umull	r2, r3, r2, r3
 8004860:	095b      	lsrs	r3, r3, #5
 8004862:	f003 03f0 	and.w	r3, r3, #240	; 0xf0
 8004866:	441e      	add	r6, r3
 8004868:	6f7b      	ldr	r3, [r7, #116]	; 0x74
 800486a:	4618      	mov	r0, r3
 800486c:	f04f 0100 	mov.w	r1, #0
 8004870:	4602      	mov	r2, r0
 8004872:	460b      	mov	r3, r1
 8004874:	1894      	adds	r4, r2, r2
 8004876:	603c      	str	r4, [r7, #0]
 8004878:	415b      	adcs	r3, r3
 800487a:	607b      	str	r3, [r7, #4]
 800487c:	e9d7 2300 	ldrd	r2, r3, [r7]
 8004880:	1812      	adds	r2, r2, r0
 8004882:	eb41 0303 	adc.w	r3, r1, r3
 8004886:	f04f 0400 	mov.w	r4, #0
 800488a:	f04f 0500 	mov.w	r5, #0
 800488e:	00dd      	lsls	r5, r3, #3
 8004890:	ea45 7552 	orr.w	r5, r5, r2, lsr #29
 8004894:	00d4      	lsls	r4, r2, #3
 8004896:	4622      	mov	r2, r4
 8004898:	462b      	mov	r3, r5
 800489a:	eb12 0a00 	adds.w	sl, r2, r0
 800489e:	eb43 0b01 	adc.w	fp, r3, r1
 80048a2:	6efb      	ldr	r3, [r7, #108]	; 0x6c
 80048a4:	685b      	ldr	r3, [r3, #4]
 80048a6:	4618      	mov	r0, r3
 80048a8:	f04f 0100 	mov.w	r1, #0
 80048ac:	f04f 0200 	mov.w	r2, #0
 80048b0:	f04f 0300 	mov.w	r3, #0
 80048b4:	008b      	lsls	r3, r1, #2
 80048b6:	ea43 7390 	orr.w	r3, r3, r0, lsr #30
 80048ba:	0082      	lsls	r2, r0, #2
 80048bc:	4650      	mov	r0, sl
 80048be:	4659      	mov	r1, fp
 80048c0:	f7fb feba 	bl	8000638 <__aeabi_uldivmod>
 80048c4:	4602      	mov	r2, r0
 80048c6:	460b      	mov	r3, r1
 80048c8:	4b0e      	ldr	r3, [pc, #56]	; (8004904 <UART_SetConfig+0x38c>)
 80048ca:	fba3 1302 	umull	r1, r3, r3, r2
 80048ce:	095b      	lsrs	r3, r3, #5
 80048d0:	2164      	movs	r1, #100	; 0x64
 80048d2:	fb01 f303 	mul.w	r3, r1, r3
 80048d6:	1ad3      	subs	r3, r2, r3
 80048d8:	011b      	lsls	r3, r3, #4
 80048da:	3332      	adds	r3, #50	; 0x32
 80048dc:	4a09      	ldr	r2, [pc, #36]	; (8004904 <UART_SetConfig+0x38c>)
 80048de:	fba2 2303 	umull	r2, r3, r2, r3
 80048e2:	095b      	lsrs	r3, r3, #5
 80048e4:	f003 020f 	and.w	r2, r3, #15
 80048e8:	6efb      	ldr	r3, [r7, #108]	; 0x6c
 80048ea:	681b      	ldr	r3, [r3, #0]
 80048ec:	4432      	add	r2, r6
 80048ee:	609a      	str	r2, [r3, #8]
}
 80048f0:	bf00      	nop
 80048f2:	377c      	adds	r7, #124	; 0x7c
 80048f4:	46bd      	mov	sp, r7
 80048f6:	e8bd 8ff0 	ldmia.w	sp!, {r4, r5, r6, r7, r8, r9, sl, fp, pc}
 80048fa:	bf00      	nop
 80048fc:	40011000 	.word	0x40011000
 8004900:	40011400 	.word	0x40011400
 8004904:	51eb851f 	.word	0x51eb851f

08004908 <atoi>:
 8004908:	220a      	movs	r2, #10
 800490a:	2100      	movs	r1, #0
 800490c:	f000 b8e8 	b.w	8004ae0 <strtol>

08004910 <__errno>:
 8004910:	4b01      	ldr	r3, [pc, #4]	; (8004918 <__errno+0x8>)
 8004912:	6818      	ldr	r0, [r3, #0]
 8004914:	4770      	bx	lr
 8004916:	bf00      	nop
 8004918:	20000070 	.word	0x20000070

0800491c <__libc_init_array>:
 800491c:	b570      	push	{r4, r5, r6, lr}
 800491e:	4d0d      	ldr	r5, [pc, #52]	; (8004954 <__libc_init_array+0x38>)
 8004920:	4c0d      	ldr	r4, [pc, #52]	; (8004958 <__libc_init_array+0x3c>)
 8004922:	1b64      	subs	r4, r4, r5
 8004924:	10a4      	asrs	r4, r4, #2
 8004926:	2600      	movs	r6, #0
 8004928:	42a6      	cmp	r6, r4
 800492a:	d109      	bne.n	8004940 <__libc_init_array+0x24>
 800492c:	4d0b      	ldr	r5, [pc, #44]	; (800495c <__libc_init_array+0x40>)
 800492e:	4c0c      	ldr	r4, [pc, #48]	; (8004960 <__libc_init_array+0x44>)
 8004930:	f000 fcee 	bl	8005310 <_init>
 8004934:	1b64      	subs	r4, r4, r5
 8004936:	10a4      	asrs	r4, r4, #2
 8004938:	2600      	movs	r6, #0
 800493a:	42a6      	cmp	r6, r4
 800493c:	d105      	bne.n	800494a <__libc_init_array+0x2e>
 800493e:	bd70      	pop	{r4, r5, r6, pc}
 8004940:	f855 3b04 	ldr.w	r3, [r5], #4
 8004944:	4798      	blx	r3
 8004946:	3601      	adds	r6, #1
 8004948:	e7ee      	b.n	8004928 <__libc_init_array+0xc>
 800494a:	f855 3b04 	ldr.w	r3, [r5], #4
 800494e:	4798      	blx	r3
 8004950:	3601      	adds	r6, #1
 8004952:	e7f2      	b.n	800493a <__libc_init_array+0x1e>
 8004954:	08005574 	.word	0x08005574
 8004958:	08005574 	.word	0x08005574
 800495c:	08005574 	.word	0x08005574
 8004960:	08005578 	.word	0x08005578

08004964 <memset>:
 8004964:	4402      	add	r2, r0
 8004966:	4603      	mov	r3, r0
 8004968:	4293      	cmp	r3, r2
 800496a:	d100      	bne.n	800496e <memset+0xa>
 800496c:	4770      	bx	lr
 800496e:	f803 1b01 	strb.w	r1, [r3], #1
 8004972:	e7f9      	b.n	8004968 <memset+0x4>

08004974 <siprintf>:
 8004974:	b40e      	push	{r1, r2, r3}
 8004976:	b500      	push	{lr}
 8004978:	b09c      	sub	sp, #112	; 0x70
 800497a:	ab1d      	add	r3, sp, #116	; 0x74
 800497c:	9002      	str	r0, [sp, #8]
 800497e:	9006      	str	r0, [sp, #24]
 8004980:	f06f 4100 	mvn.w	r1, #2147483648	; 0x80000000
 8004984:	4809      	ldr	r0, [pc, #36]	; (80049ac <siprintf+0x38>)
 8004986:	9107      	str	r1, [sp, #28]
 8004988:	9104      	str	r1, [sp, #16]
 800498a:	4909      	ldr	r1, [pc, #36]	; (80049b0 <siprintf+0x3c>)
 800498c:	f853 2b04 	ldr.w	r2, [r3], #4
 8004990:	9105      	str	r1, [sp, #20]
 8004992:	6800      	ldr	r0, [r0, #0]
 8004994:	9301      	str	r3, [sp, #4]
 8004996:	a902      	add	r1, sp, #8
 8004998:	f000 f908 	bl	8004bac <_svfiprintf_r>
 800499c:	9b02      	ldr	r3, [sp, #8]
 800499e:	2200      	movs	r2, #0
 80049a0:	701a      	strb	r2, [r3, #0]
 80049a2:	b01c      	add	sp, #112	; 0x70
 80049a4:	f85d eb04 	ldr.w	lr, [sp], #4
 80049a8:	b003      	add	sp, #12
 80049aa:	4770      	bx	lr
 80049ac:	20000070 	.word	0x20000070
 80049b0:	ffff0208 	.word	0xffff0208

080049b4 <strncmp>:
 80049b4:	b510      	push	{r4, lr}
 80049b6:	b16a      	cbz	r2, 80049d4 <strncmp+0x20>
 80049b8:	3901      	subs	r1, #1
 80049ba:	1884      	adds	r4, r0, r2
 80049bc:	f810 3b01 	ldrb.w	r3, [r0], #1
 80049c0:	f811 2f01 	ldrb.w	r2, [r1, #1]!
 80049c4:	4293      	cmp	r3, r2
 80049c6:	d103      	bne.n	80049d0 <strncmp+0x1c>
 80049c8:	42a0      	cmp	r0, r4
 80049ca:	d001      	beq.n	80049d0 <strncmp+0x1c>
 80049cc:	2b00      	cmp	r3, #0
 80049ce:	d1f5      	bne.n	80049bc <strncmp+0x8>
 80049d0:	1a98      	subs	r0, r3, r2
 80049d2:	bd10      	pop	{r4, pc}
 80049d4:	4610      	mov	r0, r2
 80049d6:	e7fc      	b.n	80049d2 <strncmp+0x1e>

080049d8 <_strtol_l.isra.0>:
 80049d8:	2b01      	cmp	r3, #1
 80049da:	e92d 47f0 	stmdb	sp!, {r4, r5, r6, r7, r8, r9, sl, lr}
 80049de:	d001      	beq.n	80049e4 <_strtol_l.isra.0+0xc>
 80049e0:	2b24      	cmp	r3, #36	; 0x24
 80049e2:	d906      	bls.n	80049f2 <_strtol_l.isra.0+0x1a>
 80049e4:	f7ff ff94 	bl	8004910 <__errno>
 80049e8:	2316      	movs	r3, #22
 80049ea:	6003      	str	r3, [r0, #0]
 80049ec:	2000      	movs	r0, #0
 80049ee:	e8bd 87f0 	ldmia.w	sp!, {r4, r5, r6, r7, r8, r9, sl, pc}
 80049f2:	4f3a      	ldr	r7, [pc, #232]	; (8004adc <_strtol_l.isra.0+0x104>)
 80049f4:	468e      	mov	lr, r1
 80049f6:	4676      	mov	r6, lr
 80049f8:	f81e 4b01 	ldrb.w	r4, [lr], #1
 80049fc:	5de5      	ldrb	r5, [r4, r7]
 80049fe:	f015 0508 	ands.w	r5, r5, #8
 8004a02:	d1f8      	bne.n	80049f6 <_strtol_l.isra.0+0x1e>
 8004a04:	2c2d      	cmp	r4, #45	; 0x2d
 8004a06:	d134      	bne.n	8004a72 <_strtol_l.isra.0+0x9a>
 8004a08:	f89e 4000 	ldrb.w	r4, [lr]
 8004a0c:	f04f 0801 	mov.w	r8, #1
 8004a10:	f106 0e02 	add.w	lr, r6, #2
 8004a14:	2b00      	cmp	r3, #0
 8004a16:	d05c      	beq.n	8004ad2 <_strtol_l.isra.0+0xfa>
 8004a18:	2b10      	cmp	r3, #16
 8004a1a:	d10c      	bne.n	8004a36 <_strtol_l.isra.0+0x5e>
 8004a1c:	2c30      	cmp	r4, #48	; 0x30
 8004a1e:	d10a      	bne.n	8004a36 <_strtol_l.isra.0+0x5e>
 8004a20:	f89e 4000 	ldrb.w	r4, [lr]
 8004a24:	f004 04df 	and.w	r4, r4, #223	; 0xdf
 8004a28:	2c58      	cmp	r4, #88	; 0x58
 8004a2a:	d14d      	bne.n	8004ac8 <_strtol_l.isra.0+0xf0>
 8004a2c:	f89e 4001 	ldrb.w	r4, [lr, #1]
 8004a30:	2310      	movs	r3, #16
 8004a32:	f10e 0e02 	add.w	lr, lr, #2
 8004a36:	f108 4c00 	add.w	ip, r8, #2147483648	; 0x80000000
 8004a3a:	f10c 3cff 	add.w	ip, ip, #4294967295	; 0xffffffff
 8004a3e:	2600      	movs	r6, #0
 8004a40:	fbbc f9f3 	udiv	r9, ip, r3
 8004a44:	4635      	mov	r5, r6
 8004a46:	fb03 ca19 	mls	sl, r3, r9, ip
 8004a4a:	f1a4 0730 	sub.w	r7, r4, #48	; 0x30
 8004a4e:	2f09      	cmp	r7, #9
 8004a50:	d818      	bhi.n	8004a84 <_strtol_l.isra.0+0xac>
 8004a52:	463c      	mov	r4, r7
 8004a54:	42a3      	cmp	r3, r4
 8004a56:	dd24      	ble.n	8004aa2 <_strtol_l.isra.0+0xca>
 8004a58:	2e00      	cmp	r6, #0
 8004a5a:	db1f      	blt.n	8004a9c <_strtol_l.isra.0+0xc4>
 8004a5c:	45a9      	cmp	r9, r5
 8004a5e:	d31d      	bcc.n	8004a9c <_strtol_l.isra.0+0xc4>
 8004a60:	d101      	bne.n	8004a66 <_strtol_l.isra.0+0x8e>
 8004a62:	45a2      	cmp	sl, r4
 8004a64:	db1a      	blt.n	8004a9c <_strtol_l.isra.0+0xc4>
 8004a66:	fb05 4503 	mla	r5, r5, r3, r4
 8004a6a:	2601      	movs	r6, #1
 8004a6c:	f81e 4b01 	ldrb.w	r4, [lr], #1
 8004a70:	e7eb      	b.n	8004a4a <_strtol_l.isra.0+0x72>
 8004a72:	2c2b      	cmp	r4, #43	; 0x2b
 8004a74:	bf08      	it	eq
 8004a76:	f89e 4000 	ldrbeq.w	r4, [lr]
 8004a7a:	46a8      	mov	r8, r5
 8004a7c:	bf08      	it	eq
 8004a7e:	f106 0e02 	addeq.w	lr, r6, #2
 8004a82:	e7c7      	b.n	8004a14 <_strtol_l.isra.0+0x3c>
 8004a84:	f1a4 0741 	sub.w	r7, r4, #65	; 0x41
 8004a88:	2f19      	cmp	r7, #25
 8004a8a:	d801      	bhi.n	8004a90 <_strtol_l.isra.0+0xb8>
 8004a8c:	3c37      	subs	r4, #55	; 0x37
 8004a8e:	e7e1      	b.n	8004a54 <_strtol_l.isra.0+0x7c>
 8004a90:	f1a4 0761 	sub.w	r7, r4, #97	; 0x61
 8004a94:	2f19      	cmp	r7, #25
 8004a96:	d804      	bhi.n	8004aa2 <_strtol_l.isra.0+0xca>
 8004a98:	3c57      	subs	r4, #87	; 0x57
 8004a9a:	e7db      	b.n	8004a54 <_strtol_l.isra.0+0x7c>
 8004a9c:	f04f 36ff 	mov.w	r6, #4294967295	; 0xffffffff
 8004aa0:	e7e4      	b.n	8004a6c <_strtol_l.isra.0+0x94>
 8004aa2:	2e00      	cmp	r6, #0
 8004aa4:	da05      	bge.n	8004ab2 <_strtol_l.isra.0+0xda>
 8004aa6:	2322      	movs	r3, #34	; 0x22
 8004aa8:	6003      	str	r3, [r0, #0]
 8004aaa:	4665      	mov	r5, ip
 8004aac:	b942      	cbnz	r2, 8004ac0 <_strtol_l.isra.0+0xe8>
 8004aae:	4628      	mov	r0, r5
 8004ab0:	e79d      	b.n	80049ee <_strtol_l.isra.0+0x16>
 8004ab2:	f1b8 0f00 	cmp.w	r8, #0
 8004ab6:	d000      	beq.n	8004aba <_strtol_l.isra.0+0xe2>
 8004ab8:	426d      	negs	r5, r5
 8004aba:	2a00      	cmp	r2, #0
 8004abc:	d0f7      	beq.n	8004aae <_strtol_l.isra.0+0xd6>
 8004abe:	b10e      	cbz	r6, 8004ac4 <_strtol_l.isra.0+0xec>
 8004ac0:	f10e 31ff 	add.w	r1, lr, #4294967295	; 0xffffffff
 8004ac4:	6011      	str	r1, [r2, #0]
 8004ac6:	e7f2      	b.n	8004aae <_strtol_l.isra.0+0xd6>
 8004ac8:	2430      	movs	r4, #48	; 0x30
 8004aca:	2b00      	cmp	r3, #0
 8004acc:	d1b3      	bne.n	8004a36 <_strtol_l.isra.0+0x5e>
 8004ace:	2308      	movs	r3, #8
 8004ad0:	e7b1      	b.n	8004a36 <_strtol_l.isra.0+0x5e>
 8004ad2:	2c30      	cmp	r4, #48	; 0x30
 8004ad4:	d0a4      	beq.n	8004a20 <_strtol_l.isra.0+0x48>
 8004ad6:	230a      	movs	r3, #10
 8004ad8:	e7ad      	b.n	8004a36 <_strtol_l.isra.0+0x5e>
 8004ada:	bf00      	nop
 8004adc:	08005439 	.word	0x08005439

08004ae0 <strtol>:
 8004ae0:	4613      	mov	r3, r2
 8004ae2:	460a      	mov	r2, r1
 8004ae4:	4601      	mov	r1, r0
 8004ae6:	4802      	ldr	r0, [pc, #8]	; (8004af0 <strtol+0x10>)
 8004ae8:	6800      	ldr	r0, [r0, #0]
 8004aea:	f7ff bf75 	b.w	80049d8 <_strtol_l.isra.0>
 8004aee:	bf00      	nop
 8004af0:	20000070 	.word	0x20000070

08004af4 <__ssputs_r>:
 8004af4:	e92d 47f0 	stmdb	sp!, {r4, r5, r6, r7, r8, r9, sl, lr}
 8004af8:	688e      	ldr	r6, [r1, #8]
 8004afa:	429e      	cmp	r6, r3
 8004afc:	4682      	mov	sl, r0
 8004afe:	460c      	mov	r4, r1
 8004b00:	4690      	mov	r8, r2
 8004b02:	461f      	mov	r7, r3
 8004b04:	d838      	bhi.n	8004b78 <__ssputs_r+0x84>
 8004b06:	898a      	ldrh	r2, [r1, #12]
 8004b08:	f412 6f90 	tst.w	r2, #1152	; 0x480
 8004b0c:	d032      	beq.n	8004b74 <__ssputs_r+0x80>
 8004b0e:	6825      	ldr	r5, [r4, #0]
 8004b10:	6909      	ldr	r1, [r1, #16]
 8004b12:	eba5 0901 	sub.w	r9, r5, r1
 8004b16:	6965      	ldr	r5, [r4, #20]
 8004b18:	eb05 0545 	add.w	r5, r5, r5, lsl #1
 8004b1c:	eb05 75d5 	add.w	r5, r5, r5, lsr #31
 8004b20:	3301      	adds	r3, #1
 8004b22:	444b      	add	r3, r9
 8004b24:	106d      	asrs	r5, r5, #1
 8004b26:	429d      	cmp	r5, r3
 8004b28:	bf38      	it	cc
 8004b2a:	461d      	movcc	r5, r3
 8004b2c:	0553      	lsls	r3, r2, #21
 8004b2e:	d531      	bpl.n	8004b94 <__ssputs_r+0xa0>
 8004b30:	4629      	mov	r1, r5
 8004b32:	f000 fb47 	bl	80051c4 <_malloc_r>
 8004b36:	4606      	mov	r6, r0
 8004b38:	b950      	cbnz	r0, 8004b50 <__ssputs_r+0x5c>
 8004b3a:	230c      	movs	r3, #12
 8004b3c:	f8ca 3000 	str.w	r3, [sl]
 8004b40:	89a3      	ldrh	r3, [r4, #12]
 8004b42:	f043 0340 	orr.w	r3, r3, #64	; 0x40
 8004b46:	81a3      	strh	r3, [r4, #12]
 8004b48:	f04f 30ff 	mov.w	r0, #4294967295	; 0xffffffff
 8004b4c:	e8bd 87f0 	ldmia.w	sp!, {r4, r5, r6, r7, r8, r9, sl, pc}
 8004b50:	6921      	ldr	r1, [r4, #16]
 8004b52:	464a      	mov	r2, r9
 8004b54:	f000 fabe 	bl	80050d4 <memcpy>
 8004b58:	89a3      	ldrh	r3, [r4, #12]
 8004b5a:	f423 6390 	bic.w	r3, r3, #1152	; 0x480
 8004b5e:	f043 0380 	orr.w	r3, r3, #128	; 0x80
 8004b62:	81a3      	strh	r3, [r4, #12]
 8004b64:	6126      	str	r6, [r4, #16]
 8004b66:	6165      	str	r5, [r4, #20]
 8004b68:	444e      	add	r6, r9
 8004b6a:	eba5 0509 	sub.w	r5, r5, r9
 8004b6e:	6026      	str	r6, [r4, #0]
 8004b70:	60a5      	str	r5, [r4, #8]
 8004b72:	463e      	mov	r6, r7
 8004b74:	42be      	cmp	r6, r7
 8004b76:	d900      	bls.n	8004b7a <__ssputs_r+0x86>
 8004b78:	463e      	mov	r6, r7
 8004b7a:	4632      	mov	r2, r6
 8004b7c:	6820      	ldr	r0, [r4, #0]
 8004b7e:	4641      	mov	r1, r8
 8004b80:	f000 fab6 	bl	80050f0 <memmove>
 8004b84:	68a3      	ldr	r3, [r4, #8]
 8004b86:	6822      	ldr	r2, [r4, #0]
 8004b88:	1b9b      	subs	r3, r3, r6
 8004b8a:	4432      	add	r2, r6
 8004b8c:	60a3      	str	r3, [r4, #8]
 8004b8e:	6022      	str	r2, [r4, #0]
 8004b90:	2000      	movs	r0, #0
 8004b92:	e7db      	b.n	8004b4c <__ssputs_r+0x58>
 8004b94:	462a      	mov	r2, r5
 8004b96:	f000 fb6f 	bl	8005278 <_realloc_r>
 8004b9a:	4606      	mov	r6, r0
 8004b9c:	2800      	cmp	r0, #0
 8004b9e:	d1e1      	bne.n	8004b64 <__ssputs_r+0x70>
 8004ba0:	6921      	ldr	r1, [r4, #16]
 8004ba2:	4650      	mov	r0, sl
 8004ba4:	f000 fabe 	bl	8005124 <_free_r>
 8004ba8:	e7c7      	b.n	8004b3a <__ssputs_r+0x46>
	...

08004bac <_svfiprintf_r>:
 8004bac:	e92d 4ff0 	stmdb	sp!, {r4, r5, r6, r7, r8, r9, sl, fp, lr}
 8004bb0:	4698      	mov	r8, r3
 8004bb2:	898b      	ldrh	r3, [r1, #12]
 8004bb4:	061b      	lsls	r3, r3, #24
 8004bb6:	b09d      	sub	sp, #116	; 0x74
 8004bb8:	4607      	mov	r7, r0
 8004bba:	460d      	mov	r5, r1
 8004bbc:	4614      	mov	r4, r2
 8004bbe:	d50e      	bpl.n	8004bde <_svfiprintf_r+0x32>
 8004bc0:	690b      	ldr	r3, [r1, #16]
 8004bc2:	b963      	cbnz	r3, 8004bde <_svfiprintf_r+0x32>
 8004bc4:	2140      	movs	r1, #64	; 0x40
 8004bc6:	f000 fafd 	bl	80051c4 <_malloc_r>
 8004bca:	6028      	str	r0, [r5, #0]
 8004bcc:	6128      	str	r0, [r5, #16]
 8004bce:	b920      	cbnz	r0, 8004bda <_svfiprintf_r+0x2e>
 8004bd0:	230c      	movs	r3, #12
 8004bd2:	603b      	str	r3, [r7, #0]
 8004bd4:	f04f 30ff 	mov.w	r0, #4294967295	; 0xffffffff
 8004bd8:	e0d1      	b.n	8004d7e <_svfiprintf_r+0x1d2>
 8004bda:	2340      	movs	r3, #64	; 0x40
 8004bdc:	616b      	str	r3, [r5, #20]
 8004bde:	2300      	movs	r3, #0
 8004be0:	9309      	str	r3, [sp, #36]	; 0x24
 8004be2:	2320      	movs	r3, #32
 8004be4:	f88d 3029 	strb.w	r3, [sp, #41]	; 0x29
 8004be8:	f8cd 800c 	str.w	r8, [sp, #12]
 8004bec:	2330      	movs	r3, #48	; 0x30
 8004bee:	f8df 81a8 	ldr.w	r8, [pc, #424]	; 8004d98 <_svfiprintf_r+0x1ec>
 8004bf2:	f88d 302a 	strb.w	r3, [sp, #42]	; 0x2a
 8004bf6:	f04f 0901 	mov.w	r9, #1
 8004bfa:	4623      	mov	r3, r4
 8004bfc:	469a      	mov	sl, r3
 8004bfe:	f813 2b01 	ldrb.w	r2, [r3], #1
 8004c02:	b10a      	cbz	r2, 8004c08 <_svfiprintf_r+0x5c>
 8004c04:	2a25      	cmp	r2, #37	; 0x25
 8004c06:	d1f9      	bne.n	8004bfc <_svfiprintf_r+0x50>
 8004c08:	ebba 0b04 	subs.w	fp, sl, r4
 8004c0c:	d00b      	beq.n	8004c26 <_svfiprintf_r+0x7a>
 8004c0e:	465b      	mov	r3, fp
 8004c10:	4622      	mov	r2, r4
 8004c12:	4629      	mov	r1, r5
 8004c14:	4638      	mov	r0, r7
 8004c16:	f7ff ff6d 	bl	8004af4 <__ssputs_r>
 8004c1a:	3001      	adds	r0, #1
 8004c1c:	f000 80aa 	beq.w	8004d74 <_svfiprintf_r+0x1c8>
 8004c20:	9a09      	ldr	r2, [sp, #36]	; 0x24
 8004c22:	445a      	add	r2, fp
 8004c24:	9209      	str	r2, [sp, #36]	; 0x24
 8004c26:	f89a 3000 	ldrb.w	r3, [sl]
 8004c2a:	2b00      	cmp	r3, #0
 8004c2c:	f000 80a2 	beq.w	8004d74 <_svfiprintf_r+0x1c8>
 8004c30:	2300      	movs	r3, #0
 8004c32:	f04f 32ff 	mov.w	r2, #4294967295	; 0xffffffff
 8004c36:	e9cd 2305 	strd	r2, r3, [sp, #20]
 8004c3a:	f10a 0a01 	add.w	sl, sl, #1
 8004c3e:	9304      	str	r3, [sp, #16]
 8004c40:	9307      	str	r3, [sp, #28]
 8004c42:	f88d 3053 	strb.w	r3, [sp, #83]	; 0x53
 8004c46:	931a      	str	r3, [sp, #104]	; 0x68
 8004c48:	4654      	mov	r4, sl
 8004c4a:	2205      	movs	r2, #5
 8004c4c:	f814 1b01 	ldrb.w	r1, [r4], #1
 8004c50:	4851      	ldr	r0, [pc, #324]	; (8004d98 <_svfiprintf_r+0x1ec>)
 8004c52:	f7fb fac5 	bl	80001e0 <memchr>
 8004c56:	9a04      	ldr	r2, [sp, #16]
 8004c58:	b9d8      	cbnz	r0, 8004c92 <_svfiprintf_r+0xe6>
 8004c5a:	06d0      	lsls	r0, r2, #27
 8004c5c:	bf44      	itt	mi
 8004c5e:	2320      	movmi	r3, #32
 8004c60:	f88d 3053 	strbmi.w	r3, [sp, #83]	; 0x53
 8004c64:	0711      	lsls	r1, r2, #28
 8004c66:	bf44      	itt	mi
 8004c68:	232b      	movmi	r3, #43	; 0x2b
 8004c6a:	f88d 3053 	strbmi.w	r3, [sp, #83]	; 0x53
 8004c6e:	f89a 3000 	ldrb.w	r3, [sl]
 8004c72:	2b2a      	cmp	r3, #42	; 0x2a
 8004c74:	d015      	beq.n	8004ca2 <_svfiprintf_r+0xf6>
 8004c76:	9a07      	ldr	r2, [sp, #28]
 8004c78:	4654      	mov	r4, sl
 8004c7a:	2000      	movs	r0, #0
 8004c7c:	f04f 0c0a 	mov.w	ip, #10
 8004c80:	4621      	mov	r1, r4
 8004c82:	f811 3b01 	ldrb.w	r3, [r1], #1
 8004c86:	3b30      	subs	r3, #48	; 0x30
 8004c88:	2b09      	cmp	r3, #9
 8004c8a:	d94e      	bls.n	8004d2a <_svfiprintf_r+0x17e>
 8004c8c:	b1b0      	cbz	r0, 8004cbc <_svfiprintf_r+0x110>
 8004c8e:	9207      	str	r2, [sp, #28]
 8004c90:	e014      	b.n	8004cbc <_svfiprintf_r+0x110>
 8004c92:	eba0 0308 	sub.w	r3, r0, r8
 8004c96:	fa09 f303 	lsl.w	r3, r9, r3
 8004c9a:	4313      	orrs	r3, r2
 8004c9c:	9304      	str	r3, [sp, #16]
 8004c9e:	46a2      	mov	sl, r4
 8004ca0:	e7d2      	b.n	8004c48 <_svfiprintf_r+0x9c>
 8004ca2:	9b03      	ldr	r3, [sp, #12]
 8004ca4:	1d19      	adds	r1, r3, #4
 8004ca6:	681b      	ldr	r3, [r3, #0]
 8004ca8:	9103      	str	r1, [sp, #12]
 8004caa:	2b00      	cmp	r3, #0
 8004cac:	bfbb      	ittet	lt
 8004cae:	425b      	neglt	r3, r3
 8004cb0:	f042 0202 	orrlt.w	r2, r2, #2
 8004cb4:	9307      	strge	r3, [sp, #28]
 8004cb6:	9307      	strlt	r3, [sp, #28]
 8004cb8:	bfb8      	it	lt
 8004cba:	9204      	strlt	r2, [sp, #16]
 8004cbc:	7823      	ldrb	r3, [r4, #0]
 8004cbe:	2b2e      	cmp	r3, #46	; 0x2e
 8004cc0:	d10c      	bne.n	8004cdc <_svfiprintf_r+0x130>
 8004cc2:	7863      	ldrb	r3, [r4, #1]
 8004cc4:	2b2a      	cmp	r3, #42	; 0x2a
 8004cc6:	d135      	bne.n	8004d34 <_svfiprintf_r+0x188>
 8004cc8:	9b03      	ldr	r3, [sp, #12]
 8004cca:	1d1a      	adds	r2, r3, #4
 8004ccc:	681b      	ldr	r3, [r3, #0]
 8004cce:	9203      	str	r2, [sp, #12]
 8004cd0:	2b00      	cmp	r3, #0
 8004cd2:	bfb8      	it	lt
 8004cd4:	f04f 33ff 	movlt.w	r3, #4294967295	; 0xffffffff
 8004cd8:	3402      	adds	r4, #2
 8004cda:	9305      	str	r3, [sp, #20]
 8004cdc:	f8df a0c8 	ldr.w	sl, [pc, #200]	; 8004da8 <_svfiprintf_r+0x1fc>
 8004ce0:	7821      	ldrb	r1, [r4, #0]
 8004ce2:	2203      	movs	r2, #3
 8004ce4:	4650      	mov	r0, sl
 8004ce6:	f7fb fa7b 	bl	80001e0 <memchr>
 8004cea:	b140      	cbz	r0, 8004cfe <_svfiprintf_r+0x152>
 8004cec:	2340      	movs	r3, #64	; 0x40
 8004cee:	eba0 000a 	sub.w	r0, r0, sl
 8004cf2:	fa03 f000 	lsl.w	r0, r3, r0
 8004cf6:	9b04      	ldr	r3, [sp, #16]
 8004cf8:	4303      	orrs	r3, r0
 8004cfa:	3401      	adds	r4, #1
 8004cfc:	9304      	str	r3, [sp, #16]
 8004cfe:	f814 1b01 	ldrb.w	r1, [r4], #1
 8004d02:	4826      	ldr	r0, [pc, #152]	; (8004d9c <_svfiprintf_r+0x1f0>)
 8004d04:	f88d 1028 	strb.w	r1, [sp, #40]	; 0x28
 8004d08:	2206      	movs	r2, #6
 8004d0a:	f7fb fa69 	bl	80001e0 <memchr>
 8004d0e:	2800      	cmp	r0, #0
 8004d10:	d038      	beq.n	8004d84 <_svfiprintf_r+0x1d8>
 8004d12:	4b23      	ldr	r3, [pc, #140]	; (8004da0 <_svfiprintf_r+0x1f4>)
 8004d14:	bb1b      	cbnz	r3, 8004d5e <_svfiprintf_r+0x1b2>
 8004d16:	9b03      	ldr	r3, [sp, #12]
 8004d18:	3307      	adds	r3, #7
 8004d1a:	f023 0307 	bic.w	r3, r3, #7
 8004d1e:	3308      	adds	r3, #8
 8004d20:	9303      	str	r3, [sp, #12]
 8004d22:	9b09      	ldr	r3, [sp, #36]	; 0x24
 8004d24:	4433      	add	r3, r6
 8004d26:	9309      	str	r3, [sp, #36]	; 0x24
 8004d28:	e767      	b.n	8004bfa <_svfiprintf_r+0x4e>
 8004d2a:	fb0c 3202 	mla	r2, ip, r2, r3
 8004d2e:	460c      	mov	r4, r1
 8004d30:	2001      	movs	r0, #1
 8004d32:	e7a5      	b.n	8004c80 <_svfiprintf_r+0xd4>
 8004d34:	2300      	movs	r3, #0
 8004d36:	3401      	adds	r4, #1
 8004d38:	9305      	str	r3, [sp, #20]
 8004d3a:	4619      	mov	r1, r3
 8004d3c:	f04f 0c0a 	mov.w	ip, #10
 8004d40:	4620      	mov	r0, r4
 8004d42:	f810 2b01 	ldrb.w	r2, [r0], #1
 8004d46:	3a30      	subs	r2, #48	; 0x30
 8004d48:	2a09      	cmp	r2, #9
 8004d4a:	d903      	bls.n	8004d54 <_svfiprintf_r+0x1a8>
 8004d4c:	2b00      	cmp	r3, #0
 8004d4e:	d0c5      	beq.n	8004cdc <_svfiprintf_r+0x130>
 8004d50:	9105      	str	r1, [sp, #20]
 8004d52:	e7c3      	b.n	8004cdc <_svfiprintf_r+0x130>
 8004d54:	fb0c 2101 	mla	r1, ip, r1, r2
 8004d58:	4604      	mov	r4, r0
 8004d5a:	2301      	movs	r3, #1
 8004d5c:	e7f0      	b.n	8004d40 <_svfiprintf_r+0x194>
 8004d5e:	ab03      	add	r3, sp, #12
 8004d60:	9300      	str	r3, [sp, #0]
 8004d62:	462a      	mov	r2, r5
 8004d64:	4b0f      	ldr	r3, [pc, #60]	; (8004da4 <_svfiprintf_r+0x1f8>)
 8004d66:	a904      	add	r1, sp, #16
 8004d68:	4638      	mov	r0, r7
 8004d6a:	f3af 8000 	nop.w
 8004d6e:	1c42      	adds	r2, r0, #1
 8004d70:	4606      	mov	r6, r0
 8004d72:	d1d6      	bne.n	8004d22 <_svfiprintf_r+0x176>
 8004d74:	89ab      	ldrh	r3, [r5, #12]
 8004d76:	065b      	lsls	r3, r3, #25
 8004d78:	f53f af2c 	bmi.w	8004bd4 <_svfiprintf_r+0x28>
 8004d7c:	9809      	ldr	r0, [sp, #36]	; 0x24
 8004d7e:	b01d      	add	sp, #116	; 0x74
 8004d80:	e8bd 8ff0 	ldmia.w	sp!, {r4, r5, r6, r7, r8, r9, sl, fp, pc}
 8004d84:	ab03      	add	r3, sp, #12
 8004d86:	9300      	str	r3, [sp, #0]
 8004d88:	462a      	mov	r2, r5
 8004d8a:	4b06      	ldr	r3, [pc, #24]	; (8004da4 <_svfiprintf_r+0x1f8>)
 8004d8c:	a904      	add	r1, sp, #16
 8004d8e:	4638      	mov	r0, r7
 8004d90:	f000 f87a 	bl	8004e88 <_printf_i>
 8004d94:	e7eb      	b.n	8004d6e <_svfiprintf_r+0x1c2>
 8004d96:	bf00      	nop
 8004d98:	08005539 	.word	0x08005539
 8004d9c:	08005543 	.word	0x08005543
 8004da0:	00000000 	.word	0x00000000
 8004da4:	08004af5 	.word	0x08004af5
 8004da8:	0800553f 	.word	0x0800553f

08004dac <_printf_common>:
 8004dac:	e92d 47f0 	stmdb	sp!, {r4, r5, r6, r7, r8, r9, sl, lr}
 8004db0:	4616      	mov	r6, r2
 8004db2:	4699      	mov	r9, r3
 8004db4:	688a      	ldr	r2, [r1, #8]
 8004db6:	690b      	ldr	r3, [r1, #16]
 8004db8:	f8dd 8020 	ldr.w	r8, [sp, #32]
 8004dbc:	4293      	cmp	r3, r2
 8004dbe:	bfb8      	it	lt
 8004dc0:	4613      	movlt	r3, r2
 8004dc2:	6033      	str	r3, [r6, #0]
 8004dc4:	f891 2043 	ldrb.w	r2, [r1, #67]	; 0x43
 8004dc8:	4607      	mov	r7, r0
 8004dca:	460c      	mov	r4, r1
 8004dcc:	b10a      	cbz	r2, 8004dd2 <_printf_common+0x26>
 8004dce:	3301      	adds	r3, #1
 8004dd0:	6033      	str	r3, [r6, #0]
 8004dd2:	6823      	ldr	r3, [r4, #0]
 8004dd4:	0699      	lsls	r1, r3, #26
 8004dd6:	bf42      	ittt	mi
 8004dd8:	6833      	ldrmi	r3, [r6, #0]
 8004dda:	3302      	addmi	r3, #2
 8004ddc:	6033      	strmi	r3, [r6, #0]
 8004dde:	6825      	ldr	r5, [r4, #0]
 8004de0:	f015 0506 	ands.w	r5, r5, #6
 8004de4:	d106      	bne.n	8004df4 <_printf_common+0x48>
 8004de6:	f104 0a19 	add.w	sl, r4, #25
 8004dea:	68e3      	ldr	r3, [r4, #12]
 8004dec:	6832      	ldr	r2, [r6, #0]
 8004dee:	1a9b      	subs	r3, r3, r2
 8004df0:	42ab      	cmp	r3, r5
 8004df2:	dc26      	bgt.n	8004e42 <_printf_common+0x96>
 8004df4:	f894 2043 	ldrb.w	r2, [r4, #67]	; 0x43
 8004df8:	1e13      	subs	r3, r2, #0
 8004dfa:	6822      	ldr	r2, [r4, #0]
 8004dfc:	bf18      	it	ne
 8004dfe:	2301      	movne	r3, #1
 8004e00:	0692      	lsls	r2, r2, #26
 8004e02:	d42b      	bmi.n	8004e5c <_printf_common+0xb0>
 8004e04:	f104 0243 	add.w	r2, r4, #67	; 0x43
 8004e08:	4649      	mov	r1, r9
 8004e0a:	4638      	mov	r0, r7
 8004e0c:	47c0      	blx	r8
 8004e0e:	3001      	adds	r0, #1
 8004e10:	d01e      	beq.n	8004e50 <_printf_common+0xa4>
 8004e12:	6823      	ldr	r3, [r4, #0]
 8004e14:	68e5      	ldr	r5, [r4, #12]
 8004e16:	6832      	ldr	r2, [r6, #0]
 8004e18:	f003 0306 	and.w	r3, r3, #6
 8004e1c:	2b04      	cmp	r3, #4
 8004e1e:	bf08      	it	eq
 8004e20:	1aad      	subeq	r5, r5, r2
 8004e22:	68a3      	ldr	r3, [r4, #8]
 8004e24:	6922      	ldr	r2, [r4, #16]
 8004e26:	bf0c      	ite	eq
 8004e28:	ea25 75e5 	biceq.w	r5, r5, r5, asr #31
 8004e2c:	2500      	movne	r5, #0
 8004e2e:	4293      	cmp	r3, r2
 8004e30:	bfc4      	itt	gt
 8004e32:	1a9b      	subgt	r3, r3, r2
 8004e34:	18ed      	addgt	r5, r5, r3
 8004e36:	2600      	movs	r6, #0
 8004e38:	341a      	adds	r4, #26
 8004e3a:	42b5      	cmp	r5, r6
 8004e3c:	d11a      	bne.n	8004e74 <_printf_common+0xc8>
 8004e3e:	2000      	movs	r0, #0
 8004e40:	e008      	b.n	8004e54 <_printf_common+0xa8>
 8004e42:	2301      	movs	r3, #1
 8004e44:	4652      	mov	r2, sl
 8004e46:	4649      	mov	r1, r9
 8004e48:	4638      	mov	r0, r7
 8004e4a:	47c0      	blx	r8
 8004e4c:	3001      	adds	r0, #1
 8004e4e:	d103      	bne.n	8004e58 <_printf_common+0xac>
 8004e50:	f04f 30ff 	mov.w	r0, #4294967295	; 0xffffffff
 8004e54:	e8bd 87f0 	ldmia.w	sp!, {r4, r5, r6, r7, r8, r9, sl, pc}
 8004e58:	3501      	adds	r5, #1
 8004e5a:	e7c6      	b.n	8004dea <_printf_common+0x3e>
 8004e5c:	18e1      	adds	r1, r4, r3
 8004e5e:	1c5a      	adds	r2, r3, #1
 8004e60:	2030      	movs	r0, #48	; 0x30
 8004e62:	f881 0043 	strb.w	r0, [r1, #67]	; 0x43
 8004e66:	4422      	add	r2, r4
 8004e68:	f894 1045 	ldrb.w	r1, [r4, #69]	; 0x45
 8004e6c:	f882 1043 	strb.w	r1, [r2, #67]	; 0x43
 8004e70:	3302      	adds	r3, #2
 8004e72:	e7c7      	b.n	8004e04 <_printf_common+0x58>
 8004e74:	2301      	movs	r3, #1
 8004e76:	4622      	mov	r2, r4
 8004e78:	4649      	mov	r1, r9
 8004e7a:	4638      	mov	r0, r7
 8004e7c:	47c0      	blx	r8
 8004e7e:	3001      	adds	r0, #1
 8004e80:	d0e6      	beq.n	8004e50 <_printf_common+0xa4>
 8004e82:	3601      	adds	r6, #1
 8004e84:	e7d9      	b.n	8004e3a <_printf_common+0x8e>
	...

08004e88 <_printf_i>:
 8004e88:	e92d 47ff 	stmdb	sp!, {r0, r1, r2, r3, r4, r5, r6, r7, r8, r9, sl, lr}
 8004e8c:	460c      	mov	r4, r1
 8004e8e:	4691      	mov	r9, r2
 8004e90:	7e27      	ldrb	r7, [r4, #24]
 8004e92:	990c      	ldr	r1, [sp, #48]	; 0x30
 8004e94:	2f78      	cmp	r7, #120	; 0x78
 8004e96:	4680      	mov	r8, r0
 8004e98:	469a      	mov	sl, r3
 8004e9a:	f104 0243 	add.w	r2, r4, #67	; 0x43
 8004e9e:	d807      	bhi.n	8004eb0 <_printf_i+0x28>
 8004ea0:	2f62      	cmp	r7, #98	; 0x62
 8004ea2:	d80a      	bhi.n	8004eba <_printf_i+0x32>
 8004ea4:	2f00      	cmp	r7, #0
 8004ea6:	f000 80d8 	beq.w	800505a <_printf_i+0x1d2>
 8004eaa:	2f58      	cmp	r7, #88	; 0x58
 8004eac:	f000 80a3 	beq.w	8004ff6 <_printf_i+0x16e>
 8004eb0:	f104 0642 	add.w	r6, r4, #66	; 0x42
 8004eb4:	f884 7042 	strb.w	r7, [r4, #66]	; 0x42
 8004eb8:	e03a      	b.n	8004f30 <_printf_i+0xa8>
 8004eba:	f1a7 0363 	sub.w	r3, r7, #99	; 0x63
 8004ebe:	2b15      	cmp	r3, #21
 8004ec0:	d8f6      	bhi.n	8004eb0 <_printf_i+0x28>
 8004ec2:	a001      	add	r0, pc, #4	; (adr r0, 8004ec8 <_printf_i+0x40>)
 8004ec4:	f850 f023 	ldr.w	pc, [r0, r3, lsl #2]
 8004ec8:	08004f21 	.word	0x08004f21
 8004ecc:	08004f35 	.word	0x08004f35
 8004ed0:	08004eb1 	.word	0x08004eb1
 8004ed4:	08004eb1 	.word	0x08004eb1
 8004ed8:	08004eb1 	.word	0x08004eb1
 8004edc:	08004eb1 	.word	0x08004eb1
 8004ee0:	08004f35 	.word	0x08004f35
 8004ee4:	08004eb1 	.word	0x08004eb1
 8004ee8:	08004eb1 	.word	0x08004eb1
 8004eec:	08004eb1 	.word	0x08004eb1
 8004ef0:	08004eb1 	.word	0x08004eb1
 8004ef4:	08005041 	.word	0x08005041
 8004ef8:	08004f65 	.word	0x08004f65
 8004efc:	08005023 	.word	0x08005023
 8004f00:	08004eb1 	.word	0x08004eb1
 8004f04:	08004eb1 	.word	0x08004eb1
 8004f08:	08005063 	.word	0x08005063
 8004f0c:	08004eb1 	.word	0x08004eb1
 8004f10:	08004f65 	.word	0x08004f65
 8004f14:	08004eb1 	.word	0x08004eb1
 8004f18:	08004eb1 	.word	0x08004eb1
 8004f1c:	0800502b 	.word	0x0800502b
 8004f20:	680b      	ldr	r3, [r1, #0]
 8004f22:	1d1a      	adds	r2, r3, #4
 8004f24:	681b      	ldr	r3, [r3, #0]
 8004f26:	600a      	str	r2, [r1, #0]
 8004f28:	f104 0642 	add.w	r6, r4, #66	; 0x42
 8004f2c:	f884 3042 	strb.w	r3, [r4, #66]	; 0x42
 8004f30:	2301      	movs	r3, #1
 8004f32:	e0a3      	b.n	800507c <_printf_i+0x1f4>
 8004f34:	6825      	ldr	r5, [r4, #0]
 8004f36:	6808      	ldr	r0, [r1, #0]
 8004f38:	062e      	lsls	r6, r5, #24
 8004f3a:	f100 0304 	add.w	r3, r0, #4
 8004f3e:	d50a      	bpl.n	8004f56 <_printf_i+0xce>
 8004f40:	6805      	ldr	r5, [r0, #0]
 8004f42:	600b      	str	r3, [r1, #0]
 8004f44:	2d00      	cmp	r5, #0
 8004f46:	da03      	bge.n	8004f50 <_printf_i+0xc8>
 8004f48:	232d      	movs	r3, #45	; 0x2d
 8004f4a:	426d      	negs	r5, r5
 8004f4c:	f884 3043 	strb.w	r3, [r4, #67]	; 0x43
 8004f50:	485e      	ldr	r0, [pc, #376]	; (80050cc <_printf_i+0x244>)
 8004f52:	230a      	movs	r3, #10
 8004f54:	e019      	b.n	8004f8a <_printf_i+0x102>
 8004f56:	f015 0f40 	tst.w	r5, #64	; 0x40
 8004f5a:	6805      	ldr	r5, [r0, #0]
 8004f5c:	600b      	str	r3, [r1, #0]
 8004f5e:	bf18      	it	ne
 8004f60:	b22d      	sxthne	r5, r5
 8004f62:	e7ef      	b.n	8004f44 <_printf_i+0xbc>
 8004f64:	680b      	ldr	r3, [r1, #0]
 8004f66:	6825      	ldr	r5, [r4, #0]
 8004f68:	1d18      	adds	r0, r3, #4
 8004f6a:	6008      	str	r0, [r1, #0]
 8004f6c:	0628      	lsls	r0, r5, #24
 8004f6e:	d501      	bpl.n	8004f74 <_printf_i+0xec>
 8004f70:	681d      	ldr	r5, [r3, #0]
 8004f72:	e002      	b.n	8004f7a <_printf_i+0xf2>
 8004f74:	0669      	lsls	r1, r5, #25
 8004f76:	d5fb      	bpl.n	8004f70 <_printf_i+0xe8>
 8004f78:	881d      	ldrh	r5, [r3, #0]
 8004f7a:	4854      	ldr	r0, [pc, #336]	; (80050cc <_printf_i+0x244>)
 8004f7c:	2f6f      	cmp	r7, #111	; 0x6f
 8004f7e:	bf0c      	ite	eq
 8004f80:	2308      	moveq	r3, #8
 8004f82:	230a      	movne	r3, #10
 8004f84:	2100      	movs	r1, #0
 8004f86:	f884 1043 	strb.w	r1, [r4, #67]	; 0x43
 8004f8a:	6866      	ldr	r6, [r4, #4]
 8004f8c:	60a6      	str	r6, [r4, #8]
 8004f8e:	2e00      	cmp	r6, #0
 8004f90:	bfa2      	ittt	ge
 8004f92:	6821      	ldrge	r1, [r4, #0]
 8004f94:	f021 0104 	bicge.w	r1, r1, #4
 8004f98:	6021      	strge	r1, [r4, #0]
 8004f9a:	b90d      	cbnz	r5, 8004fa0 <_printf_i+0x118>
 8004f9c:	2e00      	cmp	r6, #0
 8004f9e:	d04d      	beq.n	800503c <_printf_i+0x1b4>
 8004fa0:	4616      	mov	r6, r2
 8004fa2:	fbb5 f1f3 	udiv	r1, r5, r3
 8004fa6:	fb03 5711 	mls	r7, r3, r1, r5
 8004faa:	5dc7      	ldrb	r7, [r0, r7]
 8004fac:	f806 7d01 	strb.w	r7, [r6, #-1]!
 8004fb0:	462f      	mov	r7, r5
 8004fb2:	42bb      	cmp	r3, r7
 8004fb4:	460d      	mov	r5, r1
 8004fb6:	d9f4      	bls.n	8004fa2 <_printf_i+0x11a>
 8004fb8:	2b08      	cmp	r3, #8
 8004fba:	d10b      	bne.n	8004fd4 <_printf_i+0x14c>
 8004fbc:	6823      	ldr	r3, [r4, #0]
 8004fbe:	07df      	lsls	r7, r3, #31
 8004fc0:	d508      	bpl.n	8004fd4 <_printf_i+0x14c>
 8004fc2:	6923      	ldr	r3, [r4, #16]
 8004fc4:	6861      	ldr	r1, [r4, #4]
 8004fc6:	4299      	cmp	r1, r3
 8004fc8:	bfde      	ittt	le
 8004fca:	2330      	movle	r3, #48	; 0x30
 8004fcc:	f806 3c01 	strble.w	r3, [r6, #-1]
 8004fd0:	f106 36ff 	addle.w	r6, r6, #4294967295	; 0xffffffff
 8004fd4:	1b92      	subs	r2, r2, r6
 8004fd6:	6122      	str	r2, [r4, #16]
 8004fd8:	f8cd a000 	str.w	sl, [sp]
 8004fdc:	464b      	mov	r3, r9
 8004fde:	aa03      	add	r2, sp, #12
 8004fe0:	4621      	mov	r1, r4
 8004fe2:	4640      	mov	r0, r8
 8004fe4:	f7ff fee2 	bl	8004dac <_printf_common>
 8004fe8:	3001      	adds	r0, #1
 8004fea:	d14c      	bne.n	8005086 <_printf_i+0x1fe>
 8004fec:	f04f 30ff 	mov.w	r0, #4294967295	; 0xffffffff
 8004ff0:	b004      	add	sp, #16
 8004ff2:	e8bd 87f0 	ldmia.w	sp!, {r4, r5, r6, r7, r8, r9, sl, pc}
 8004ff6:	4835      	ldr	r0, [pc, #212]	; (80050cc <_printf_i+0x244>)
 8004ff8:	f884 7045 	strb.w	r7, [r4, #69]	; 0x45
 8004ffc:	6823      	ldr	r3, [r4, #0]
 8004ffe:	680e      	ldr	r6, [r1, #0]
 8005000:	061f      	lsls	r7, r3, #24
 8005002:	f856 5b04 	ldr.w	r5, [r6], #4
 8005006:	600e      	str	r6, [r1, #0]
 8005008:	d514      	bpl.n	8005034 <_printf_i+0x1ac>
 800500a:	07d9      	lsls	r1, r3, #31
 800500c:	bf44      	itt	mi
 800500e:	f043 0320 	orrmi.w	r3, r3, #32
 8005012:	6023      	strmi	r3, [r4, #0]
 8005014:	b91d      	cbnz	r5, 800501e <_printf_i+0x196>
 8005016:	6823      	ldr	r3, [r4, #0]
 8005018:	f023 0320 	bic.w	r3, r3, #32
 800501c:	6023      	str	r3, [r4, #0]
 800501e:	2310      	movs	r3, #16
 8005020:	e7b0      	b.n	8004f84 <_printf_i+0xfc>
 8005022:	6823      	ldr	r3, [r4, #0]
 8005024:	f043 0320 	orr.w	r3, r3, #32
 8005028:	6023      	str	r3, [r4, #0]
 800502a:	2378      	movs	r3, #120	; 0x78
 800502c:	4828      	ldr	r0, [pc, #160]	; (80050d0 <_printf_i+0x248>)
 800502e:	f884 3045 	strb.w	r3, [r4, #69]	; 0x45
 8005032:	e7e3      	b.n	8004ffc <_printf_i+0x174>
 8005034:	065e      	lsls	r6, r3, #25
 8005036:	bf48      	it	mi
 8005038:	b2ad      	uxthmi	r5, r5
 800503a:	e7e6      	b.n	800500a <_printf_i+0x182>
 800503c:	4616      	mov	r6, r2
 800503e:	e7bb      	b.n	8004fb8 <_printf_i+0x130>
 8005040:	680b      	ldr	r3, [r1, #0]
 8005042:	6826      	ldr	r6, [r4, #0]
 8005044:	6960      	ldr	r0, [r4, #20]
 8005046:	1d1d      	adds	r5, r3, #4
 8005048:	600d      	str	r5, [r1, #0]
 800504a:	0635      	lsls	r5, r6, #24
 800504c:	681b      	ldr	r3, [r3, #0]
 800504e:	d501      	bpl.n	8005054 <_printf_i+0x1cc>
 8005050:	6018      	str	r0, [r3, #0]
 8005052:	e002      	b.n	800505a <_printf_i+0x1d2>
 8005054:	0671      	lsls	r1, r6, #25
 8005056:	d5fb      	bpl.n	8005050 <_printf_i+0x1c8>
 8005058:	8018      	strh	r0, [r3, #0]
 800505a:	2300      	movs	r3, #0
 800505c:	6123      	str	r3, [r4, #16]
 800505e:	4616      	mov	r6, r2
 8005060:	e7ba      	b.n	8004fd8 <_printf_i+0x150>
 8005062:	680b      	ldr	r3, [r1, #0]
 8005064:	1d1a      	adds	r2, r3, #4
 8005066:	600a      	str	r2, [r1, #0]
 8005068:	681e      	ldr	r6, [r3, #0]
 800506a:	6862      	ldr	r2, [r4, #4]
 800506c:	2100      	movs	r1, #0
 800506e:	4630      	mov	r0, r6
 8005070:	f7fb f8b6 	bl	80001e0 <memchr>
 8005074:	b108      	cbz	r0, 800507a <_printf_i+0x1f2>
 8005076:	1b80      	subs	r0, r0, r6
 8005078:	6060      	str	r0, [r4, #4]
 800507a:	6863      	ldr	r3, [r4, #4]
 800507c:	6123      	str	r3, [r4, #16]
 800507e:	2300      	movs	r3, #0
 8005080:	f884 3043 	strb.w	r3, [r4, #67]	; 0x43
 8005084:	e7a8      	b.n	8004fd8 <_printf_i+0x150>
 8005086:	6923      	ldr	r3, [r4, #16]
 8005088:	4632      	mov	r2, r6
 800508a:	4649      	mov	r1, r9
 800508c:	4640      	mov	r0, r8
 800508e:	47d0      	blx	sl
 8005090:	3001      	adds	r0, #1
 8005092:	d0ab      	beq.n	8004fec <_printf_i+0x164>
 8005094:	6823      	ldr	r3, [r4, #0]
 8005096:	079b      	lsls	r3, r3, #30
 8005098:	d413      	bmi.n	80050c2 <_printf_i+0x23a>
 800509a:	68e0      	ldr	r0, [r4, #12]
 800509c:	9b03      	ldr	r3, [sp, #12]
 800509e:	4298      	cmp	r0, r3
 80050a0:	bfb8      	it	lt
 80050a2:	4618      	movlt	r0, r3
 80050a4:	e7a4      	b.n	8004ff0 <_printf_i+0x168>
 80050a6:	2301      	movs	r3, #1
 80050a8:	4632      	mov	r2, r6
 80050aa:	4649      	mov	r1, r9
 80050ac:	4640      	mov	r0, r8
 80050ae:	47d0      	blx	sl
 80050b0:	3001      	adds	r0, #1
 80050b2:	d09b      	beq.n	8004fec <_printf_i+0x164>
 80050b4:	3501      	adds	r5, #1
 80050b6:	68e3      	ldr	r3, [r4, #12]
 80050b8:	9903      	ldr	r1, [sp, #12]
 80050ba:	1a5b      	subs	r3, r3, r1
 80050bc:	42ab      	cmp	r3, r5
 80050be:	dcf2      	bgt.n	80050a6 <_printf_i+0x21e>
 80050c0:	e7eb      	b.n	800509a <_printf_i+0x212>
 80050c2:	2500      	movs	r5, #0
 80050c4:	f104 0619 	add.w	r6, r4, #25
 80050c8:	e7f5      	b.n	80050b6 <_printf_i+0x22e>
 80050ca:	bf00      	nop
 80050cc:	0800554a 	.word	0x0800554a
 80050d0:	0800555b 	.word	0x0800555b

080050d4 <memcpy>:
 80050d4:	440a      	add	r2, r1
 80050d6:	4291      	cmp	r1, r2
 80050d8:	f100 33ff 	add.w	r3, r0, #4294967295	; 0xffffffff
 80050dc:	d100      	bne.n	80050e0 <memcpy+0xc>
 80050de:	4770      	bx	lr
 80050e0:	b510      	push	{r4, lr}
 80050e2:	f811 4b01 	ldrb.w	r4, [r1], #1
 80050e6:	f803 4f01 	strb.w	r4, [r3, #1]!
 80050ea:	4291      	cmp	r1, r2
 80050ec:	d1f9      	bne.n	80050e2 <memcpy+0xe>
 80050ee:	bd10      	pop	{r4, pc}

080050f0 <memmove>:
 80050f0:	4288      	cmp	r0, r1
 80050f2:	b510      	push	{r4, lr}
 80050f4:	eb01 0402 	add.w	r4, r1, r2
 80050f8:	d902      	bls.n	8005100 <memmove+0x10>
 80050fa:	4284      	cmp	r4, r0
 80050fc:	4623      	mov	r3, r4
 80050fe:	d807      	bhi.n	8005110 <memmove+0x20>
 8005100:	1e43      	subs	r3, r0, #1
 8005102:	42a1      	cmp	r1, r4
 8005104:	d008      	beq.n	8005118 <memmove+0x28>
 8005106:	f811 2b01 	ldrb.w	r2, [r1], #1
 800510a:	f803 2f01 	strb.w	r2, [r3, #1]!
 800510e:	e7f8      	b.n	8005102 <memmove+0x12>
 8005110:	4402      	add	r2, r0
 8005112:	4601      	mov	r1, r0
 8005114:	428a      	cmp	r2, r1
 8005116:	d100      	bne.n	800511a <memmove+0x2a>
 8005118:	bd10      	pop	{r4, pc}
 800511a:	f813 4d01 	ldrb.w	r4, [r3, #-1]!
 800511e:	f802 4d01 	strb.w	r4, [r2, #-1]!
 8005122:	e7f7      	b.n	8005114 <memmove+0x24>

08005124 <_free_r>:
 8005124:	b537      	push	{r0, r1, r2, r4, r5, lr}
 8005126:	2900      	cmp	r1, #0
 8005128:	d048      	beq.n	80051bc <_free_r+0x98>
 800512a:	f851 3c04 	ldr.w	r3, [r1, #-4]
 800512e:	9001      	str	r0, [sp, #4]
 8005130:	2b00      	cmp	r3, #0
 8005132:	f1a1 0404 	sub.w	r4, r1, #4
 8005136:	bfb8      	it	lt
 8005138:	18e4      	addlt	r4, r4, r3
 800513a:	f000 f8d3 	bl	80052e4 <__malloc_lock>
 800513e:	4a20      	ldr	r2, [pc, #128]	; (80051c0 <_free_r+0x9c>)
 8005140:	9801      	ldr	r0, [sp, #4]
 8005142:	6813      	ldr	r3, [r2, #0]
 8005144:	4615      	mov	r5, r2
 8005146:	b933      	cbnz	r3, 8005156 <_free_r+0x32>
 8005148:	6063      	str	r3, [r4, #4]
 800514a:	6014      	str	r4, [r2, #0]
 800514c:	b003      	add	sp, #12
 800514e:	e8bd 4030 	ldmia.w	sp!, {r4, r5, lr}
 8005152:	f000 b8cd 	b.w	80052f0 <__malloc_unlock>
 8005156:	42a3      	cmp	r3, r4
 8005158:	d90b      	bls.n	8005172 <_free_r+0x4e>
 800515a:	6821      	ldr	r1, [r4, #0]
 800515c:	1862      	adds	r2, r4, r1
 800515e:	4293      	cmp	r3, r2
 8005160:	bf04      	itt	eq
 8005162:	681a      	ldreq	r2, [r3, #0]
 8005164:	685b      	ldreq	r3, [r3, #4]
 8005166:	6063      	str	r3, [r4, #4]
 8005168:	bf04      	itt	eq
 800516a:	1852      	addeq	r2, r2, r1
 800516c:	6022      	streq	r2, [r4, #0]
 800516e:	602c      	str	r4, [r5, #0]
 8005170:	e7ec      	b.n	800514c <_free_r+0x28>
 8005172:	461a      	mov	r2, r3
 8005174:	685b      	ldr	r3, [r3, #4]
 8005176:	b10b      	cbz	r3, 800517c <_free_r+0x58>
 8005178:	42a3      	cmp	r3, r4
 800517a:	d9fa      	bls.n	8005172 <_free_r+0x4e>
 800517c:	6811      	ldr	r1, [r2, #0]
 800517e:	1855      	adds	r5, r2, r1
 8005180:	42a5      	cmp	r5, r4
 8005182:	d10b      	bne.n	800519c <_free_r+0x78>
 8005184:	6824      	ldr	r4, [r4, #0]
 8005186:	4421      	add	r1, r4
 8005188:	1854      	adds	r4, r2, r1
 800518a:	42a3      	cmp	r3, r4
 800518c:	6011      	str	r1, [r2, #0]
 800518e:	d1dd      	bne.n	800514c <_free_r+0x28>
 8005190:	681c      	ldr	r4, [r3, #0]
 8005192:	685b      	ldr	r3, [r3, #4]
 8005194:	6053      	str	r3, [r2, #4]
 8005196:	4421      	add	r1, r4
 8005198:	6011      	str	r1, [r2, #0]
 800519a:	e7d7      	b.n	800514c <_free_r+0x28>
 800519c:	d902      	bls.n	80051a4 <_free_r+0x80>
 800519e:	230c      	movs	r3, #12
 80051a0:	6003      	str	r3, [r0, #0]
 80051a2:	e7d3      	b.n	800514c <_free_r+0x28>
 80051a4:	6825      	ldr	r5, [r4, #0]
 80051a6:	1961      	adds	r1, r4, r5
 80051a8:	428b      	cmp	r3, r1
 80051aa:	bf04      	itt	eq
 80051ac:	6819      	ldreq	r1, [r3, #0]
 80051ae:	685b      	ldreq	r3, [r3, #4]
 80051b0:	6063      	str	r3, [r4, #4]
 80051b2:	bf04      	itt	eq
 80051b4:	1949      	addeq	r1, r1, r5
 80051b6:	6021      	streq	r1, [r4, #0]
 80051b8:	6054      	str	r4, [r2, #4]
 80051ba:	e7c7      	b.n	800514c <_free_r+0x28>
 80051bc:	b003      	add	sp, #12
 80051be:	bd30      	pop	{r4, r5, pc}
 80051c0:	20000108 	.word	0x20000108

080051c4 <_malloc_r>:
 80051c4:	b5f8      	push	{r3, r4, r5, r6, r7, lr}
 80051c6:	1ccd      	adds	r5, r1, #3
 80051c8:	f025 0503 	bic.w	r5, r5, #3
 80051cc:	3508      	adds	r5, #8
 80051ce:	2d0c      	cmp	r5, #12
 80051d0:	bf38      	it	cc
 80051d2:	250c      	movcc	r5, #12
 80051d4:	2d00      	cmp	r5, #0
 80051d6:	4606      	mov	r6, r0
 80051d8:	db01      	blt.n	80051de <_malloc_r+0x1a>
 80051da:	42a9      	cmp	r1, r5
 80051dc:	d903      	bls.n	80051e6 <_malloc_r+0x22>
 80051de:	230c      	movs	r3, #12
 80051e0:	6033      	str	r3, [r6, #0]
 80051e2:	2000      	movs	r0, #0
 80051e4:	bdf8      	pop	{r3, r4, r5, r6, r7, pc}
 80051e6:	f000 f87d 	bl	80052e4 <__malloc_lock>
 80051ea:	4921      	ldr	r1, [pc, #132]	; (8005270 <_malloc_r+0xac>)
 80051ec:	680a      	ldr	r2, [r1, #0]
 80051ee:	4614      	mov	r4, r2
 80051f0:	b99c      	cbnz	r4, 800521a <_malloc_r+0x56>
 80051f2:	4f20      	ldr	r7, [pc, #128]	; (8005274 <_malloc_r+0xb0>)
 80051f4:	683b      	ldr	r3, [r7, #0]
 80051f6:	b923      	cbnz	r3, 8005202 <_malloc_r+0x3e>
 80051f8:	4621      	mov	r1, r4
 80051fa:	4630      	mov	r0, r6
 80051fc:	f000 f862 	bl	80052c4 <_sbrk_r>
 8005200:	6038      	str	r0, [r7, #0]
 8005202:	4629      	mov	r1, r5
 8005204:	4630      	mov	r0, r6
 8005206:	f000 f85d 	bl	80052c4 <_sbrk_r>
 800520a:	1c43      	adds	r3, r0, #1
 800520c:	d123      	bne.n	8005256 <_malloc_r+0x92>
 800520e:	230c      	movs	r3, #12
 8005210:	6033      	str	r3, [r6, #0]
 8005212:	4630      	mov	r0, r6
 8005214:	f000 f86c 	bl	80052f0 <__malloc_unlock>
 8005218:	e7e3      	b.n	80051e2 <_malloc_r+0x1e>
 800521a:	6823      	ldr	r3, [r4, #0]
 800521c:	1b5b      	subs	r3, r3, r5
 800521e:	d417      	bmi.n	8005250 <_malloc_r+0x8c>
 8005220:	2b0b      	cmp	r3, #11
 8005222:	d903      	bls.n	800522c <_malloc_r+0x68>
 8005224:	6023      	str	r3, [r4, #0]
 8005226:	441c      	add	r4, r3
 8005228:	6025      	str	r5, [r4, #0]
 800522a:	e004      	b.n	8005236 <_malloc_r+0x72>
 800522c:	6863      	ldr	r3, [r4, #4]
 800522e:	42a2      	cmp	r2, r4
 8005230:	bf0c      	ite	eq
 8005232:	600b      	streq	r3, [r1, #0]
 8005234:	6053      	strne	r3, [r2, #4]
 8005236:	4630      	mov	r0, r6
 8005238:	f000 f85a 	bl	80052f0 <__malloc_unlock>
 800523c:	f104 000b 	add.w	r0, r4, #11
 8005240:	1d23      	adds	r3, r4, #4
 8005242:	f020 0007 	bic.w	r0, r0, #7
 8005246:	1ac2      	subs	r2, r0, r3
 8005248:	d0cc      	beq.n	80051e4 <_malloc_r+0x20>
 800524a:	1a1b      	subs	r3, r3, r0
 800524c:	50a3      	str	r3, [r4, r2]
 800524e:	e7c9      	b.n	80051e4 <_malloc_r+0x20>
 8005250:	4622      	mov	r2, r4
 8005252:	6864      	ldr	r4, [r4, #4]
 8005254:	e7cc      	b.n	80051f0 <_malloc_r+0x2c>
 8005256:	1cc4      	adds	r4, r0, #3
 8005258:	f024 0403 	bic.w	r4, r4, #3
 800525c:	42a0      	cmp	r0, r4
 800525e:	d0e3      	beq.n	8005228 <_malloc_r+0x64>
 8005260:	1a21      	subs	r1, r4, r0
 8005262:	4630      	mov	r0, r6
 8005264:	f000 f82e 	bl	80052c4 <_sbrk_r>
 8005268:	3001      	adds	r0, #1
 800526a:	d1dd      	bne.n	8005228 <_malloc_r+0x64>
 800526c:	e7cf      	b.n	800520e <_malloc_r+0x4a>
 800526e:	bf00      	nop
 8005270:	20000108 	.word	0x20000108
 8005274:	2000010c 	.word	0x2000010c

08005278 <_realloc_r>:
 8005278:	b5f8      	push	{r3, r4, r5, r6, r7, lr}
 800527a:	4607      	mov	r7, r0
 800527c:	4614      	mov	r4, r2
 800527e:	460e      	mov	r6, r1
 8005280:	b921      	cbnz	r1, 800528c <_realloc_r+0x14>
 8005282:	e8bd 40f8 	ldmia.w	sp!, {r3, r4, r5, r6, r7, lr}
 8005286:	4611      	mov	r1, r2
 8005288:	f7ff bf9c 	b.w	80051c4 <_malloc_r>
 800528c:	b922      	cbnz	r2, 8005298 <_realloc_r+0x20>
 800528e:	f7ff ff49 	bl	8005124 <_free_r>
 8005292:	4625      	mov	r5, r4
 8005294:	4628      	mov	r0, r5
 8005296:	bdf8      	pop	{r3, r4, r5, r6, r7, pc}
 8005298:	f000 f830 	bl	80052fc <_malloc_usable_size_r>
 800529c:	42a0      	cmp	r0, r4
 800529e:	d20f      	bcs.n	80052c0 <_realloc_r+0x48>
 80052a0:	4621      	mov	r1, r4
 80052a2:	4638      	mov	r0, r7
 80052a4:	f7ff ff8e 	bl	80051c4 <_malloc_r>
 80052a8:	4605      	mov	r5, r0
 80052aa:	2800      	cmp	r0, #0
 80052ac:	d0f2      	beq.n	8005294 <_realloc_r+0x1c>
 80052ae:	4631      	mov	r1, r6
 80052b0:	4622      	mov	r2, r4
 80052b2:	f7ff ff0f 	bl	80050d4 <memcpy>
 80052b6:	4631      	mov	r1, r6
 80052b8:	4638      	mov	r0, r7
 80052ba:	f7ff ff33 	bl	8005124 <_free_r>
 80052be:	e7e9      	b.n	8005294 <_realloc_r+0x1c>
 80052c0:	4635      	mov	r5, r6
 80052c2:	e7e7      	b.n	8005294 <_realloc_r+0x1c>

080052c4 <_sbrk_r>:
 80052c4:	b538      	push	{r3, r4, r5, lr}
 80052c6:	4d06      	ldr	r5, [pc, #24]	; (80052e0 <_sbrk_r+0x1c>)
 80052c8:	2300      	movs	r3, #0
 80052ca:	4604      	mov	r4, r0
 80052cc:	4608      	mov	r0, r1
 80052ce:	602b      	str	r3, [r5, #0]
 80052d0:	f7fc fc54 	bl	8001b7c <_sbrk>
 80052d4:	1c43      	adds	r3, r0, #1
 80052d6:	d102      	bne.n	80052de <_sbrk_r+0x1a>
 80052d8:	682b      	ldr	r3, [r5, #0]
 80052da:	b103      	cbz	r3, 80052de <_sbrk_r+0x1a>
 80052dc:	6023      	str	r3, [r4, #0]
 80052de:	bd38      	pop	{r3, r4, r5, pc}
 80052e0:	20000258 	.word	0x20000258

080052e4 <__malloc_lock>:
 80052e4:	4801      	ldr	r0, [pc, #4]	; (80052ec <__malloc_lock+0x8>)
 80052e6:	f000 b811 	b.w	800530c <__retarget_lock_acquire_recursive>
 80052ea:	bf00      	nop
 80052ec:	20000260 	.word	0x20000260

080052f0 <__malloc_unlock>:
 80052f0:	4801      	ldr	r0, [pc, #4]	; (80052f8 <__malloc_unlock+0x8>)
 80052f2:	f000 b80c 	b.w	800530e <__retarget_lock_release_recursive>
 80052f6:	bf00      	nop
 80052f8:	20000260 	.word	0x20000260

080052fc <_malloc_usable_size_r>:
 80052fc:	f851 3c04 	ldr.w	r3, [r1, #-4]
 8005300:	1f18      	subs	r0, r3, #4
 8005302:	2b00      	cmp	r3, #0
 8005304:	bfbc      	itt	lt
 8005306:	580b      	ldrlt	r3, [r1, r0]
 8005308:	18c0      	addlt	r0, r0, r3
 800530a:	4770      	bx	lr

0800530c <__retarget_lock_acquire_recursive>:
 800530c:	4770      	bx	lr

0800530e <__retarget_lock_release_recursive>:
 800530e:	4770      	bx	lr

08005310 <_init>:
 8005310:	b5f8      	push	{r3, r4, r5, r6, r7, lr}
 8005312:	bf00      	nop
 8005314:	bcf8      	pop	{r3, r4, r5, r6, r7}
 8005316:	bc08      	pop	{r3}
 8005318:	469e      	mov	lr, r3
 800531a:	4770      	bx	lr

0800531c <_fini>:
 800531c:	b5f8      	push	{r3, r4, r5, r6, r7, lr}
 800531e:	bf00      	nop
 8005320:	bcf8      	pop	{r3, r4, r5, r6, r7}
 8005322:	bc08      	pop	{r3}
 8005324:	469e      	mov	lr, r3
 8005326:	4770      	bx	lr
